------- FILE pke.bas.asm LEVEL 1 PASS 2
      1  5000 ????						; Provided under the CC0 license. See the included LICENSE.txt for details.
      2  5000 ????
      3  5000 ????				      processor	6502
------- FILE vcs.h LEVEL 2 PASS 2
      0  5000 ????				      include	"vcs.h"
      1  5000 ????						; Provided under the CC0 license. See the included LICENSE.txt for details.
      2  5000 ????
      3  5000 ????						; VCS.H
      4  5000 ????						; Version 1.05, 13/November/2003
      5  5000 ????
      6  5000 ????	       00 69	   VERSION_VCS =	105
      7  5000 ????
      8  5000 ????						; THIS IS A PRELIMINARY RELEASE OF *THE* "STANDARD" VCS.H
      9  5000 ????						; THIS FILE IS EXPLICITLY SUPPORTED AS A DASM-PREFERRED COMPANION FILE
     10  5000 ????						; PLEASE DO *NOT* REDISTRIBUTE THIS FILE!
     11  5000 ????						;
     12  5000 ????						; This file defines hardware registers and memory mapping for the
     13  5000 ????						; Atari 2600. It is distributed as a companion machine-specific support package
     14  5000 ????						; for the DASM compiler. Updates to this file, DASM, and associated tools are
     15  5000 ????						; available at at http://www.atari2600.org/dasm
     16  5000 ????						;
     17  5000 ????						; Many thanks to the original author(s) of this file, and to everyone who has
     18  5000 ????						; contributed to understanding the Atari 2600.  If you take issue with the
     19  5000 ????						; contents, or naming of registers, please write to me (atari2600@taswegian.com)
     20  5000 ????						; with your views.  Please contribute, if you think you can improve this
     21  5000 ????						; file!
     22  5000 ????						;
     23  5000 ????						; Latest Revisions...
     24  5000 ????						; 1.05  13/NOV/2003	  - Correction to 1.04 - now functions as requested by MR.
     25  5000 ????						;			  - Added VERSION_VCS equate (which will reflect 100x version #)
     26  5000 ????						;			    This will allow conditional code to verify VCS.H being
     27  5000 ????						;			    used for code assembly.
     28  5000 ????						; 1.04  12/NOV/2003	 Added TIA_BASE_WRITE_ADDRESS and TIA_BASE_READ_ADDRESS for
     29  5000 ????						;			 convenient disassembly/reassembly compatibility for hardware
     30  5000 ????						;			 mirrored reading/writing differences.	This is more a
     31  5000 ????						;			 readability issue, and binary compatibility with disassembled
     32  5000 ????						;			 and reassembled sources.  Per Manuel Rotschkar's suggestion.
     33  5000 ????						; 1.03  12/MAY/2003	 Added SEG segment at end of file to fix old-code compatibility
     34  5000 ????						;			 which was broken by the use of segments in this file, as
     35  5000 ????						;			 reported by Manuel Polik on [stella] 11/MAY/2003
     36  5000 ????						; 1.02  22/MAR/2003	 Added TIMINT($285)
     37  5000 ????						; 1.01				Constant offset added to allow use for 3F-style bankswitching
     38  5000 ????						;						 - define TIA_BASE_ADDRESS as $40 for Tigervision carts, otherwise
     39  5000 ????						;						   it is safe to leave it undefined, and the base address will
     40  5000 ????						;						   be set to 0.  Thanks to Eckhard Stolberg for the suggestion.
     41  5000 ????						;			    Note, may use -DLABEL=EXPRESSION to define TIA_BASE_ADDRESS
     42  5000 ????						;			  - register definitions are now generated through assignment
     43  5000 ????						;			    in uninitialised segments.	This allows a changeable base
     44  5000 ????						;			    address architecture.
     45  5000 ????						; 1.0	22/MAR/2003		Initial release
     46  5000 ????
     47  5000 ????
     48  5000 ????						;-------------------------------------------------------------------------------
     49  5000 ????
     50  5000 ????						; TIA_BASE_ADDRESS
     51  5000 ????						; The TIA_BASE_ADDRESS defines the base address of access to TIA registers.
     52  5000 ????						; Normally 0, the base address should (externally, before including this file)
     53  5000 ????						; be set to $40 when creating 3F-bankswitched (and other?) cartridges.
     54  5000 ????						; The reason is that this bankswitching scheme treats any access to locations
     55  5000 ????						; < $40 as a bankswitch.
     56  5000 ????
     57  5000 ????			  -	      IFNCONST	TIA_BASE_ADDRESS
     58  5000 ????			  -TIA_BASE_ADDRESS =	0
     59  5000 ????				      ENDIF
     60  5000 ????
     61  5000 ????						; Note: The address may be defined on the command-line using the -D switch, eg:
     62  5000 ????						; dasm.exe code.asm -DTIA_BASE_ADDRESS=$40 -f3 -v5 -ocode.bin
     63  5000 ????						; *OR* by declaring the label before including this file, eg:
     64  5000 ????						; TIA_BASE_ADDRESS = $40
     65  5000 ????						;   include "vcs.h"
     66  5000 ????
     67  5000 ????						; Alternate read/write address capability - allows for some disassembly compatibility
     68  5000 ????						; usage ; to allow reassembly to binary perfect copies).  This is essentially catering
     69  5000 ????						; for the mirrored ROM hardware registers.
     70  5000 ????
     71  5000 ????						; Usage: As per above, define the TIA_BASE_READ_ADDRESS and/or TIA_BASE_WRITE_ADDRESS
     72  5000 ????						; using the -D command-line switch, as required.  If the addresses are not defined,
     73  5000 ????						; they defaut to the TIA_BASE_ADDRESS.
     74  5000 ????
     75  5000 ????			  -	      IFNCONST	TIA_BASE_READ_ADDRESS
     76  5000 ????			  -TIA_BASE_READ_ADDRESS =	TIA_BASE_ADDRESS
     77  5000 ????				      ENDIF
     78  5000 ????
     79  5000 ????			  -	      IFNCONST	TIA_BASE_WRITE_ADDRESS
     80  5000 ????			  -TIA_BASE_WRITE_ADDRESS =	TIA_BASE_ADDRESS
     81  5000 ????				      ENDIF
     82  5000 ????
     83  5000 ????						;-------------------------------------------------------------------------------
     84  5000 ????
     85 U002d ????				      SEG.U	TIA_REGISTERS_WRITE
     86 U0000					      ORG	TIA_BASE_WRITE_ADDRESS
     87 U0000
     88 U0000							; DO NOT CHANGE THE RELATIVE ORDERING OF REGISTERS!
     89 U0000
     90 U0000		       00	   VSYNC      ds	1	; $00	 0000 00x0   Vertical Sync Set-Clear
     91 U0001		       00	   VBLANK     ds	1	; $01	 xx00 00x0   Vertical Blank Set-Clear
     92 U0002		       00	   WSYNC      ds	1	; $02	 ---- ----   Wait for Horizontal Blank
     93 U0003		       00	   RSYNC      ds	1	; $03	 ---- ----   Reset Horizontal Sync Counter
     94 U0004		       00	   NUSIZ0     ds	1	; $04	 00xx 0xxx   Number-Size player/missle 0
     95 U0005		       00	   NUSIZ1     ds	1	; $05	 00xx 0xxx   Number-Size player/missle 1
     96 U0006		       00	   COLUP0     ds	1	; $06	 xxxx xxx0   Color-Luminance Player 0
     97 U0007		       00	   COLUP1     ds	1	; $07	 xxxx xxx0   Color-Luminance Player 1
     98 U0008		       00	   COLUPF     ds	1	; $08	 xxxx xxx0   Color-Luminance Playfield
     99 U0009		       00	   COLUBK     ds	1	; $09	 xxxx xxx0   Color-Luminance Background
    100 U000a		       00	   CTRLPF     ds	1	; $0A	 00xx 0xxx   Control Playfield, Ball, Collisions
    101 U000b		       00	   REFP0      ds	1	; $0B	 0000 x000   Reflection Player 0
    102 U000c		       00	   REFP1      ds	1	; $0C	 0000 x000   Reflection Player 1
    103 U000d		       00	   PF0	      ds	1	; $0D	 xxxx 0000   Playfield Register Byte 0
    104 U000e		       00	   PF1	      ds	1	; $0E	 xxxx xxxx   Playfield Register Byte 1
    105 U000f		       00	   PF2	      ds	1	; $0F	 xxxx xxxx   Playfield Register Byte 2
    106 U0010		       00	   RESP0      ds	1	; $10	 ---- ----   Reset Player 0
    107 U0011		       00	   RESP1      ds	1	; $11	 ---- ----   Reset Player 1
    108 U0012		       00	   RESM0      ds	1	; $12	 ---- ----   Reset Missle 0
    109 U0013		       00	   RESM1      ds	1	; $13	 ---- ----   Reset Missle 1
    110 U0014		       00	   RESBL      ds	1	; $14	 ---- ----   Reset Ball
    111 U0015		       00	   AUDC0      ds	1	; $15	 0000 xxxx   Audio Control 0
    112 U0016		       00	   AUDC1      ds	1	; $16	 0000 xxxx   Audio Control 1
    113 U0017		       00	   AUDF0      ds	1	; $17	 000x xxxx   Audio Frequency 0
    114 U0018		       00	   AUDF1      ds	1	; $18	 000x xxxx   Audio Frequency 1
    115 U0019		       00	   AUDV0      ds	1	; $19	 0000 xxxx   Audio Volume 0
    116 U001a		       00	   AUDV1      ds	1	; $1A	 0000 xxxx   Audio Volume 1
    117 U001b		       00	   GRP0       ds	1	; $1B	 xxxx xxxx   Graphics Register Player 0
    118 U001c		       00	   GRP1       ds	1	; $1C	 xxxx xxxx   Graphics Register Player 1
    119 U001d		       00	   ENAM0      ds	1	; $1D	 0000 00x0   Graphics Enable Missle 0
    120 U001e		       00	   ENAM1      ds	1	; $1E	 0000 00x0   Graphics Enable Missle 1
    121 U001f		       00	   ENABL      ds	1	; $1F	 0000 00x0   Graphics Enable Ball
    122 U0020		       00	   HMP0       ds	1	; $20	 xxxx 0000   Horizontal Motion Player 0
    123 U0021		       00	   HMP1       ds	1	; $21	 xxxx 0000   Horizontal Motion Player 1
    124 U0022		       00	   HMM0       ds	1	; $22	 xxxx 0000   Horizontal Motion Missle 0
    125 U0023		       00	   HMM1       ds	1	; $23	 xxxx 0000   Horizontal Motion Missle 1
    126 U0024		       00	   HMBL       ds	1	; $24	 xxxx 0000   Horizontal Motion Ball
    127 U0025		       00	   VDELP0     ds	1	; $25	 0000 000x   Vertical Delay Player 0
    128 U0026		       00	   VDELP1     ds	1	; $26	 0000 000x   Vertical Delay Player 1
    129 U0027		       00	   VDELBL     ds	1	; $27	 0000 000x   Vertical Delay Ball
    130 U0028		       00	   RESMP0     ds	1	; $28	 0000 00x0   Reset Missle 0 to Player 0
    131 U0029		       00	   RESMP1     ds	1	; $29	 0000 00x0   Reset Missle 1 to Player 1
    132 U002a		       00	   HMOVE      ds	1	; $2A	 ---- ----   Apply Horizontal Motion
    133 U002b		       00	   HMCLR      ds	1	; $2B	 ---- ----   Clear Horizontal Move Registers
    134 U002c		       00	   CXCLR      ds	1	; $2C	 ---- ----   Clear Collision Latches
    135 U002d
    136 U002d							;-------------------------------------------------------------------------------
    137 U002d
    138 U0010 ????				      SEG.U	TIA_REGISTERS_READ
    139 U0000					      ORG	TIA_BASE_READ_ADDRESS
    140 U0000
    141 U0000							;											bit 7	 bit 6
    142 U0000		       00	   CXM0P      ds	1	; $00	     xx00 0000	     Read Collision  M0-P1   M0-P0
    143 U0001		       00	   CXM1P      ds	1	; $01	     xx00 0000			     M1-P0   M1-P1
    144 U0002		       00	   CXP0FB     ds	1	; $02	     xx00 0000			     P0-PF   P0-BL
    145 U0003		       00	   CXP1FB     ds	1	; $03	     xx00 0000			     P1-PF   P1-BL
    146 U0004		       00	   CXM0FB     ds	1	; $04	     xx00 0000			     M0-PF   M0-BL
    147 U0005		       00	   CXM1FB     ds	1	; $05	     xx00 0000			     M1-PF   M1-BL
    148 U0006		       00	   CXBLPF     ds	1	; $06	     x000 0000			     BL-PF   -----
    149 U0007		       00	   CXPPMM     ds	1	; $07	     xx00 0000			     P0-P1   M0-M1
    150 U0008		       00	   INPT0      ds	1	; $08	     x000 0000	     Read Pot Port 0
    151 U0009		       00	   INPT1      ds	1	; $09	     x000 0000	     Read Pot Port 1
    152 U000a		       00	   INPT2      ds	1	; $0A	     x000 0000	     Read Pot Port 2
    153 U000b		       00	   INPT3      ds	1	; $0B	     x000 0000	     Read Pot Port 3
    154 U000c		       00	   INPT4      ds	1	; $0C		x000 0000	 Read Input (Trigger) 0
    155 U000d		       00	   INPT5      ds	1	; $0D		x000 0000	 Read Input (Trigger) 1
    156 U000e
    157 U000e							;Used by PXE for Quadtari support
    158 U000e		       00	   INPT6      ds	1	; $0E		x000 0000	 Read Input (Trigger) 2
    159 U000f		       00	   INPT7      ds	1	; $0F		x000 0000	 Read Input (Trigger) 3
    160 U0010
    161 U0010							;-------------------------------------------------------------------------------
    162 U0010
    163 U0298 ????				      SEG.U	RIOT
    164 U0280					      ORG	$280
    165 U0280
    166 U0280							; RIOT MEMORY MAP
    167 U0280
    168 U0280		       00	   SWCHA      ds	1	; $280      Port A data register for joysticks:
    169 U0281							;			Bits 4-7 for player 1.  Bits 0-3 for player 2.
    170 U0281
    171 U0281		       00	   SWACNT     ds	1	; $281      Port A data direction register (DDR)
    172 U0282		       00	   SWCHB      ds	1	; $282		Port B data (console switches)
    173 U0283		       00	   SWBCNT     ds	1	; $283      Port B DDR
    174 U0284		       00	   INTIM      ds	1	; $284		Timer output
    175 U0285
    176 U0285		       00	   TIMINT     ds	1	; $285
    177 U0286
    178 U0286		       00	   SWCHA2     ds	1	; $286		Used by PXE for Quadtari support
    179 U0287
    180 U0287							; Unused/undefined registers ($287-$294)
    181 U0287		       00		      ds	1	; $287
    182 U0288		       00		      ds	1	; $288
    183 U0289		       00		      ds	1	; $289
    184 U028a		       00		      ds	1	; $28A
    185 U028b		       00		      ds	1	; $28B
    186 U028c		       00		      ds	1	; $28C
    187 U028d		       00		      ds	1	; $28D
    188 U028e		       00		      ds	1	; $28E
    189 U028f		       00		      ds	1	; $28F
    190 U0290		       00		      ds	1	; $290
    191 U0291		       00		      ds	1	; $291
    192 U0292		       00		      ds	1	; $292
    193 U0293		       00		      ds	1	; $293
    194 U0294
    195 U0294		       00	   TIM1T      ds	1	; $294		set 1 clock interval
    196 U0295		       00	   TIM8T      ds	1	; $295      set 8 clock interval
    197 U0296		       00	   TIM64T     ds	1	; $296      set 64 clock interval
    198 U0297		       00	   T1024T     ds	1	; $297      set 1024 clock interval
    199 U0298
    200 U0298							;-------------------------------------------------------------------------------
    201 U0298							; The following required for back-compatibility with code which does not use
    202 U0298							; segments.
    203 U0298
    204  5000 ????				      SEG
    205  5000 ????
    206  5000 ????						; EOF
------- FILE pke.bas.asm
------- FILE macro.h LEVEL 2 PASS 2
      0  5000 ????				      include	"macro.h"
      1  5000 ????						; Provided under the CC0 license. See the included LICENSE.txt for details.
      2  5000 ????
      3  5000 ????						; MACRO.H
      4  5000 ????						; Version 1.05, 13/NOVEMBER/2003
      5  5000 ????
      6  5000 ????	       00 69	   VERSION_MACRO =	105
      7  5000 ????
      8  5000 ????						;
      9  5000 ????						; THIS FILE IS EXPLICITLY SUPPORTED AS A DASM-PREFERRED COMPANION FILE
     10  5000 ????						; PLEASE DO *NOT* REDISTRIBUTE MODIFIED VERSIONS OF THIS FILE!
     11  5000 ????						;
     12  5000 ????						; This file defines DASM macros useful for development for the Atari 2600.
     13  5000 ????						; It is distributed as a companion machine-specific support package
     14  5000 ????						; for the DASM compiler. Updates to this file, DASM, and associated tools are
     15  5000 ????						; available at at http://www.atari2600.org/dasm
     16  5000 ????						;
     17  5000 ????						; Many thanks to the people who have contributed.  If you take issue with the
     18  5000 ????						; contents, or would like to add something, please write to me
     19  5000 ????						; (atari2600@taswegian.com) with your contribution.
     20  5000 ????						;
     21  5000 ????						; Latest Revisions...
     22  5000 ????						;
     23  5000 ????						; 1.05  14/NOV/2003	  - Added VERSION_MACRO equate (which will reflect 100x version #)
     24  5000 ????						;			    This will allow conditional code to verify MACRO.H being
     25  5000 ????						;			    used for code assembly.
     26  5000 ????						; 1.04  13/NOV/2003	 - SET_POINTER macro added (16-bit address load)
     27  5000 ????						;
     28  5000 ????						; 1.03  23/JUN/2003	 - CLEAN_START macro added - clears TIA, RAM, registers
     29  5000 ????						;
     30  5000 ????						; 1.02  14/JUN/2003	 - VERTICAL_SYNC macro added
     31  5000 ????						;			   (standardised macro for vertical synch code)
     32  5000 ????						; 1.01  22/MAR/2003	 - SLEEP macro added.
     33  5000 ????						;			 - NO_ILLEGAL_OPCODES switch implemented
     34  5000 ????						; 1.0	22/MAR/2003		Initial release
     35  5000 ????
     36  5000 ????						; Note: These macros use illegal opcodes.  To disable illegal opcode usage,
     37  5000 ????						;   define the symbol NO_ILLEGAL_OPCODES (-DNO_ILLEGAL_OPCODES=1 on command-line).
     38  5000 ????						;   If you do not allow illegal opcode usage, you must include this file
     39  5000 ????						;   *after* including VCS.H (as the non-illegal opcodes access hardware
     40  5000 ????						;   registers and require them to be defined first).
     41  5000 ????
     42  5000 ????						; Available macros...
     43  5000 ????						;   SLEEP n		 - sleep for n cycles
     44  5000 ????						;   VERTICAL_SYNC	 - correct 3 scanline vertical synch code
     45  5000 ????						;   CLEAN_START	 - set machine to known state on startup
     46  5000 ????						;   SET_POINTER	 - load a 16-bit absolute to a 16-bit variable
     47  5000 ????
     48  5000 ????						;-------------------------------------------------------------------------------
     49  5000 ????						; SLEEP duration
     50  5000 ????						; Original author: Thomas Jentzsch
     51  5000 ????						; Inserts code which takes the specified number of cycles to execute.	This is
     52  5000 ????						; useful for code where precise timing is required.
     53  5000 ????						; ILLEGAL-OPCODE VERSION DOES NOT AFFECT FLAGS OR REGISTERS.
     54  5000 ????						; LEGAL OPCODE VERSION MAY AFFECT FLAGS
     55  5000 ????						; Uses illegal opcode (DASM 2.20.01 onwards).
     56  5000 ????
     57  5000 ????				      MAC	sleep
     58  5000 ????			   .CYCLES    SET	{1}
     59  5000 ????
     60  5000 ????				      IF	.CYCLES < 2
     61  5000 ????				      ECHO	"MACRO ERROR: 'SLEEP': Duration must be > 1"
     62  5000 ????				      ERR
     63  5000 ????				      ENDIF
     64  5000 ????
     65  5000 ????				      IF	.CYCLES & 1
     66  5000 ????				      IFNCONST	NO_ILLEGAL_OPCODES
     67  5000 ????				      nop	0
     68  5000 ????				      ELSE
     69  5000 ????				      bit	VSYNC
     70  5000 ????				      ENDIF
     71  5000 ????			   .CYCLES    SET	.CYCLES - 3
     72  5000 ????				      ENDIF
     73  5000 ????
     74  5000 ????				      REPEAT	.CYCLES / 2
     75  5000 ????				      nop
     76  5000 ????				      REPEND
     77  5000 ????				      ENDM		;usage: SLEEP n (n>1)
     78  5000 ????
     79  5000 ????						;-------------------------------------------------------------------------------
     80  5000 ????						; VERTICAL_SYNC
     81  5000 ????						; Original author: Manuel Polik
     82  5000 ????						; Inserts the code required for a proper 3 scannline
     83  5000 ????						; vertical sync sequence
     84  5000 ????						;
     85  5000 ????						; Note: Alters the accumulator
     86  5000 ????						;
     87  5000 ????						; IN:
     88  5000 ????						; OUT: A = 1
     89  5000 ????
     90  5000 ????				      MAC	vertical_sync
     91  5000 ????				      LDA	#$02	; A = VSYNC enable
     92  5000 ????				      STA	WSYNC	; Finish current line
     93  5000 ????				      STA	VSYNC	; Start vertical sync
     94  5000 ????				      STA	WSYNC	; 1st line vertical sync
     95  5000 ????				      STA	WSYNC	; 2nd line vertical sync
     96  5000 ????				      LSR		; A = VSYNC disable
     97  5000 ????				      STA	WSYNC	; 3rd line vertical sync
     98  5000 ????				      STA	VSYNC	; Stop vertical sync
     99  5000 ????				      ENDM
    100  5000 ????
    101  5000 ????						;-------------------------------------------------------------------------------
    102  5000 ????						; CLEAN_START
    103  5000 ????						; Original author: Andrew Davie
    104  5000 ????						; Standardised start-up code, clears stack, all TIA registers and RAM to 0
    105  5000 ????						; Sets stack pointer to $FF, and all registers to 0
    106  5000 ????						; Sets decimal mode off, sets interrupt flag (kind of un-necessary)
    107  5000 ????						; Use as very first section of code on boot (ie: at reset)
    108  5000 ????						; Code written to minimise total ROM usage - uses weird 6502 knowledge :)
    109  5000 ????
    110  5000 ????				      MAC	clean_start
    111  5000 ????				      sei
    112  5000 ????				      cld
    113  5000 ????
    114  5000 ????				      ldx	#0
    115  5000 ????				      txa
    116  5000 ????				      tay
    117  5000 ????			   .CLEAR_STACK dex
    118  5000 ????				      txs
    119  5000 ????				      pha
    120  5000 ????				      bne	.CLEAR_STACK	; SP=$FF, X = A = Y = 0
    121  5000 ????
    122  5000 ????				      ENDM
    123  5000 ????
    124  5000 ????						;-------------------------------------------------------
    125  5000 ????						; SET_POINTER
    126  5000 ????						; Original author: Manuel Rotschkar
    127  5000 ????						;
    128  5000 ????						; Sets a 2 byte RAM pointer to an absolute address.
    129  5000 ????						;
    130  5000 ????						; Usage: SET_POINTER pointer, address
    131  5000 ????						; Example: SET_POINTER SpritePTR, SpriteData
    132  5000 ????						;
    133  5000 ????						; Note: Alters the accumulator, NZ flags
    134  5000 ????						; IN 1: 2 byte RAM location reserved for pointer
    135  5000 ????						; IN 2: absolute address
    136  5000 ????
    137  5000 ????				      MAC	set_pointer
    138  5000 ????			   .POINTER   SET	{1}
    139  5000 ????			   .ADDRESS   SET	{2}
    140  5000 ????
    141  5000 ????				      LDA	#<.ADDRESS	; Get Lowbyte of Address
    142  5000 ????				      STA	.POINTER	; Store in pointer
    143  5000 ????				      LDA	#>.ADDRESS	; Get Hibyte of Address
    144  5000 ????				      STA	.POINTER+1	; Store in pointer+1
    145  5000 ????
    146  5000 ????				      ENDM
    147  5000 ????
    148  5000 ????						; EOF
------- FILE pke.bas.asm
------- FILE 2600basic.h LEVEL 2 PASS 2
      0  5000 ????				      include	"2600basic.h"
      1  5000 ????						; Provided under the CC0 license. See the included LICENSE.txt for details.
      2  5000 ????
      3  5000 ????				      processor	6502
------- FILE vcs.h LEVEL 3 PASS 2
      0  5000 ????				      include	"vcs.h"
      1  5000 ????						; Provided under the CC0 license. See the included LICENSE.txt for details.
      2  5000 ????
      3  5000 ????						; VCS.H
      4  5000 ????						; Version 1.05, 13/November/2003
      5  5000 ????
      6  5000 ????	       00 69	   VERSION_VCS =	105
      7  5000 ????
      8  5000 ????						; THIS IS A PRELIMINARY RELEASE OF *THE* "STANDARD" VCS.H
      9  5000 ????						; THIS FILE IS EXPLICITLY SUPPORTED AS A DASM-PREFERRED COMPANION FILE
     10  5000 ????						; PLEASE DO *NOT* REDISTRIBUTE THIS FILE!
     11  5000 ????						;
     12  5000 ????						; This file defines hardware registers and memory mapping for the
     13  5000 ????						; Atari 2600. It is distributed as a companion machine-specific support package
     14  5000 ????						; for the DASM compiler. Updates to this file, DASM, and associated tools are
     15  5000 ????						; available at at http://www.atari2600.org/dasm
     16  5000 ????						;
     17  5000 ????						; Many thanks to the original author(s) of this file, and to everyone who has
     18  5000 ????						; contributed to understanding the Atari 2600.  If you take issue with the
     19  5000 ????						; contents, or naming of registers, please write to me (atari2600@taswegian.com)
     20  5000 ????						; with your views.  Please contribute, if you think you can improve this
     21  5000 ????						; file!
     22  5000 ????						;
     23  5000 ????						; Latest Revisions...
     24  5000 ????						; 1.05  13/NOV/2003	  - Correction to 1.04 - now functions as requested by MR.
     25  5000 ????						;			  - Added VERSION_VCS equate (which will reflect 100x version #)
     26  5000 ????						;			    This will allow conditional code to verify VCS.H being
     27  5000 ????						;			    used for code assembly.
     28  5000 ????						; 1.04  12/NOV/2003	 Added TIA_BASE_WRITE_ADDRESS and TIA_BASE_READ_ADDRESS for
     29  5000 ????						;			 convenient disassembly/reassembly compatibility for hardware
     30  5000 ????						;			 mirrored reading/writing differences.	This is more a
     31  5000 ????						;			 readability issue, and binary compatibility with disassembled
     32  5000 ????						;			 and reassembled sources.  Per Manuel Rotschkar's suggestion.
     33  5000 ????						; 1.03  12/MAY/2003	 Added SEG segment at end of file to fix old-code compatibility
     34  5000 ????						;			 which was broken by the use of segments in this file, as
     35  5000 ????						;			 reported by Manuel Polik on [stella] 11/MAY/2003
     36  5000 ????						; 1.02  22/MAR/2003	 Added TIMINT($285)
     37  5000 ????						; 1.01				Constant offset added to allow use for 3F-style bankswitching
     38  5000 ????						;						 - define TIA_BASE_ADDRESS as $40 for Tigervision carts, otherwise
     39  5000 ????						;						   it is safe to leave it undefined, and the base address will
     40  5000 ????						;						   be set to 0.  Thanks to Eckhard Stolberg for the suggestion.
     41  5000 ????						;			    Note, may use -DLABEL=EXPRESSION to define TIA_BASE_ADDRESS
     42  5000 ????						;			  - register definitions are now generated through assignment
     43  5000 ????						;			    in uninitialised segments.	This allows a changeable base
     44  5000 ????						;			    address architecture.
     45  5000 ????						; 1.0	22/MAR/2003		Initial release
     46  5000 ????
     47  5000 ????
     48  5000 ????						;-------------------------------------------------------------------------------
     49  5000 ????
     50  5000 ????						; TIA_BASE_ADDRESS
     51  5000 ????						; The TIA_BASE_ADDRESS defines the base address of access to TIA registers.
     52  5000 ????						; Normally 0, the base address should (externally, before including this file)
     53  5000 ????						; be set to $40 when creating 3F-bankswitched (and other?) cartridges.
     54  5000 ????						; The reason is that this bankswitching scheme treats any access to locations
     55  5000 ????						; < $40 as a bankswitch.
     56  5000 ????
     57  5000 ????			  -	      IFNCONST	TIA_BASE_ADDRESS
     58  5000 ????			  -TIA_BASE_ADDRESS =	0
     59  5000 ????				      ENDIF
     60  5000 ????
     61  5000 ????						; Note: The address may be defined on the command-line using the -D switch, eg:
     62  5000 ????						; dasm.exe code.asm -DTIA_BASE_ADDRESS=$40 -f3 -v5 -ocode.bin
     63  5000 ????						; *OR* by declaring the label before including this file, eg:
     64  5000 ????						; TIA_BASE_ADDRESS = $40
     65  5000 ????						;   include "vcs.h"
     66  5000 ????
     67  5000 ????						; Alternate read/write address capability - allows for some disassembly compatibility
     68  5000 ????						; usage ; to allow reassembly to binary perfect copies).  This is essentially catering
     69  5000 ????						; for the mirrored ROM hardware registers.
     70  5000 ????
     71  5000 ????						; Usage: As per above, define the TIA_BASE_READ_ADDRESS and/or TIA_BASE_WRITE_ADDRESS
     72  5000 ????						; using the -D command-line switch, as required.  If the addresses are not defined,
     73  5000 ????						; they defaut to the TIA_BASE_ADDRESS.
     74  5000 ????
     75  5000 ????			  -	      IFNCONST	TIA_BASE_READ_ADDRESS
     76  5000 ????			  -TIA_BASE_READ_ADDRESS =	TIA_BASE_ADDRESS
     77  5000 ????				      ENDIF
     78  5000 ????
     79  5000 ????			  -	      IFNCONST	TIA_BASE_WRITE_ADDRESS
     80  5000 ????			  -TIA_BASE_WRITE_ADDRESS =	TIA_BASE_ADDRESS
     81  5000 ????				      ENDIF
     82  5000 ????
     83  5000 ????						;-------------------------------------------------------------------------------
     84  5000 ????
     85 U002d					      SEG.U	TIA_REGISTERS_WRITE
     86 U0000					      ORG	TIA_BASE_WRITE_ADDRESS
     87 U0000
     88 U0000							; DO NOT CHANGE THE RELATIVE ORDERING OF REGISTERS!
     89 U0000
     90 U0000		       00	   VSYNC      ds	1	; $00	 0000 00x0   Vertical Sync Set-Clear
     91 U0001		       00	   VBLANK     ds	1	; $01	 xx00 00x0   Vertical Blank Set-Clear
     92 U0002		       00	   WSYNC      ds	1	; $02	 ---- ----   Wait for Horizontal Blank
     93 U0003		       00	   RSYNC      ds	1	; $03	 ---- ----   Reset Horizontal Sync Counter
     94 U0004		       00	   NUSIZ0     ds	1	; $04	 00xx 0xxx   Number-Size player/missle 0
     95 U0005		       00	   NUSIZ1     ds	1	; $05	 00xx 0xxx   Number-Size player/missle 1
     96 U0006		       00	   COLUP0     ds	1	; $06	 xxxx xxx0   Color-Luminance Player 0
     97 U0007		       00	   COLUP1     ds	1	; $07	 xxxx xxx0   Color-Luminance Player 1
     98 U0008		       00	   COLUPF     ds	1	; $08	 xxxx xxx0   Color-Luminance Playfield
     99 U0009		       00	   COLUBK     ds	1	; $09	 xxxx xxx0   Color-Luminance Background
    100 U000a		       00	   CTRLPF     ds	1	; $0A	 00xx 0xxx   Control Playfield, Ball, Collisions
    101 U000b		       00	   REFP0      ds	1	; $0B	 0000 x000   Reflection Player 0
    102 U000c		       00	   REFP1      ds	1	; $0C	 0000 x000   Reflection Player 1
    103 U000d		       00	   PF0	      ds	1	; $0D	 xxxx 0000   Playfield Register Byte 0
    104 U000e		       00	   PF1	      ds	1	; $0E	 xxxx xxxx   Playfield Register Byte 1
    105 U000f		       00	   PF2	      ds	1	; $0F	 xxxx xxxx   Playfield Register Byte 2
    106 U0010		       00	   RESP0      ds	1	; $10	 ---- ----   Reset Player 0
    107 U0011		       00	   RESP1      ds	1	; $11	 ---- ----   Reset Player 1
    108 U0012		       00	   RESM0      ds	1	; $12	 ---- ----   Reset Missle 0
    109 U0013		       00	   RESM1      ds	1	; $13	 ---- ----   Reset Missle 1
    110 U0014		       00	   RESBL      ds	1	; $14	 ---- ----   Reset Ball
    111 U0015		       00	   AUDC0      ds	1	; $15	 0000 xxxx   Audio Control 0
    112 U0016		       00	   AUDC1      ds	1	; $16	 0000 xxxx   Audio Control 1
    113 U0017		       00	   AUDF0      ds	1	; $17	 000x xxxx   Audio Frequency 0
    114 U0018		       00	   AUDF1      ds	1	; $18	 000x xxxx   Audio Frequency 1
    115 U0019		       00	   AUDV0      ds	1	; $19	 0000 xxxx   Audio Volume 0
    116 U001a		       00	   AUDV1      ds	1	; $1A	 0000 xxxx   Audio Volume 1
    117 U001b		       00	   GRP0       ds	1	; $1B	 xxxx xxxx   Graphics Register Player 0
    118 U001c		       00	   GRP1       ds	1	; $1C	 xxxx xxxx   Graphics Register Player 1
    119 U001d		       00	   ENAM0      ds	1	; $1D	 0000 00x0   Graphics Enable Missle 0
    120 U001e		       00	   ENAM1      ds	1	; $1E	 0000 00x0   Graphics Enable Missle 1
    121 U001f		       00	   ENABL      ds	1	; $1F	 0000 00x0   Graphics Enable Ball
    122 U0020		       00	   HMP0       ds	1	; $20	 xxxx 0000   Horizontal Motion Player 0
    123 U0021		       00	   HMP1       ds	1	; $21	 xxxx 0000   Horizontal Motion Player 1
    124 U0022		       00	   HMM0       ds	1	; $22	 xxxx 0000   Horizontal Motion Missle 0
    125 U0023		       00	   HMM1       ds	1	; $23	 xxxx 0000   Horizontal Motion Missle 1
    126 U0024		       00	   HMBL       ds	1	; $24	 xxxx 0000   Horizontal Motion Ball
    127 U0025		       00	   VDELP0     ds	1	; $25	 0000 000x   Vertical Delay Player 0
    128 U0026		       00	   VDELP1     ds	1	; $26	 0000 000x   Vertical Delay Player 1
    129 U0027		       00	   VDELBL     ds	1	; $27	 0000 000x   Vertical Delay Ball
    130 U0028		       00	   RESMP0     ds	1	; $28	 0000 00x0   Reset Missle 0 to Player 0
    131 U0029		       00	   RESMP1     ds	1	; $29	 0000 00x0   Reset Missle 1 to Player 1
    132 U002a		       00	   HMOVE      ds	1	; $2A	 ---- ----   Apply Horizontal Motion
    133 U002b		       00	   HMCLR      ds	1	; $2B	 ---- ----   Clear Horizontal Move Registers
    134 U002c		       00	   CXCLR      ds	1	; $2C	 ---- ----   Clear Collision Latches
    135 U002d
    136 U002d							;-------------------------------------------------------------------------------
    137 U002d
    138 U0010					      SEG.U	TIA_REGISTERS_READ
    139 U0000					      ORG	TIA_BASE_READ_ADDRESS
    140 U0000
    141 U0000							;											bit 7	 bit 6
    142 U0000		       00	   CXM0P      ds	1	; $00	     xx00 0000	     Read Collision  M0-P1   M0-P0
    143 U0001		       00	   CXM1P      ds	1	; $01	     xx00 0000			     M1-P0   M1-P1
    144 U0002		       00	   CXP0FB     ds	1	; $02	     xx00 0000			     P0-PF   P0-BL
    145 U0003		       00	   CXP1FB     ds	1	; $03	     xx00 0000			     P1-PF   P1-BL
    146 U0004		       00	   CXM0FB     ds	1	; $04	     xx00 0000			     M0-PF   M0-BL
    147 U0005		       00	   CXM1FB     ds	1	; $05	     xx00 0000			     M1-PF   M1-BL
    148 U0006		       00	   CXBLPF     ds	1	; $06	     x000 0000			     BL-PF   -----
    149 U0007		       00	   CXPPMM     ds	1	; $07	     xx00 0000			     P0-P1   M0-M1
    150 U0008		       00	   INPT0      ds	1	; $08	     x000 0000	     Read Pot Port 0
    151 U0009		       00	   INPT1      ds	1	; $09	     x000 0000	     Read Pot Port 1
    152 U000a		       00	   INPT2      ds	1	; $0A	     x000 0000	     Read Pot Port 2
    153 U000b		       00	   INPT3      ds	1	; $0B	     x000 0000	     Read Pot Port 3
    154 U000c		       00	   INPT4      ds	1	; $0C		x000 0000	 Read Input (Trigger) 0
    155 U000d		       00	   INPT5      ds	1	; $0D		x000 0000	 Read Input (Trigger) 1
    156 U000e
    157 U000e							;Used by PXE for Quadtari support
    158 U000e		       00	   INPT6      ds	1	; $0E		x000 0000	 Read Input (Trigger) 2
    159 U000f		       00	   INPT7      ds	1	; $0F		x000 0000	 Read Input (Trigger) 3
    160 U0010
    161 U0010							;-------------------------------------------------------------------------------
    162 U0010
    163 U0298					      SEG.U	RIOT
    164 U0280					      ORG	$280
    165 U0280
    166 U0280							; RIOT MEMORY MAP
    167 U0280
    168 U0280		       00	   SWCHA      ds	1	; $280      Port A data register for joysticks:
    169 U0281							;			Bits 4-7 for player 1.  Bits 0-3 for player 2.
    170 U0281
    171 U0281		       00	   SWACNT     ds	1	; $281      Port A data direction register (DDR)
    172 U0282		       00	   SWCHB      ds	1	; $282		Port B data (console switches)
    173 U0283		       00	   SWBCNT     ds	1	; $283      Port B DDR
    174 U0284		       00	   INTIM      ds	1	; $284		Timer output
    175 U0285
    176 U0285		       00	   TIMINT     ds	1	; $285
    177 U0286
    178 U0286		       00	   SWCHA2     ds	1	; $286		Used by PXE for Quadtari support
    179 U0287
    180 U0287							; Unused/undefined registers ($287-$294)
    181 U0287		       00		      ds	1	; $287
    182 U0288		       00		      ds	1	; $288
    183 U0289		       00		      ds	1	; $289
    184 U028a		       00		      ds	1	; $28A
    185 U028b		       00		      ds	1	; $28B
    186 U028c		       00		      ds	1	; $28C
    187 U028d		       00		      ds	1	; $28D
    188 U028e		       00		      ds	1	; $28E
    189 U028f		       00		      ds	1	; $28F
    190 U0290		       00		      ds	1	; $290
    191 U0291		       00		      ds	1	; $291
    192 U0292		       00		      ds	1	; $292
    193 U0293		       00		      ds	1	; $293
    194 U0294
    195 U0294		       00	   TIM1T      ds	1	; $294		set 1 clock interval
    196 U0295		       00	   TIM8T      ds	1	; $295      set 8 clock interval
    197 U0296		       00	   TIM64T     ds	1	; $296      set 64 clock interval
    198 U0297		       00	   T1024T     ds	1	; $297      set 1024 clock interval
    199 U0298
    200 U0298							;-------------------------------------------------------------------------------
    201 U0298							; The following required for back-compatibility with code which does not use
    202 U0298							; segments.
    203 U0298
    204  5000 ????				      SEG
    205  5000 ????
    206  5000 ????						; EOF
------- FILE 2600basic.h
------- FILE macro.h LEVEL 3 PASS 2
      0  5000 ????				      include	"macro.h"
      1  5000 ????						; Provided under the CC0 license. See the included LICENSE.txt for details.
      2  5000 ????
      3  5000 ????						; MACRO.H
      4  5000 ????						; Version 1.05, 13/NOVEMBER/2003
      5  5000 ????
      6  5000 ????	       00 69	   VERSION_MACRO =	105
      7  5000 ????
      8  5000 ????						;
      9  5000 ????						; THIS FILE IS EXPLICITLY SUPPORTED AS A DASM-PREFERRED COMPANION FILE
     10  5000 ????						; PLEASE DO *NOT* REDISTRIBUTE MODIFIED VERSIONS OF THIS FILE!
     11  5000 ????						;
     12  5000 ????						; This file defines DASM macros useful for development for the Atari 2600.
     13  5000 ????						; It is distributed as a companion machine-specific support package
     14  5000 ????						; for the DASM compiler. Updates to this file, DASM, and associated tools are
     15  5000 ????						; available at at http://www.atari2600.org/dasm
     16  5000 ????						;
     17  5000 ????						; Many thanks to the people who have contributed.  If you take issue with the
     18  5000 ????						; contents, or would like to add something, please write to me
     19  5000 ????						; (atari2600@taswegian.com) with your contribution.
     20  5000 ????						;
     21  5000 ????						; Latest Revisions...
     22  5000 ????						;
     23  5000 ????						; 1.05  14/NOV/2003	  - Added VERSION_MACRO equate (which will reflect 100x version #)
     24  5000 ????						;			    This will allow conditional code to verify MACRO.H being
     25  5000 ????						;			    used for code assembly.
     26  5000 ????						; 1.04  13/NOV/2003	 - SET_POINTER macro added (16-bit address load)
     27  5000 ????						;
     28  5000 ????						; 1.03  23/JUN/2003	 - CLEAN_START macro added - clears TIA, RAM, registers
     29  5000 ????						;
     30  5000 ????						; 1.02  14/JUN/2003	 - VERTICAL_SYNC macro added
     31  5000 ????						;			   (standardised macro for vertical synch code)
     32  5000 ????						; 1.01  22/MAR/2003	 - SLEEP macro added.
     33  5000 ????						;			 - NO_ILLEGAL_OPCODES switch implemented
     34  5000 ????						; 1.0	22/MAR/2003		Initial release
     35  5000 ????
     36  5000 ????						; Note: These macros use illegal opcodes.  To disable illegal opcode usage,
     37  5000 ????						;   define the symbol NO_ILLEGAL_OPCODES (-DNO_ILLEGAL_OPCODES=1 on command-line).
     38  5000 ????						;   If you do not allow illegal opcode usage, you must include this file
     39  5000 ????						;   *after* including VCS.H (as the non-illegal opcodes access hardware
     40  5000 ????						;   registers and require them to be defined first).
     41  5000 ????
     42  5000 ????						; Available macros...
     43  5000 ????						;   SLEEP n		 - sleep for n cycles
     44  5000 ????						;   VERTICAL_SYNC	 - correct 3 scanline vertical synch code
     45  5000 ????						;   CLEAN_START	 - set machine to known state on startup
     46  5000 ????						;   SET_POINTER	 - load a 16-bit absolute to a 16-bit variable
     47  5000 ????
     48  5000 ????						;-------------------------------------------------------------------------------
     49  5000 ????						; SLEEP duration
     50  5000 ????						; Original author: Thomas Jentzsch
     51  5000 ????						; Inserts code which takes the specified number of cycles to execute.	This is
     52  5000 ????						; useful for code where precise timing is required.
     53  5000 ????						; ILLEGAL-OPCODE VERSION DOES NOT AFFECT FLAGS OR REGISTERS.
     54  5000 ????						; LEGAL OPCODE VERSION MAY AFFECT FLAGS
     55  5000 ????						; Uses illegal opcode (DASM 2.20.01 onwards).
     56  5000 ????
     57  5000 ????				      MAC	sleep
     58  5000 ????			   .CYCLES    SET	{1}
     59  5000 ????
     60  5000 ????				      IF	.CYCLES < 2
     61  5000 ????				      ECHO	"MACRO ERROR: 'SLEEP': Duration must be > 1"
     62  5000 ????				      ERR
     63  5000 ????				      ENDIF
     64  5000 ????
     65  5000 ????				      IF	.CYCLES & 1
     66  5000 ????				      IFNCONST	NO_ILLEGAL_OPCODES
     67  5000 ????				      nop	0
     68  5000 ????				      ELSE
     69  5000 ????				      bit	VSYNC
     70  5000 ????				      ENDIF
     71  5000 ????			   .CYCLES    SET	.CYCLES - 3
     72  5000 ????				      ENDIF
     73  5000 ????
     74  5000 ????				      REPEAT	.CYCLES / 2
     75  5000 ????				      nop
     76  5000 ????				      REPEND
     77  5000 ????				      ENDM		;usage: SLEEP n (n>1)
     78  5000 ????
     79  5000 ????						;-------------------------------------------------------------------------------
     80  5000 ????						; VERTICAL_SYNC
     81  5000 ????						; Original author: Manuel Polik
     82  5000 ????						; Inserts the code required for a proper 3 scannline
     83  5000 ????						; vertical sync sequence
     84  5000 ????						;
     85  5000 ????						; Note: Alters the accumulator
     86  5000 ????						;
     87  5000 ????						; IN:
     88  5000 ????						; OUT: A = 1
     89  5000 ????
     90  5000 ????				      MAC	vertical_sync
     91  5000 ????				      LDA	#$02	; A = VSYNC enable
     92  5000 ????				      STA	WSYNC	; Finish current line
     93  5000 ????				      STA	VSYNC	; Start vertical sync
     94  5000 ????				      STA	WSYNC	; 1st line vertical sync
     95  5000 ????				      STA	WSYNC	; 2nd line vertical sync
     96  5000 ????				      LSR		; A = VSYNC disable
     97  5000 ????				      STA	WSYNC	; 3rd line vertical sync
     98  5000 ????				      STA	VSYNC	; Stop vertical sync
     99  5000 ????				      ENDM
    100  5000 ????
    101  5000 ????						;-------------------------------------------------------------------------------
    102  5000 ????						; CLEAN_START
    103  5000 ????						; Original author: Andrew Davie
    104  5000 ????						; Standardised start-up code, clears stack, all TIA registers and RAM to 0
    105  5000 ????						; Sets stack pointer to $FF, and all registers to 0
    106  5000 ????						; Sets decimal mode off, sets interrupt flag (kind of un-necessary)
    107  5000 ????						; Use as very first section of code on boot (ie: at reset)
    108  5000 ????						; Code written to minimise total ROM usage - uses weird 6502 knowledge :)
    109  5000 ????
    110  5000 ????				      MAC	clean_start
    111  5000 ????				      sei
    112  5000 ????				      cld
    113  5000 ????
    114  5000 ????				      ldx	#0
    115  5000 ????				      txa
    116  5000 ????				      tay
    117  5000 ????			   .CLEAR_STACK dex
    118  5000 ????				      txs
    119  5000 ????				      pha
    120  5000 ????				      bne	.CLEAR_STACK	; SP=$FF, X = A = Y = 0
    121  5000 ????
    122  5000 ????				      ENDM
    123  5000 ????
    124  5000 ????						;-------------------------------------------------------
    125  5000 ????						; SET_POINTER
    126  5000 ????						; Original author: Manuel Rotschkar
    127  5000 ????						;
    128  5000 ????						; Sets a 2 byte RAM pointer to an absolute address.
    129  5000 ????						;
    130  5000 ????						; Usage: SET_POINTER pointer, address
    131  5000 ????						; Example: SET_POINTER SpritePTR, SpriteData
    132  5000 ????						;
    133  5000 ????						; Note: Alters the accumulator, NZ flags
    134  5000 ????						; IN 1: 2 byte RAM location reserved for pointer
    135  5000 ????						; IN 2: absolute address
    136  5000 ????
    137  5000 ????				      MAC	set_pointer
    138  5000 ????			   .POINTER   SET	{1}
    139  5000 ????			   .ADDRESS   SET	{2}
    140  5000 ????
    141  5000 ????				      LDA	#<.ADDRESS	; Get Lowbyte of Address
    142  5000 ????				      STA	.POINTER	; Store in pointer
    143  5000 ????				      LDA	#>.ADDRESS	; Get Hibyte of Address
    144  5000 ????				      STA	.POINTER+1	; Store in pointer+1
    145  5000 ????
    146  5000 ????				      ENDM
    147  5000 ????
    148  5000 ????						; EOF
------- FILE 2600basic.h
------- FILE 2600basic_variable_redefs.h LEVEL 3 PASS 2
      0  5000 ????				      include	"2600basic_variable_redefs.h"
      1  5000 ????						; This file contains variable mapping and other information for the current project.
      2  5000 ????
      3  5000 ????	       00 a5	   GhostbustersTheme =	var1
      4  5000 ????	       00 64	   my_world_map_length =	.skipL0472-my_world_map
      5  5000 ????
      6  5000 ????	       00 4d	   disappear_sfx_length =	.skipL0426-disappear_sfx
      7  5000 ????
      8  5000 ????	       00 6d	   overheat_sfx_length =	.skipL0425-overheat_sfx
      9  5000 ????
     10  5000 ????	       00 29	   trap_sfx_length =	.skipL0424-trap_sfx
     11  5000 ????
     12  5000 ????	       00 89	   slimed_sfx_length =	.skipL0423-slimed_sfx
     13  5000 ????
     14  5000 ????	       00 20	   bscode_length =	32
     15  5000 ????	       00 01	   pfscore    =	1
     16  5000 ????
     17  5000 ????	       00 07	   Playfield_Color_Table_length =	.skipL058-Playfield_Color_Table
     18  5000 ????
     19  5000 ????	       00 09	   _Ghost_Damage_Colors_length =	.skipL057-_Ghost_Damage_Colors
     20  5000 ????
     21  5000 ????	       00 09	   _Heat_Bar_Table_length =	.skipL056-_Heat_Bar_Table
     22  5000 ????
     23  5000 ????	       00 95	   _sc3       =	score + 2
     24  5000 ????
     25  5000 ????	       00 94	   _sc2       =	score + 1
     26  5000 ????
     27  5000 ????	       00 93	   _sc1       =	score
     28  5000 ????
     29  5000 ????	       00 d2	   _Bit6_Right_DifficultyB =	var46
     30  5000 ????
     31  5000 ????	       00 d2	   _Bit5_Left_DifficultyB =	var46
     32  5000 ????
     33  5000 ????	       00 d2	   _Bit4_Trap_Active =	var46
     34  5000 ????
     35  5000 ????	       00 d2	   _Bit3_Stunned_Ghost =	var46
     36  5000 ????
     37  5000 ????	       00 d2	   _Bit2_Wand_Lock =	var46
     38  5000 ????
     39  5000 ????	       00 d2	   _Bit1_Missile_Flag =	var46
     40  5000 ????
     41  5000 ????	       00 d2	   _Bit0_Reset_Restrainer =	var46
     42  5000 ????
     43  5000 ????	       00 d1	   _Flee_Range =	var45
     44  5000 ????
     45  5000 ????	       00 d0	   _Room_Counter =	var44
     46  5000 ????
     47  5000 ????	       00 cf	   _Timer_Mask =	var43
     48  5000 ????
     49  5000 ????	       00 ce	   _Visit_Length =	var42
     50  5000 ????
     51  5000 ????	       00 cd	   _Ghost_Speed_Mask =	var41
     52  5000 ????
     53  5000 ????	       00 cc	   _Difficulty_Level =	var40
     54  5000 ????
     55  5000 ????	       00 cb	   _Ghosts_Caught =	var39
     56  5000 ????
     57  5000 ????	       00 ca	   _Game_Level =	var38
     58  5000 ????
     59  5000 ????	       00 c9	   _SFX_Index =	var37
     60  5000 ????
     61  5000 ????	       00 c8	   _SFX_Dur   =	var36
     62  5000 ????
     63  5000 ????	       00 c7	   _SFX_Frq   =	var35
     64  5000 ????
     65  5000 ????	       00 c6	   _SFX_Ch    =	var34
     66  5000 ????
     67  5000 ????	       00 c5	   _SFX_Vol   =	var33
     68  5000 ????
     69  5000 ????	       00 c4	   _Score_Timer =	var32
     70  5000 ????
     71  5000 ????	       00 c3	   _Ghost_Color =	var31
     72  5000 ????
     73  5000 ????	       00 c2	   _Stream_Counter =	var30
     74  5000 ????
     75  5000 ????	       00 c1	   _Previous_Missile_x =	var29
     76  5000 ????
     77  5000 ????	       00 c0	   _Beam_Color =	var28
     78  5000 ????
     79  5000 ????	       00 bf	   _Hit_Count =	var27
     80  5000 ????
     81  5000 ????	       00 be	   _Stun_Timer =	var26
     82  5000 ????
     83  5000 ????	       00 bd	   _frame     =	var25
     84  5000 ????
     85  5000 ????	       00 bc	   _GB_Dur    =	var24
     86  5000 ????
     87  5000 ????	       00 bb	   _GB_Frq    =	var23
     88  5000 ????
     89  5000 ????	       00 ba	   _GB_Ch     =	var22
     90  5000 ????
     91  5000 ????	       00 b9	   _GB_Vol    =	var21
     92  5000 ????
     93  5000 ????	       00 b8	   _Transition_Quick_Count =	var20
     94  5000 ????
     95  5000 ????	       00 b7	   _Wand_Temperature_Subpixel =	var19
     96  5000 ????
     97  5000 ????	       00 b6	   _Wand_Temperature =	var18
     98  5000 ????
     99  5000 ????	       00 b5	   _Distance_to_Ghost =	var17
    100  5000 ????
    101  5000 ????	       00 b4	   _Game_Timer =	var16
    102  5000 ????
    103  5000 ????	       00 b3	   _Ghost_Timer =	var15
    104  5000 ????
    105  5000 ????	       00 b2	   _Ghost_Direction =	var14
    106  5000 ????
    107  5000 ????	       00 b1	   _Buster_Direction =	var13
    108  5000 ????
    109  5000 ????	       00 b0	   _Ghost_y   =	var12
    110  5000 ????
    111  5000 ????	       00 af	   _Ghost_x   =	var11
    112  5000 ????
    113  5000 ????	       00 ae	   _Previous_y =	var10
    114  5000 ????
    115  5000 ????	       00 ad	   _Previous_x =	var9
    116  5000 ????
    117  5000 ????	       00 ac	   _Map_Position_y =	var8
    118  5000 ????
    119  5000 ????	       00 ab	   _Map_Position_x =	var7
    120  5000 ????
    121  5000 ????	       00 aa	   _Ghost3_Room =	var6
    122  5000 ????
    123  5000 ????	       00 a9	   _Ghost2_Room =	var5
    124  5000 ????
    125  5000 ????	       00 a8	   _Ghost1_Room =	var4
    126  5000 ????
    127  5000 ????	       00 a7	   _Buster_Room =	var3
    128  5000 ????
    129  5000 ????	       00 a4	   rand16     =	var0
    130  5000 ????
    131  5000 ????	       00 01	   PFheights  =	1
    132  5000 ????	       00 01	   player1colors =	1
    133  5000 ????	       00 01	   superchip  =	1
    134  5000 ????	       00 03	   bs_mask    =	3
    135  5000 ????	       00 10	   bankswitch =	16
    136  5000 ????	       1f f6	   bankswitch_hotspot =	$1FF6
------- FILE 2600basic.h
      7  5000 ????
      8  5000 ????	       00 80	   player0x   =	$80
      9  5000 ????	       00 81	   player1x   =	$81
     10  5000 ????	       00 82	   missile0x  =	$82
     11  5000 ????	       00 83	   missile1x  =	$83
     12  5000 ????	       00 84	   ballx      =	$84
     13  5000 ????
     14  5000 ????	       00 85	   objecty    =	$85
     15  5000 ????	       00 85	   player0y   =	$85
     16  5000 ????	       00 86	   player1y   =	$86
     17  5000 ????	       00 87	   missile1height =	$87
     18  5000 ????	       00 88	   missile1y  =	$88
     19  5000 ????	       00 89	   bally      =	$89
     20  5000 ????
     21  5000 ????	       00 87	   player1color =	$87	; replaces missile 1
     22  5000 ????
     23  5000 ????	       00 8a	   player0pointer =	$8A	;uses $8A-$8B
     24  5000 ????	       00 8a	   player0pointerlo =	$8A
     25  5000 ????	       00 8b	   player0pointerhi =	$8B
     26  5000 ????	       00 8c	   player1pointer =	$8C	; $8C-$8D
     27  5000 ????	       00 8c	   player1pointerlo =	$8C
     28  5000 ????	       00 8d	   player1pointerhi =	$8D
     29  5000 ????
     30  5000 ????	       00 8e	   player0height =	$8E
     31  5000 ????	       00 8f	   player1height =	$8F
     32  5000 ????	       00 90	   missile0height =	$90
     33  5000 ????	       00 91	   missile0y  =	$91
     34  5000 ????	       00 92	   ballheight =	$92
     35  5000 ????
     36  5000 ????	       00 90	   currentpaddle =	$90	; replaces missile 0 (and can't be used with playercolor)
     37  5000 ????	       00 91	   paddle     =	$91	; replaces missile 0
     38  5000 ????	       00 82	   player0colorstore =	$82	; replaces missile 0
     39  5000 ????	       00 90	   player0color =	$90	; replaces missile 0
     40  5000 ????
     41  5000 ????	       00 93	   score      =	$93	; $93-$95
     42  5000 ????	       00 96	   scorepointers =	$96	; $96-$9B = 6 bytes
     43  5000 ????	       00 9c	   temp1      =	$9C	;used by kernel.  can be used in program too, but
     44  5000 ????	       00 9d	   temp2      =	$9D	;are obliterated when drawscreen is called.
     45  5000 ????	       00 9e	   temp3      =	$9E
     46  5000 ????	       00 9f	   temp4      =	$9F
     47  5000 ????	       00 a0	   temp5      =	$A0
     48  5000 ????	       00 a1	   temp6      =	$A1
     49  5000 ????
     50  5000 ????	       00 a2	   rand       =	$A2
     51  5000 ????	       00 a3	   scorecolor =	$A3
     52  5000 ????
     53  5000 ????	       00 a4	   var0       =	$A4
     54  5000 ????	       00 a5	   var1       =	$A5
     55  5000 ????	       00 a6	   var2       =	$A6
     56  5000 ????	       00 a7	   var3       =	$A7
     57  5000 ????	       00 a8	   var4       =	$A8
     58  5000 ????	       00 a9	   var5       =	$A9
     59  5000 ????	       00 aa	   var6       =	$AA
     60  5000 ????	       00 ab	   var7       =	$AB
     61  5000 ????	       00 ac	   var8       =	$AC
     62  5000 ????	       00 ad	   var9       =	$AD
     63  5000 ????	       00 ae	   var10      =	$AE
     64  5000 ????	       00 af	   var11      =	$AF
     65  5000 ????	       00 b0	   var12      =	$B0
     66  5000 ????	       00 b1	   var13      =	$B1
     67  5000 ????	       00 b2	   var14      =	$B2
     68  5000 ????	       00 b3	   var15      =	$B3
     69  5000 ????	       00 b4	   var16      =	$B4
     70  5000 ????	       00 b5	   var17      =	$B5
     71  5000 ????	       00 b6	   var18      =	$B6
     72  5000 ????	       00 b7	   var19      =	$B7
     73  5000 ????	       00 b8	   var20      =	$B8
     74  5000 ????	       00 b9	   var21      =	$B9
     75  5000 ????	       00 ba	   var22      =	$BA
     76  5000 ????	       00 bb	   var23      =	$BB
     77  5000 ????	       00 bc	   var24      =	$BC
     78  5000 ????	       00 bd	   var25      =	$BD
     79  5000 ????	       00 be	   var26      =	$BE
     80  5000 ????	       00 bf	   var27      =	$BF
     81  5000 ????	       00 c0	   var28      =	$C0
     82  5000 ????	       00 c1	   var29      =	$C1
     83  5000 ????	       00 c2	   var30      =	$C2
     84  5000 ????	       00 c3	   var31      =	$C3
     85  5000 ????	       00 c4	   var32      =	$C4
     86  5000 ????	       00 c5	   var33      =	$C5
     87  5000 ????	       00 c6	   var34      =	$C6
     88  5000 ????	       00 c7	   var35      =	$C7
     89  5000 ????	       00 c8	   var36      =	$C8
     90  5000 ????	       00 c9	   var37      =	$C9
     91  5000 ????	       00 ca	   var38      =	$CA
     92  5000 ????	       00 cb	   var39      =	$CB
     93  5000 ????	       00 cc	   var40      =	$CC
     94  5000 ????	       00 cd	   var41      =	$CD
     95  5000 ????	       00 ce	   var42      =	$CE
     96  5000 ????	       00 cf	   var43      =	$CF
     97  5000 ????	       00 d0	   var44      =	$D0
     98  5000 ????	       00 d1	   var45      =	$D1
     99  5000 ????	       00 d2	   var46      =	$D2
    100  5000 ????	       00 d3	   var47      =	$D3
    101  5000 ????
    102  5000 ????	       00 d4	   A	      =	$d4
    103  5000 ????	       00 d4	   a	      =	$d4
    104  5000 ????	       00 d5	   B	      =	$d5
    105  5000 ????	       00 d5	   b	      =	$d5
    106  5000 ????	       00 d6	   C	      =	$d6
    107  5000 ????	       00 d6	   c	      =	$d6
    108  5000 ????	       00 d7	   D	      =	$d7
    109  5000 ????	       00 d7	   d	      =	$d7
    110  5000 ????	       00 d8	   E	      =	$d8
    111  5000 ????	       00 d8	   e	      =	$d8
    112  5000 ????	       00 d9	   F	      =	$d9
    113  5000 ????	       00 d9	   f	      =	$d9
    114  5000 ????	       00 da	   G	      =	$da
    115  5000 ????	       00 da	   g	      =	$da
    116  5000 ????	       00 db	   H	      =	$db
    117  5000 ????	       00 db	   h	      =	$db
    118  5000 ????	       00 dc	   I	      =	$dc
    119  5000 ????	       00 dc	   i	      =	$dc
    120  5000 ????	       00 dd	   J	      =	$dd
    121  5000 ????	       00 dd	   j	      =	$dd
    122  5000 ????	       00 de	   K	      =	$de
    123  5000 ????	       00 de	   k	      =	$de
    124  5000 ????	       00 df	   L	      =	$df
    125  5000 ????	       00 df	   l	      =	$df
    126  5000 ????	       00 e0	   M	      =	$e0
    127  5000 ????	       00 e0	   m	      =	$e0
    128  5000 ????	       00 e1	   N	      =	$e1
    129  5000 ????	       00 e1	   n	      =	$e1
    130  5000 ????	       00 e2	   O	      =	$e2
    131  5000 ????	       00 e2	   o	      =	$e2
    132  5000 ????	       00 e3	   P	      =	$e3
    133  5000 ????	       00 e3	   p	      =	$e3
    134  5000 ????	       00 e4	   Q	      =	$e4
    135  5000 ????	       00 e4	   q	      =	$e4
    136  5000 ????	       00 e5	   R	      =	$e5
    137  5000 ????	       00 e5	   r	      =	$e5
    138  5000 ????	       00 e6	   S	      =	$e6
    139  5000 ????	       00 e6	   s	      =	$e6
    140  5000 ????	       00 e7	   T	      =	$e7
    141  5000 ????	       00 e7	   t	      =	$e7
    142  5000 ????	       00 e8	   U	      =	$e8
    143  5000 ????	       00 e8	   u	      =	$e8
    144  5000 ????	       00 e9	   V	      =	$e9
    145  5000 ????	       00 e9	   v	      =	$e9
    146  5000 ????	       00 ea	   W	      =	$ea
    147  5000 ????	       00 ea	   w	      =	$ea
    148  5000 ????	       00 eb	   X	      =	$eb
    149  5000 ????	       00 eb	   x	      =	$eb
    150  5000 ????	       00 ec	   Y	      =	$ec
    151  5000 ????	       00 ec	   y	      =	$ec
    152  5000 ????	       00 ed	   Z	      =	$ed
    153  5000 ????	       00 ed	   z	      =	$ed
    154  5000 ????
    155  5000 ????	       00 ee	   temp7      =	$ee	; This is used to aid in bankswitching
    156  5000 ????	       00 ef	   playfieldpos =	$ef
    157  5000 ????
    158  5000 ????						; available for other uses, or if unused, provide more stack space
    159  5000 ????
    160  5000 ????	       00 f0	   aux1       =	$f0
    161  5000 ????	       00 f1	   aux2       =	$f1
    162  5000 ????	       00 f2	   aux3       =	$f2
    163  5000 ????	       00 f3	   aux4       =	$f3
    164  5000 ????	       00 f4	   aux5       =	$f4
    165  5000 ????	       00 f5	   aux6       =	$f5
    166  5000 ????
    167  5000 ????						; playfield color/height pointers
    168  5000 ????	       00 f0	   pfcolortable =	$f0	; and $d5
    169  5000 ????	       00 f0	   pfheighttable =	$f0	; and $d5
    170  5000 ????						; the above pointers are the same because if color and height are both used together,
    171  5000 ????						; they must used absolute indexed and cannot use pointers
    172  5000 ????
    173  5000 ????	       00 f2	   lifepointer =	$f2	; pointer to "lives" shape
    174  5000 ????						; upper 3 bits of $f2 contain the number of lives
    175  5000 ????	       00 f4	   lifecolor  =	$f4
    176  5000 ????	       00 f3	   lives      =	$f3	; # lives >> 5
    177  5000 ????	       00 f5	   statusbarlength =	$f5	; only uses upper 5 bits; other bits free
    178  5000 ????
    179  5000 ????	       00 f2	   pfscore1   =	$f2	; optional playfield bytes in score
    180  5000 ????	       00 f3	   pfscore2   =	$f3
    181  5000 ????	       00 f4	   pfscorecolor =	$f4
    182  5000 ????
    183  5000 ????	       00 f6	   stack1     =	$f6
    184  5000 ????	       00 f7	   stack2     =	$f7
    185  5000 ????	       00 f8	   stack3     =	$f8
    186  5000 ????	       00 f9	   stack4     =	$f9
    187  5000 ????						; the stack bytes above may be used in the kernel
    188  5000 ????						; stack = F6-F7, F8-F9, FA-FB, FC-FD, FE-FF
    189  5000 ????
    190  5000 ????				      MAC	return
    191  5000 ????				      ifnconst	bankswitch
    192  5000 ????				      rts
    193  5000 ????				      else
    194  5000 ????				      jmp	BS_return
    195  5000 ????				      endif
    196  5000 ????				      ENDM		; auto-return from either a regular or bankswitched module
    197  5000 ????
    198  5000 ????				      ifconst	superchip
    199  5000 ????	       10 d0	   playfieldbase =	$10D0
------- FILE superchip.h LEVEL 3 PASS 2
      0  5000 ????				      include	superchip.h
      1  5000 ????						; Provided under the CC0 license. See the included LICENSE.txt for details.
      2  5000 ????
      3  5000 ????	       f0 00	   write_RAM  =	$F000
      4  5000 ????	       f0 00	   wRAM       =	$F000
      5  5000 ????	       f0 00	   w000       =	$F000
      6  5000 ????	       f0 01	   w001       =	$F001
      7  5000 ????	       f0 02	   w002       =	$F002
      8  5000 ????	       f0 03	   w003       =	$F003
      9  5000 ????	       f0 04	   w004       =	$F004
     10  5000 ????	       f0 05	   w005       =	$F005
     11  5000 ????	       f0 06	   w006       =	$F006
     12  5000 ????	       f0 07	   w007       =	$F007
     13  5000 ????	       f0 08	   w008       =	$F008
     14  5000 ????	       f0 09	   w009       =	$F009
     15  5000 ????	       f0 0a	   w010       =	$F00A
     16  5000 ????	       f0 0b	   w011       =	$F00B
     17  5000 ????	       f0 0c	   w012       =	$F00C
     18  5000 ????	       f0 0d	   w013       =	$F00D
     19  5000 ????	       f0 0e	   w014       =	$F00E
     20  5000 ????	       f0 0f	   w015       =	$F00F
     21  5000 ????	       f0 10	   w016       =	$F010
     22  5000 ????	       f0 11	   w017       =	$F011
     23  5000 ????	       f0 12	   w018       =	$F012
     24  5000 ????	       f0 13	   w019       =	$F013
     25  5000 ????	       f0 14	   w020       =	$F014
     26  5000 ????	       f0 15	   w021       =	$F015
     27  5000 ????	       f0 16	   w022       =	$F016
     28  5000 ????	       f0 17	   w023       =	$F017
     29  5000 ????	       f0 18	   w024       =	$F018
     30  5000 ????	       f0 19	   w025       =	$F019
     31  5000 ????	       f0 1a	   w026       =	$F01A
     32  5000 ????	       f0 1b	   w027       =	$F01B
     33  5000 ????	       f0 1c	   w028       =	$F01C
     34  5000 ????	       f0 1d	   w029       =	$F01D
     35  5000 ????	       f0 1e	   w030       =	$F01E
     36  5000 ????	       f0 1f	   w031       =	$F01F
     37  5000 ????	       f0 20	   w032       =	$F020
     38  5000 ????	       f0 21	   w033       =	$F021
     39  5000 ????	       f0 22	   w034       =	$F022
     40  5000 ????	       f0 23	   w035       =	$F023
     41  5000 ????	       f0 24	   w036       =	$F024
     42  5000 ????	       f0 25	   w037       =	$F025
     43  5000 ????	       f0 26	   w038       =	$F026
     44  5000 ????	       f0 27	   w039       =	$F027
     45  5000 ????	       f0 28	   w040       =	$F028
     46  5000 ????	       f0 29	   w041       =	$F029
     47  5000 ????	       f0 2a	   w042       =	$F02A
     48  5000 ????	       f0 2b	   w043       =	$F02B
     49  5000 ????	       f0 2c	   w044       =	$F02C
     50  5000 ????	       f0 2d	   w045       =	$F02D
     51  5000 ????	       f0 2e	   w046       =	$F02E
     52  5000 ????	       f0 2f	   w047       =	$F02F
     53  5000 ????	       f0 30	   w048       =	$F030
     54  5000 ????	       f0 31	   w049       =	$F031
     55  5000 ????	       f0 32	   w050       =	$F032
     56  5000 ????	       f0 33	   w051       =	$F033
     57  5000 ????	       f0 34	   w052       =	$F034
     58  5000 ????	       f0 35	   w053       =	$F035
     59  5000 ????	       f0 36	   w054       =	$F036
     60  5000 ????	       f0 37	   w055       =	$F037
     61  5000 ????	       f0 38	   w056       =	$F038
     62  5000 ????	       f0 39	   w057       =	$F039
     63  5000 ????	       f0 3a	   w058       =	$F03A
     64  5000 ????	       f0 3b	   w059       =	$F03B
     65  5000 ????	       f0 3c	   w060       =	$F03C
     66  5000 ????	       f0 3d	   w061       =	$F03D
     67  5000 ????	       f0 3e	   w062       =	$F03E
     68  5000 ????	       f0 3f	   w063       =	$F03F
     69  5000 ????	       f0 40	   w064       =	$F040
     70  5000 ????	       f0 41	   w065       =	$F041
     71  5000 ????	       f0 42	   w066       =	$F042
     72  5000 ????	       f0 43	   w067       =	$F043
     73  5000 ????	       f0 44	   w068       =	$F044
     74  5000 ????	       f0 45	   w069       =	$F045
     75  5000 ????	       f0 46	   w070       =	$F046
     76  5000 ????	       f0 47	   w071       =	$F047
     77  5000 ????	       f0 48	   w072       =	$F048
     78  5000 ????	       f0 49	   w073       =	$F049
     79  5000 ????	       f0 4a	   w074       =	$F04A
     80  5000 ????	       f0 4b	   w075       =	$F04B
     81  5000 ????	       f0 4c	   w076       =	$F04C
     82  5000 ????	       f0 4d	   w077       =	$F04D
     83  5000 ????	       f0 4e	   w078       =	$F04E
     84  5000 ????	       f0 4f	   w079       =	$F04F
     85  5000 ????	       f0 50	   w080       =	$F050
     86  5000 ????	       f0 51	   w081       =	$F051
     87  5000 ????	       f0 52	   w082       =	$F052
     88  5000 ????	       f0 53	   w083       =	$F053
     89  5000 ????	       f0 54	   w084       =	$F054
     90  5000 ????	       f0 55	   w085       =	$F055
     91  5000 ????	       f0 56	   w086       =	$F056
     92  5000 ????	       f0 57	   w087       =	$F057
     93  5000 ????	       f0 58	   w088       =	$F058
     94  5000 ????	       f0 59	   w089       =	$F059
     95  5000 ????	       f0 5a	   w090       =	$F05A
     96  5000 ????	       f0 5b	   w091       =	$F05B
     97  5000 ????	       f0 5c	   w092       =	$F05C
     98  5000 ????	       f0 5d	   w093       =	$F05D
     99  5000 ????	       f0 5e	   w094       =	$F05E
    100  5000 ????	       f0 5f	   w095       =	$F05F
    101  5000 ????	       f0 60	   w096       =	$F060
    102  5000 ????	       f0 61	   w097       =	$F061
    103  5000 ????	       f0 62	   w098       =	$F062
    104  5000 ????	       f0 63	   w099       =	$F063
    105  5000 ????	       f0 64	   w100       =	$F064
    106  5000 ????	       f0 65	   w101       =	$F065
    107  5000 ????	       f0 66	   w102       =	$F066
    108  5000 ????	       f0 67	   w103       =	$F067
    109  5000 ????	       f0 68	   w104       =	$F068
    110  5000 ????	       f0 69	   w105       =	$F069
    111  5000 ????	       f0 6a	   w106       =	$F06A
    112  5000 ????	       f0 6b	   w107       =	$F06B
    113  5000 ????	       f0 6c	   w108       =	$F06C
    114  5000 ????	       f0 6d	   w109       =	$F06D
    115  5000 ????	       f0 6e	   w110       =	$F06E
    116  5000 ????	       f0 6f	   w111       =	$F06F
    117  5000 ????	       f0 70	   w112       =	$F070
    118  5000 ????	       f0 71	   w113       =	$F071
    119  5000 ????	       f0 72	   w114       =	$F072
    120  5000 ????	       f0 73	   w115       =	$F073
    121  5000 ????	       f0 74	   w116       =	$F074
    122  5000 ????	       f0 75	   w117       =	$F075
    123  5000 ????	       f0 76	   w118       =	$F076
    124  5000 ????	       f0 77	   w119       =	$F077
    125  5000 ????	       f0 78	   w120       =	$F078
    126  5000 ????	       f0 79	   w121       =	$F079
    127  5000 ????	       f0 7a	   w122       =	$F07A
    128  5000 ????	       f0 7b	   w123       =	$F07B
    129  5000 ????	       f0 7c	   w124       =	$F07C
    130  5000 ????	       f0 7d	   w125       =	$F07D
    131  5000 ????	       f0 7e	   w126       =	$F07E
    132  5000 ????	       f0 7f	   w127       =	$F07F
    133  5000 ????
    134  5000 ????	       f0 80	   read_RAM   =	$F080
    135  5000 ????	       f0 80	   rRAM       =	$F080
    136  5000 ????	       f0 80	   r000       =	$F080
    137  5000 ????	       f0 81	   r001       =	$F081
    138  5000 ????	       f0 82	   r002       =	$F082
    139  5000 ????	       f0 83	   r003       =	$F083
    140  5000 ????	       f0 84	   r004       =	$F084
    141  5000 ????	       f0 85	   r005       =	$F085
    142  5000 ????	       f0 86	   r006       =	$F086
    143  5000 ????	       f0 87	   r007       =	$F087
    144  5000 ????	       f0 88	   r008       =	$F088
    145  5000 ????	       f0 89	   r009       =	$F089
    146  5000 ????	       f0 8a	   r010       =	$F08A
    147  5000 ????	       f0 8b	   r011       =	$F08B
    148  5000 ????	       f0 8c	   r012       =	$F08C
    149  5000 ????	       f0 8d	   r013       =	$F08D
    150  5000 ????	       f0 8e	   r014       =	$F08E
    151  5000 ????	       f0 8f	   r015       =	$F08F
    152  5000 ????	       f0 90	   r016       =	$F090
    153  5000 ????	       f0 91	   r017       =	$F091
    154  5000 ????	       f0 92	   r018       =	$F092
    155  5000 ????	       f0 93	   r019       =	$F093
    156  5000 ????	       f0 94	   r020       =	$F094
    157  5000 ????	       f0 95	   r021       =	$F095
    158  5000 ????	       f0 96	   r022       =	$F096
    159  5000 ????	       f0 97	   r023       =	$F097
    160  5000 ????	       f0 98	   r024       =	$F098
    161  5000 ????	       f0 99	   r025       =	$F099
    162  5000 ????	       f0 9a	   r026       =	$F09A
    163  5000 ????	       f0 9b	   r027       =	$F09B
    164  5000 ????	       f0 9c	   r028       =	$F09C
    165  5000 ????	       f0 9d	   r029       =	$F09D
    166  5000 ????	       f0 9e	   r030       =	$F09E
    167  5000 ????	       f0 9f	   r031       =	$F09F
    168  5000 ????	       f0 a0	   r032       =	$F0A0
    169  5000 ????	       f0 a1	   r033       =	$F0A1
    170  5000 ????	       f0 a2	   r034       =	$F0A2
    171  5000 ????	       f0 a3	   r035       =	$F0A3
    172  5000 ????	       f0 a4	   r036       =	$F0A4
    173  5000 ????	       f0 a5	   r037       =	$F0A5
    174  5000 ????	       f0 a6	   r038       =	$F0A6
    175  5000 ????	       f0 a7	   r039       =	$F0A7
    176  5000 ????	       f0 a8	   r040       =	$F0A8
    177  5000 ????	       f0 a9	   r041       =	$F0A9
    178  5000 ????	       f0 aa	   r042       =	$F0AA
    179  5000 ????	       f0 ab	   r043       =	$F0AB
    180  5000 ????	       f0 ac	   r044       =	$F0AC
    181  5000 ????	       f0 ad	   r045       =	$F0AD
    182  5000 ????	       f0 ae	   r046       =	$F0AE
    183  5000 ????	       f0 af	   r047       =	$F0AF
    184  5000 ????	       f0 b0	   r048       =	$F0B0
    185  5000 ????	       f0 b1	   r049       =	$F0B1
    186  5000 ????	       f0 b2	   r050       =	$F0B2
    187  5000 ????	       f0 b3	   r051       =	$F0B3
    188  5000 ????	       f0 b4	   r052       =	$F0B4
    189  5000 ????	       f0 b5	   r053       =	$F0B5
    190  5000 ????	       f0 b6	   r054       =	$F0B6
    191  5000 ????	       f0 b7	   r055       =	$F0B7
    192  5000 ????	       f0 b8	   r056       =	$F0B8
    193  5000 ????	       f0 b9	   r057       =	$F0B9
    194  5000 ????	       f0 ba	   r058       =	$F0BA
    195  5000 ????	       f0 bb	   r059       =	$F0BB
    196  5000 ????	       f0 bc	   r060       =	$F0BC
    197  5000 ????	       f0 bd	   r061       =	$F0BD
    198  5000 ????	       f0 be	   r062       =	$F0BE
    199  5000 ????	       f0 bf	   r063       =	$F0BF
    200  5000 ????	       f0 c0	   r064       =	$F0C0
    201  5000 ????	       f0 c1	   r065       =	$F0C1
    202  5000 ????	       f0 c2	   r066       =	$F0C2
    203  5000 ????	       f0 c3	   r067       =	$F0C3
    204  5000 ????	       f0 c4	   r068       =	$F0C4
    205  5000 ????	       f0 c5	   r069       =	$F0C5
    206  5000 ????	       f0 c6	   r070       =	$F0C6
    207  5000 ????	       f0 c7	   r071       =	$F0C7
    208  5000 ????	       f0 c8	   r072       =	$F0C8
    209  5000 ????	       f0 c9	   r073       =	$F0C9
    210  5000 ????	       f0 ca	   r074       =	$F0CA
    211  5000 ????	       f0 cb	   r075       =	$F0CB
    212  5000 ????	       f0 cc	   r076       =	$F0CC
    213  5000 ????	       f0 cd	   r077       =	$F0CD
    214  5000 ????	       f0 ce	   r078       =	$F0CE
    215  5000 ????	       f0 cf	   r079       =	$F0CF
    216  5000 ????	       f0 d0	   r080       =	$F0D0
    217  5000 ????	       f0 d1	   r081       =	$F0D1
    218  5000 ????	       f0 d2	   r082       =	$F0D2
    219  5000 ????	       f0 d3	   r083       =	$F0D3
    220  5000 ????	       f0 d4	   r084       =	$F0D4
    221  5000 ????	       f0 d5	   r085       =	$F0D5
    222  5000 ????	       f0 d6	   r086       =	$F0D6
    223  5000 ????	       f0 d7	   r087       =	$F0D7
    224  5000 ????	       f0 d8	   r088       =	$F0D8
    225  5000 ????	       f0 d9	   r089       =	$F0D9
    226  5000 ????	       f0 da	   r090       =	$F0DA
    227  5000 ????	       f0 db	   r091       =	$F0DB
    228  5000 ????	       f0 dc	   r092       =	$F0DC
    229  5000 ????	       f0 dd	   r093       =	$F0DD
    230  5000 ????	       f0 de	   r094       =	$F0DE
    231  5000 ????	       f0 df	   r095       =	$F0DF
    232  5000 ????	       f0 e0	   r096       =	$F0E0
    233  5000 ????	       f0 e1	   r097       =	$F0E1
    234  5000 ????	       f0 e2	   r098       =	$F0E2
    235  5000 ????	       f0 e3	   r099       =	$F0E3
    236  5000 ????	       f0 e4	   r100       =	$F0E4
    237  5000 ????	       f0 e5	   r101       =	$F0E5
    238  5000 ????	       f0 e6	   r102       =	$F0E6
    239  5000 ????	       f0 e7	   r103       =	$F0E7
    240  5000 ????	       f0 e8	   r104       =	$F0E8
    241  5000 ????	       f0 e9	   r105       =	$F0E9
    242  5000 ????	       f0 ea	   r106       =	$F0EA
    243  5000 ????	       f0 eb	   r107       =	$F0EB
    244  5000 ????	       f0 ec	   r108       =	$F0EC
    245  5000 ????	       f0 ed	   r109       =	$F0ED
    246  5000 ????	       f0 ee	   r110       =	$F0EE
    247  5000 ????	       f0 ef	   r111       =	$F0EF
    248  5000 ????	       f0 f0	   r112       =	$F0F0
    249  5000 ????	       f0 f1	   r113       =	$F0F1
    250  5000 ????	       f0 f2	   r114       =	$F0F2
    251  5000 ????	       f0 f3	   r115       =	$F0F3
    252  5000 ????	       f0 f4	   r116       =	$F0F4
    253  5000 ????	       f0 f5	   r117       =	$F0F5
    254  5000 ????	       f0 f6	   r118       =	$F0F6
    255  5000 ????	       f0 f7	   r119       =	$F0F7
    256  5000 ????	       f0 f8	   r120       =	$F0F8
    257  5000 ????	       f0 f9	   r121       =	$F0F9
    258  5000 ????	       f0 fa	   r122       =	$F0FA
    259  5000 ????	       f0 fb	   r123       =	$F0FB
    260  5000 ????	       f0 fc	   r124       =	$F0FC
    261  5000 ????	       f0 fd	   r125       =	$F0FD
    262  5000 ????	       f0 fe	   r126       =	$F0FE
    263  5000 ????	       f0 ff	   r127       =	$F0FF
------- FILE 2600basic.h
    201  5000 ????			  -	      else
    202  5000 ????			  -playfieldbase =	$A4
    203  5000 ????				      endif
    204  5000 ????
    205  5000 ????				      ifnconst	pfhalfwidth
    206  5000 ????	       00 04	   pfwidth    =	4
    207  5000 ????	       00 0e	   PF1L       =	PF1
    208  5000 ????	       00 0f	   PF2L       =	PF2
    209  5000 ????	       00 0e	   PF1R       =	PF1
    210  5000 ????	       00 0f	   PF2R       =	PF2
    211  5000 ????	       00 00	   pfadjust   =	0
    212  5000 ????			  -	      else
    213  5000 ????			  -pfwidth    =	2
    214  5000 ????			  -	      ifconst	pfcenter
    215  5000 ????			  -PF1L       =	$3F	; no effect
    216  5000 ????			  -PF2L       =	PF2
    217  5000 ????			  -PF1R       =	$3F
    218  5000 ????			  -PF2R       =	PF2	; no effect
    219  5000 ????			  -pfadjust   =	1
    220  5000 ????			  -	      else
    221  5000 ????			  -PF1L       =	PF1
    222  5000 ????			  -PF2L       =	PF2
    223  5000 ????			  -PF1R       =	$3F	; no effect
    224  5000 ????			  -PF2R       =	$3F	; no effect
    225  5000 ????			  -pfadjust   =	0
    226  5000 ????			  -	      endif
    227  5000 ????				      endif
    228  5000 ????
    229  5000 ????						; define playfield start based on height
    230  5000 ????				      ifnconst	pfres
    231  5000 ????	       10 d0	   playfield  =	playfieldbase
    232  5000 ????			  -	      else
    233  5000 ????			  -playfield  =	playfieldbase-(pfres-12*(4/pfwidth))*pfwidth
    234  5000 ????				      endif
------- FILE pke.bas.asm
------- FILE 2600basic_variable_redefs.h LEVEL 2 PASS 2
      0  5000 ????				      include	"2600basic_variable_redefs.h"
      1  5000 ????						; This file contains variable mapping and other information for the current project.
      2  5000 ????
      3  5000 ????	       00 a5	   GhostbustersTheme =	var1
      4  5000 ????	       00 64	   my_world_map_length =	.skipL0472-my_world_map
      5  5000 ????
      6  5000 ????	       00 4d	   disappear_sfx_length =	.skipL0426-disappear_sfx
      7  5000 ????
      8  5000 ????	       00 6d	   overheat_sfx_length =	.skipL0425-overheat_sfx
      9  5000 ????
     10  5000 ????	       00 29	   trap_sfx_length =	.skipL0424-trap_sfx
     11  5000 ????
     12  5000 ????	       00 89	   slimed_sfx_length =	.skipL0423-slimed_sfx
     13  5000 ????
     14  5000 ????	       00 20	   bscode_length =	32
     15  5000 ????	       00 01	   pfscore    =	1
     16  5000 ????
     17  5000 ????	       00 07	   Playfield_Color_Table_length =	.skipL058-Playfield_Color_Table
     18  5000 ????
     19  5000 ????	       00 09	   _Ghost_Damage_Colors_length =	.skipL057-_Ghost_Damage_Colors
     20  5000 ????
     21  5000 ????	       00 09	   _Heat_Bar_Table_length =	.skipL056-_Heat_Bar_Table
     22  5000 ????
     23  5000 ????	       00 95	   _sc3       =	score + 2
     24  5000 ????
     25  5000 ????	       00 94	   _sc2       =	score + 1
     26  5000 ????
     27  5000 ????	       00 93	   _sc1       =	score
     28  5000 ????
     29  5000 ????	       00 d2	   _Bit6_Right_DifficultyB =	var46
     30  5000 ????
     31  5000 ????	       00 d2	   _Bit5_Left_DifficultyB =	var46
     32  5000 ????
     33  5000 ????	       00 d2	   _Bit4_Trap_Active =	var46
     34  5000 ????
     35  5000 ????	       00 d2	   _Bit3_Stunned_Ghost =	var46
     36  5000 ????
     37  5000 ????	       00 d2	   _Bit2_Wand_Lock =	var46
     38  5000 ????
     39  5000 ????	       00 d2	   _Bit1_Missile_Flag =	var46
     40  5000 ????
     41  5000 ????	       00 d2	   _Bit0_Reset_Restrainer =	var46
     42  5000 ????
     43  5000 ????	       00 d1	   _Flee_Range =	var45
     44  5000 ????
     45  5000 ????	       00 d0	   _Room_Counter =	var44
     46  5000 ????
     47  5000 ????	       00 cf	   _Timer_Mask =	var43
     48  5000 ????
     49  5000 ????	       00 ce	   _Visit_Length =	var42
     50  5000 ????
     51  5000 ????	       00 cd	   _Ghost_Speed_Mask =	var41
     52  5000 ????
     53  5000 ????	       00 cc	   _Difficulty_Level =	var40
     54  5000 ????
     55  5000 ????	       00 cb	   _Ghosts_Caught =	var39
     56  5000 ????
     57  5000 ????	       00 ca	   _Game_Level =	var38
     58  5000 ????
     59  5000 ????	       00 c9	   _SFX_Index =	var37
     60  5000 ????
     61  5000 ????	       00 c8	   _SFX_Dur   =	var36
     62  5000 ????
     63  5000 ????	       00 c7	   _SFX_Frq   =	var35
     64  5000 ????
     65  5000 ????	       00 c6	   _SFX_Ch    =	var34
     66  5000 ????
     67  5000 ????	       00 c5	   _SFX_Vol   =	var33
     68  5000 ????
     69  5000 ????	       00 c4	   _Score_Timer =	var32
     70  5000 ????
     71  5000 ????	       00 c3	   _Ghost_Color =	var31
     72  5000 ????
     73  5000 ????	       00 c2	   _Stream_Counter =	var30
     74  5000 ????
     75  5000 ????	       00 c1	   _Previous_Missile_x =	var29
     76  5000 ????
     77  5000 ????	       00 c0	   _Beam_Color =	var28
     78  5000 ????
     79  5000 ????	       00 bf	   _Hit_Count =	var27
     80  5000 ????
     81  5000 ????	       00 be	   _Stun_Timer =	var26
     82  5000 ????
     83  5000 ????	       00 bd	   _frame     =	var25
     84  5000 ????
     85  5000 ????	       00 bc	   _GB_Dur    =	var24
     86  5000 ????
     87  5000 ????	       00 bb	   _GB_Frq    =	var23
     88  5000 ????
     89  5000 ????	       00 ba	   _GB_Ch     =	var22
     90  5000 ????
     91  5000 ????	       00 b9	   _GB_Vol    =	var21
     92  5000 ????
     93  5000 ????	       00 b8	   _Transition_Quick_Count =	var20
     94  5000 ????
     95  5000 ????	       00 b7	   _Wand_Temperature_Subpixel =	var19
     96  5000 ????
     97  5000 ????	       00 b6	   _Wand_Temperature =	var18
     98  5000 ????
     99  5000 ????	       00 b5	   _Distance_to_Ghost =	var17
    100  5000 ????
    101  5000 ????	       00 b4	   _Game_Timer =	var16
    102  5000 ????
    103  5000 ????	       00 b3	   _Ghost_Timer =	var15
    104  5000 ????
    105  5000 ????	       00 b2	   _Ghost_Direction =	var14
    106  5000 ????
    107  5000 ????	       00 b1	   _Buster_Direction =	var13
    108  5000 ????
    109  5000 ????	       00 b0	   _Ghost_y   =	var12
    110  5000 ????
    111  5000 ????	       00 af	   _Ghost_x   =	var11
    112  5000 ????
    113  5000 ????	       00 ae	   _Previous_y =	var10
    114  5000 ????
    115  5000 ????	       00 ad	   _Previous_x =	var9
    116  5000 ????
    117  5000 ????	       00 ac	   _Map_Position_y =	var8
    118  5000 ????
    119  5000 ????	       00 ab	   _Map_Position_x =	var7
    120  5000 ????
    121  5000 ????	       00 aa	   _Ghost3_Room =	var6
    122  5000 ????
    123  5000 ????	       00 a9	   _Ghost2_Room =	var5
    124  5000 ????
    125  5000 ????	       00 a8	   _Ghost1_Room =	var4
    126  5000 ????
    127  5000 ????	       00 a7	   _Buster_Room =	var3
    128  5000 ????
    129  5000 ????	       00 a4	   rand16     =	var0
    130  5000 ????
    131  5000 ????	       00 01	   PFheights  =	1
    132  5000 ????	       00 01	   player1colors =	1
    133  5000 ????	       00 01	   superchip  =	1
    134  5000 ????	       00 03	   bs_mask    =	3
    135  5000 ????	       00 10	   bankswitch =	16
    136  5000 ????	       1f f6	   bankswitch_hotspot =	$1FF6
------- FILE pke.bas.asm
      8  5000 ????				      ifconst	bankswitch
      9  5000 ????			  -	      if	bankswitch == 8
     10  5000 ????			  -	      ORG	$1000
     11  5000 ????			  -	      RORG	$D000
     12  5000 ????				      endif
     13  5000 ????				      if	bankswitch == 16
     14  1000					      ORG	$1000
     15  1000					      RORG	$9000
     16  1000					      endif
     17  1000				  -	      if	bankswitch == 32
     18  1000				  -	      ORG	$1000
     19  1000				  -	      RORG	$1000
     20  1000					      endif
     21  1000				  -	      if	bankswitch == 64
     22  1000				  -	      ORG	$1000
     23  1000				  -	      RORG	$1000
     24  1000					      endif
     25  1000				  -	      else
     26  1000				  -	      ORG	$F000
     27  1000					      endif
     28  1000					      repeat	256
     29  1000		       ff		      .byte.b	$ff
     28  1000					      repend
     29  1001		       ff		      .byte.b	$ff
     28  1001					      repend
     29  1002		       ff		      .byte.b	$ff
     28  1002					      repend
     29  1003		       ff		      .byte.b	$ff
     28  1003					      repend
     29  1004		       ff		      .byte.b	$ff
     28  1004					      repend
     29  1005		       ff		      .byte.b	$ff
     28  1005					      repend
     29  1006		       ff		      .byte.b	$ff
     28  1006					      repend
     29  1007		       ff		      .byte.b	$ff
     28  1007					      repend
     29  1008		       ff		      .byte.b	$ff
     28  1008					      repend
     29  1009		       ff		      .byte.b	$ff
     28  1009					      repend
     29  100a		       ff		      .byte.b	$ff
     28  100a					      repend
     29  100b		       ff		      .byte.b	$ff
     28  100b					      repend
     29  100c		       ff		      .byte.b	$ff
     28  100c					      repend
     29  100d		       ff		      .byte.b	$ff
     28  100d					      repend
     29  100e		       ff		      .byte.b	$ff
     28  100e					      repend
     29  100f		       ff		      .byte.b	$ff
     28  100f					      repend
     29  1010		       ff		      .byte.b	$ff
     28  1010					      repend
     29  1011		       ff		      .byte.b	$ff
     28  1011					      repend
     29  1012		       ff		      .byte.b	$ff
     28  1012					      repend
     29  1013		       ff		      .byte.b	$ff
     28  1013					      repend
     29  1014		       ff		      .byte.b	$ff
     28  1014					      repend
     29  1015		       ff		      .byte.b	$ff
     28  1015					      repend
     29  1016		       ff		      .byte.b	$ff
     28  1016					      repend
     29  1017		       ff		      .byte.b	$ff
     28  1017					      repend
     29  1018		       ff		      .byte.b	$ff
     28  1018					      repend
     29  1019		       ff		      .byte.b	$ff
     28  1019					      repend
     29  101a		       ff		      .byte.b	$ff
     28  101a					      repend
     29  101b		       ff		      .byte.b	$ff
     28  101b					      repend
     29  101c		       ff		      .byte.b	$ff
     28  101c					      repend
     29  101d		       ff		      .byte.b	$ff
     28  101d					      repend
     29  101e		       ff		      .byte.b	$ff
     28  101e					      repend
     29  101f		       ff		      .byte.b	$ff
     28  101f					      repend
     29  1020		       ff		      .byte.b	$ff
     28  1020					      repend
     29  1021		       ff		      .byte.b	$ff
     28  1021					      repend
     29  1022		       ff		      .byte.b	$ff
     28  1022					      repend
     29  1023		       ff		      .byte.b	$ff
     28  1023					      repend
     29  1024		       ff		      .byte.b	$ff
     28  1024					      repend
     29  1025		       ff		      .byte.b	$ff
     28  1025					      repend
     29  1026		       ff		      .byte.b	$ff
     28  1026					      repend
     29  1027		       ff		      .byte.b	$ff
     28  1027					      repend
     29  1028		       ff		      .byte.b	$ff
     28  1028					      repend
     29  1029		       ff		      .byte.b	$ff
     28  1029					      repend
     29  102a		       ff		      .byte.b	$ff
     28  102a					      repend
     29  102b		       ff		      .byte.b	$ff
     28  102b					      repend
     29  102c		       ff		      .byte.b	$ff
     28  102c					      repend
     29  102d		       ff		      .byte.b	$ff
     28  102d					      repend
     29  102e		       ff		      .byte.b	$ff
     28  102e					      repend
     29  102f		       ff		      .byte.b	$ff
     28  102f					      repend
     29  1030		       ff		      .byte.b	$ff
     28  1030					      repend
     29  1031		       ff		      .byte.b	$ff
     28  1031					      repend
     29  1032		       ff		      .byte.b	$ff
     28  1032					      repend
     29  1033		       ff		      .byte.b	$ff
     28  1033					      repend
     29  1034		       ff		      .byte.b	$ff
     28  1034					      repend
     29  1035		       ff		      .byte.b	$ff
     28  1035					      repend
     29  1036		       ff		      .byte.b	$ff
     28  1036					      repend
     29  1037		       ff		      .byte.b	$ff
     28  1037					      repend
     29  1038		       ff		      .byte.b	$ff
     28  1038					      repend
     29  1039		       ff		      .byte.b	$ff
     28  1039					      repend
     29  103a		       ff		      .byte.b	$ff
     28  103a					      repend
     29  103b		       ff		      .byte.b	$ff
     28  103b					      repend
     29  103c		       ff		      .byte.b	$ff
     28  103c					      repend
     29  103d		       ff		      .byte.b	$ff
     28  103d					      repend
     29  103e		       ff		      .byte.b	$ff
     28  103e					      repend
     29  103f		       ff		      .byte.b	$ff
     28  103f					      repend
     29  1040		       ff		      .byte.b	$ff
     28  1040					      repend
     29  1041		       ff		      .byte.b	$ff
     28  1041					      repend
     29  1042		       ff		      .byte.b	$ff
     28  1042					      repend
     29  1043		       ff		      .byte.b	$ff
     28  1043					      repend
     29  1044		       ff		      .byte.b	$ff
     28  1044					      repend
     29  1045		       ff		      .byte.b	$ff
     28  1045					      repend
     29  1046		       ff		      .byte.b	$ff
     28  1046					      repend
     29  1047		       ff		      .byte.b	$ff
     28  1047					      repend
     29  1048		       ff		      .byte.b	$ff
     28  1048					      repend
     29  1049		       ff		      .byte.b	$ff
     28  1049					      repend
     29  104a		       ff		      .byte.b	$ff
     28  104a					      repend
     29  104b		       ff		      .byte.b	$ff
     28  104b					      repend
     29  104c		       ff		      .byte.b	$ff
     28  104c					      repend
     29  104d		       ff		      .byte.b	$ff
     28  104d					      repend
     29  104e		       ff		      .byte.b	$ff
     28  104e					      repend
     29  104f		       ff		      .byte.b	$ff
     28  104f					      repend
     29  1050		       ff		      .byte.b	$ff
     28  1050					      repend
     29  1051		       ff		      .byte.b	$ff
     28  1051					      repend
     29  1052		       ff		      .byte.b	$ff
     28  1052					      repend
     29  1053		       ff		      .byte.b	$ff
     28  1053					      repend
     29  1054		       ff		      .byte.b	$ff
     28  1054					      repend
     29  1055		       ff		      .byte.b	$ff
     28  1055					      repend
     29  1056		       ff		      .byte.b	$ff
     28  1056					      repend
     29  1057		       ff		      .byte.b	$ff
     28  1057					      repend
     29  1058		       ff		      .byte.b	$ff
     28  1058					      repend
     29  1059		       ff		      .byte.b	$ff
     28  1059					      repend
     29  105a		       ff		      .byte.b	$ff
     28  105a					      repend
     29  105b		       ff		      .byte.b	$ff
     28  105b					      repend
     29  105c		       ff		      .byte.b	$ff
     28  105c					      repend
     29  105d		       ff		      .byte.b	$ff
     28  105d					      repend
     29  105e		       ff		      .byte.b	$ff
     28  105e					      repend
     29  105f		       ff		      .byte.b	$ff
     28  105f					      repend
     29  1060		       ff		      .byte.b	$ff
     28  1060					      repend
     29  1061		       ff		      .byte.b	$ff
     28  1061					      repend
     29  1062		       ff		      .byte.b	$ff
     28  1062					      repend
     29  1063		       ff		      .byte.b	$ff
     28  1063					      repend
     29  1064		       ff		      .byte.b	$ff
     28  1064					      repend
     29  1065		       ff		      .byte.b	$ff
     28  1065					      repend
     29  1066		       ff		      .byte.b	$ff
     28  1066					      repend
     29  1067		       ff		      .byte.b	$ff
     28  1067					      repend
     29  1068		       ff		      .byte.b	$ff
     28  1068					      repend
     29  1069		       ff		      .byte.b	$ff
     28  1069					      repend
     29  106a		       ff		      .byte.b	$ff
     28  106a					      repend
     29  106b		       ff		      .byte.b	$ff
     28  106b					      repend
     29  106c		       ff		      .byte.b	$ff
     28  106c					      repend
     29  106d		       ff		      .byte.b	$ff
     28  106d					      repend
     29  106e		       ff		      .byte.b	$ff
     28  106e					      repend
     29  106f		       ff		      .byte.b	$ff
     28  106f					      repend
     29  1070		       ff		      .byte.b	$ff
     28  1070					      repend
     29  1071		       ff		      .byte.b	$ff
     28  1071					      repend
     29  1072		       ff		      .byte.b	$ff
     28  1072					      repend
     29  1073		       ff		      .byte.b	$ff
     28  1073					      repend
     29  1074		       ff		      .byte.b	$ff
     28  1074					      repend
     29  1075		       ff		      .byte.b	$ff
     28  1075					      repend
     29  1076		       ff		      .byte.b	$ff
     28  1076					      repend
     29  1077		       ff		      .byte.b	$ff
     28  1077					      repend
     29  1078		       ff		      .byte.b	$ff
     28  1078					      repend
     29  1079		       ff		      .byte.b	$ff
     28  1079					      repend
     29  107a		       ff		      .byte.b	$ff
     28  107a					      repend
     29  107b		       ff		      .byte.b	$ff
     28  107b					      repend
     29  107c		       ff		      .byte.b	$ff
     28  107c					      repend
     29  107d		       ff		      .byte.b	$ff
     28  107d					      repend
     29  107e		       ff		      .byte.b	$ff
     28  107e					      repend
     29  107f		       ff		      .byte.b	$ff
     28  107f					      repend
     29  1080		       ff		      .byte.b	$ff
     28  1080					      repend
     29  1081		       ff		      .byte.b	$ff
     28  1081					      repend
     29  1082		       ff		      .byte.b	$ff
     28  1082					      repend
     29  1083		       ff		      .byte.b	$ff
     28  1083					      repend
     29  1084		       ff		      .byte.b	$ff
     28  1084					      repend
     29  1085		       ff		      .byte.b	$ff
     28  1085					      repend
     29  1086		       ff		      .byte.b	$ff
     28  1086					      repend
     29  1087		       ff		      .byte.b	$ff
     28  1087					      repend
     29  1088		       ff		      .byte.b	$ff
     28  1088					      repend
     29  1089		       ff		      .byte.b	$ff
     28  1089					      repend
     29  108a		       ff		      .byte.b	$ff
     28  108a					      repend
     29  108b		       ff		      .byte.b	$ff
     28  108b					      repend
     29  108c		       ff		      .byte.b	$ff
     28  108c					      repend
     29  108d		       ff		      .byte.b	$ff
     28  108d					      repend
     29  108e		       ff		      .byte.b	$ff
     28  108e					      repend
     29  108f		       ff		      .byte.b	$ff
     28  108f					      repend
     29  1090		       ff		      .byte.b	$ff
     28  1090					      repend
     29  1091		       ff		      .byte.b	$ff
     28  1091					      repend
     29  1092		       ff		      .byte.b	$ff
     28  1092					      repend
     29  1093		       ff		      .byte.b	$ff
     28  1093					      repend
     29  1094		       ff		      .byte.b	$ff
     28  1094					      repend
     29  1095		       ff		      .byte.b	$ff
     28  1095					      repend
     29  1096		       ff		      .byte.b	$ff
     28  1096					      repend
     29  1097		       ff		      .byte.b	$ff
     28  1097					      repend
     29  1098		       ff		      .byte.b	$ff
     28  1098					      repend
     29  1099		       ff		      .byte.b	$ff
     28  1099					      repend
     29  109a		       ff		      .byte.b	$ff
     28  109a					      repend
     29  109b		       ff		      .byte.b	$ff
     28  109b					      repend
     29  109c		       ff		      .byte.b	$ff
     28  109c					      repend
     29  109d		       ff		      .byte.b	$ff
     28  109d					      repend
     29  109e		       ff		      .byte.b	$ff
     28  109e					      repend
     29  109f		       ff		      .byte.b	$ff
     28  109f					      repend
     29  10a0		       ff		      .byte.b	$ff
     28  10a0					      repend
     29  10a1		       ff		      .byte.b	$ff
     28  10a1					      repend
     29  10a2		       ff		      .byte.b	$ff
     28  10a2					      repend
     29  10a3		       ff		      .byte.b	$ff
     28  10a3					      repend
     29  10a4		       ff		      .byte.b	$ff
     28  10a4					      repend
     29  10a5		       ff		      .byte.b	$ff
     28  10a5					      repend
     29  10a6		       ff		      .byte.b	$ff
     28  10a6					      repend
     29  10a7		       ff		      .byte.b	$ff
     28  10a7					      repend
     29  10a8		       ff		      .byte.b	$ff
     28  10a8					      repend
     29  10a9		       ff		      .byte.b	$ff
     28  10a9					      repend
     29  10aa		       ff		      .byte.b	$ff
     28  10aa					      repend
     29  10ab		       ff		      .byte.b	$ff
     28  10ab					      repend
     29  10ac		       ff		      .byte.b	$ff
     28  10ac					      repend
     29  10ad		       ff		      .byte.b	$ff
     28  10ad					      repend
     29  10ae		       ff		      .byte.b	$ff
     28  10ae					      repend
     29  10af		       ff		      .byte.b	$ff
     28  10af					      repend
     29  10b0		       ff		      .byte.b	$ff
     28  10b0					      repend
     29  10b1		       ff		      .byte.b	$ff
     28  10b1					      repend
     29  10b2		       ff		      .byte.b	$ff
     28  10b2					      repend
     29  10b3		       ff		      .byte.b	$ff
     28  10b3					      repend
     29  10b4		       ff		      .byte.b	$ff
     28  10b4					      repend
     29  10b5		       ff		      .byte.b	$ff
     28  10b5					      repend
     29  10b6		       ff		      .byte.b	$ff
     28  10b6					      repend
     29  10b7		       ff		      .byte.b	$ff
     28  10b7					      repend
     29  10b8		       ff		      .byte.b	$ff
     28  10b8					      repend
     29  10b9		       ff		      .byte.b	$ff
     28  10b9					      repend
     29  10ba		       ff		      .byte.b	$ff
     28  10ba					      repend
     29  10bb		       ff		      .byte.b	$ff
     28  10bb					      repend
     29  10bc		       ff		      .byte.b	$ff
     28  10bc					      repend
     29  10bd		       ff		      .byte.b	$ff
     28  10bd					      repend
     29  10be		       ff		      .byte.b	$ff
     28  10be					      repend
     29  10bf		       ff		      .byte.b	$ff
     28  10bf					      repend
     29  10c0		       ff		      .byte.b	$ff
     28  10c0					      repend
     29  10c1		       ff		      .byte.b	$ff
     28  10c1					      repend
     29  10c2		       ff		      .byte.b	$ff
     28  10c2					      repend
     29  10c3		       ff		      .byte.b	$ff
     28  10c3					      repend
     29  10c4		       ff		      .byte.b	$ff
     28  10c4					      repend
     29  10c5		       ff		      .byte.b	$ff
     28  10c5					      repend
     29  10c6		       ff		      .byte.b	$ff
     28  10c6					      repend
     29  10c7		       ff		      .byte.b	$ff
     28  10c7					      repend
     29  10c8		       ff		      .byte.b	$ff
     28  10c8					      repend
     29  10c9		       ff		      .byte.b	$ff
     28  10c9					      repend
     29  10ca		       ff		      .byte.b	$ff
     28  10ca					      repend
     29  10cb		       ff		      .byte.b	$ff
     28  10cb					      repend
     29  10cc		       ff		      .byte.b	$ff
     28  10cc					      repend
     29  10cd		       ff		      .byte.b	$ff
     28  10cd					      repend
     29  10ce		       ff		      .byte.b	$ff
     28  10ce					      repend
     29  10cf		       ff		      .byte.b	$ff
     28  10cf					      repend
     29  10d0		       ff		      .byte.b	$ff
     28  10d0					      repend
     29  10d1		       ff		      .byte.b	$ff
     28  10d1					      repend
     29  10d2		       ff		      .byte.b	$ff
     28  10d2					      repend
     29  10d3		       ff		      .byte.b	$ff
     28  10d3					      repend
     29  10d4		       ff		      .byte.b	$ff
     28  10d4					      repend
     29  10d5		       ff		      .byte.b	$ff
     28  10d5					      repend
     29  10d6		       ff		      .byte.b	$ff
     28  10d6					      repend
     29  10d7		       ff		      .byte.b	$ff
     28  10d7					      repend
     29  10d8		       ff		      .byte.b	$ff
     28  10d8					      repend
     29  10d9		       ff		      .byte.b	$ff
     28  10d9					      repend
     29  10da		       ff		      .byte.b	$ff
     28  10da					      repend
     29  10db		       ff		      .byte.b	$ff
     28  10db					      repend
     29  10dc		       ff		      .byte.b	$ff
     28  10dc					      repend
     29  10dd		       ff		      .byte.b	$ff
     28  10dd					      repend
     29  10de		       ff		      .byte.b	$ff
     28  10de					      repend
     29  10df		       ff		      .byte.b	$ff
     28  10df					      repend
     29  10e0		       ff		      .byte.b	$ff
     28  10e0					      repend
     29  10e1		       ff		      .byte.b	$ff
     28  10e1					      repend
     29  10e2		       ff		      .byte.b	$ff
     28  10e2					      repend
     29  10e3		       ff		      .byte.b	$ff
     28  10e3					      repend
     29  10e4		       ff		      .byte.b	$ff
     28  10e4					      repend
     29  10e5		       ff		      .byte.b	$ff
     28  10e5					      repend
     29  10e6		       ff		      .byte.b	$ff
     28  10e6					      repend
     29  10e7		       ff		      .byte.b	$ff
     28  10e7					      repend
     29  10e8		       ff		      .byte.b	$ff
     28  10e8					      repend
     29  10e9		       ff		      .byte.b	$ff
     28  10e9					      repend
     29  10ea		       ff		      .byte.b	$ff
     28  10ea					      repend
     29  10eb		       ff		      .byte.b	$ff
     28  10eb					      repend
     29  10ec		       ff		      .byte.b	$ff
     28  10ec					      repend
     29  10ed		       ff		      .byte.b	$ff
     28  10ed					      repend
     29  10ee		       ff		      .byte.b	$ff
     28  10ee					      repend
     29  10ef		       ff		      .byte.b	$ff
     28  10ef					      repend
     29  10f0		       ff		      .byte.b	$ff
     28  10f0					      repend
     29  10f1		       ff		      .byte.b	$ff
     28  10f1					      repend
     29  10f2		       ff		      .byte.b	$ff
     28  10f2					      repend
     29  10f3		       ff		      .byte.b	$ff
     28  10f3					      repend
     29  10f4		       ff		      .byte.b	$ff
     28  10f4					      repend
     29  10f5		       ff		      .byte.b	$ff
     28  10f5					      repend
     29  10f6		       ff		      .byte.b	$ff
     28  10f6					      repend
     29  10f7		       ff		      .byte.b	$ff
     28  10f7					      repend
     29  10f8		       ff		      .byte.b	$ff
     28  10f8					      repend
     29  10f9		       ff		      .byte.b	$ff
     28  10f9					      repend
     29  10fa		       ff		      .byte.b	$ff
     28  10fa					      repend
     29  10fb		       ff		      .byte.b	$ff
     28  10fb					      repend
     29  10fc		       ff		      .byte.b	$ff
     28  10fc					      repend
     29  10fd		       ff		      .byte.b	$ff
     28  10fd					      repend
     29  10fe		       ff		      .byte.b	$ff
     28  10fe					      repend
     29  10ff		       ff		      .byte.b	$ff
     30  1100					      repend
     31  1100				   game
     32  1100				   .L00 		;;line 1;;  set romsize 16kSC
     33  1100
     34  1100				   .L01 		;;line 2;;  set kernel_options player1colors pfheights
     35  1100
     36  1100				   .
     37  1100							;;line 3;;
     38  1100
     39  1100				   .
     40  1100							;;line 4;;
     41  1100
     42  1100				   .
     43  1100							;;line 5;;
     44  1100
     45  1100				   .
     46  1100							;;line 6;;
     47  1100
     48  1100				   .
     49  1100							;;line 7;;
     50  1100
     51  1100				   .L02 		;;line 8;;  dim rand16 = var0
     52  1100
     53  1100				   .
     54  1100							;;line 9;;
     55  1100
     56  1100				   .L03 		;;line 10;;  dim _Buster_Room = var3
     57  1100
     58  1100				   .L04 		;;line 11;;  dim _Ghost1_Room = var4
     59  1100
     60  1100				   .L05 		;;line 12;;  dim _Ghost2_Room = var5
     61  1100
     62  1100				   .L06 		;;line 13;;  dim _Ghost3_Room = var6
     63  1100
     64  1100				   .L07 		;;line 14;;  dim _Map_Position_x = var7
     65  1100
     66  1100				   .L08 		;;line 15;;  dim _Map_Position_y = var8
     67  1100
     68  1100				   .L09 		;;line 16;;  dim _Previous_x = var9
     69  1100
     70  1100				   .L010		;;line 17;;  dim _Previous_y = var10
     71  1100
     72  1100				   .L011		;;line 18;;  dim _Ghost_x = var11
     73  1100
     74  1100				   .L012		;;line 19;;  dim _Ghost_y = var12
     75  1100
     76  1100				   .L013		;;line 20;;  dim _Buster_Direction = var13
     77  1100
     78  1100				   .L014		;;line 21;;  dim _Ghost_Direction = var14
     79  1100
     80  1100				   .L015		;;line 22;;  dim _Ghost_Timer = var15
     81  1100
     82  1100				   .L016		;;line 23;;  dim _Game_Timer = var16
     83  1100
     84  1100				   .L017		;;line 24;;  dim _Distance_to_Ghost = var17
     85  1100
     86  1100				   .L018		;;line 25;;  dim _Wand_Temperature = var18
     87  1100
     88  1100				   .L019		;;line 26;;  dim _Wand_Temperature_Subpixel = var19
     89  1100
     90  1100				   .L020		;;line 27;;  dim _Transition_Quick_Count = var20
     91  1100
     92  1100				   .L021		;;line 28;;  dim _GB_Vol = var21
     93  1100
     94  1100				   .L022		;;line 29;;  dim _GB_Ch = var22
     95  1100
     96  1100				   .L023		;;line 30;;  dim _GB_Frq = var23
     97  1100
     98  1100				   .L024		;;line 31;;  dim _GB_Dur = var24
     99  1100
    100  1100				   .L025		;;line 32;;  dim _frame = var25
    101  1100
    102  1100				   .
    103  1100							;;line 33;;
    104  1100
    105  1100				   .
    106  1100							;;line 34;;
    107  1100
    108  1100				   .L026		;;line 35;;  dim _Stun_Timer = var26
    109  1100
    110  1100				   .L027		;;line 36;;  dim _Hit_Count = var27
    111  1100
    112  1100				   .L028		;;line 37;;  dim _Beam_Color = var28
    113  1100
    114  1100				   .L029		;;line 38;;  dim _Previous_Missile_x = var29
    115  1100
    116  1100				   .L030		;;line 39;;  dim _Stream_Counter = var30
    117  1100
    118  1100				   .L031		;;line 40;;  dim _Ghost_Color = var31
    119  1100
    120  1100				   .L032		;;line 41;;  dim _Score_Timer = var32
    121  1100
    122  1100				   .L033		;;line 42;;  dim _SFX_Vol = var33
    123  1100
    124  1100				   .L034		;;line 43;;  dim _SFX_Ch = var34
    125  1100
    126  1100				   .L035		;;line 44;;  dim _SFX_Frq = var35
    127  1100
    128  1100				   .L036		;;line 45;;  dim _SFX_Dur = var36
    129  1100
    130  1100				   .L037		;;line 46;;  dim _SFX_Index = var37
    131  1100
    132  1100				   .L038		;;line 47;;  dim _Game_Level = var38
    133  1100
    134  1100				   .L039		;;line 48;;  dim _Ghosts_Caught = var39
    135  1100
    136  1100				   .L040		;;line 49;;  dim _Difficulty_Level = var40
    137  1100
    138  1100				   .L041		;;line 50;;  dim _Ghost_Speed_Mask = var41
    139  1100
    140  1100				   .L042		;;line 51;;  dim _Visit_Length = var42
    141  1100
    142  1100				   .L043		;;line 52;;  dim _Timer_Mask = var43
    143  1100
    144  1100				   .L044		;;line 53;;  dim _Room_Counter = var44
    145  1100
    146  1100				   .L045		;;line 54;;  dim _Flee_Range = var45
    147  1100
    148  1100				   .
    149  1100							;;line 55;;
    150  1100
    151  1100				   .
    152  1100							;;line 56;;
    153  1100
    154  1100				   .
    155  1100							;;line 57;;
    156  1100
    157  1100				   .
    158  1100							;;line 58;;
    159  1100
    160  1100				   .
    161  1100							;;line 59;;
    162  1100
    163  1100				   .
    164  1100							;;line 60;;
    165  1100
    166  1100				   .L046		;;line 61;;  dim _Bit0_Reset_Restrainer = var46
    167  1100
    168  1100				   .L047		;;line 62;;  dim _Bit1_Missile_Flag = var46
    169  1100
    170  1100				   .L048		;;line 63;;  dim _Bit2_Wand_Lock = var46
    171  1100
    172  1100				   .L049		;;line 64;;  dim _Bit3_Stunned_Ghost = var46
    173  1100
    174  1100				   .L050		;;line 65;;  dim _Bit4_Trap_Active = var46
    175  1100
    176  1100				   .L051		;;line 66;;  dim _Bit5_Left_DifficultyB = var46
    177  1100
    178  1100				   .L052		;;line 67;;  dim _Bit6_Right_DifficultyB = var46
    179  1100
    180  1100				   .
    181  1100							;;line 68;;
    182  1100
    183  1100				   .
    184  1100							;;line 69;;
    185  1100
    186  1100				   .
    187  1100							;;line 70;;
    188  1100
    189  1100				   .
    190  1100							;;line 71;;
    191  1100
    192  1100				   .
    193  1100							;;line 72;;
    194  1100
    195  1100				   .
    196  1100							;;line 73;;
    197  1100
    198  1100				   .L053		;;line 74;;  dim _sc1 = score
    199  1100
    200  1100				   .L054		;;line 75;;  dim _sc2 = score + 1
    201  1100
    202  1100				   .L055		;;line 76;;  dim _sc3 = score + 2
    203  1100
    204  1100				   .
    205  1100							;;line 77;;
    206  1100
    207  1100				   .
    208  1100							;;line 78;;
    209  1100
    210  1100				   .
    211  1100							;;line 79;;
    212  1100
    213  1100				   .
    214  1100							;;line 80;;
    215  1100
    216  1100				   .
    217  1100							;;line 81;;
    218  1100
    219  1100				   .L056		;;line 82;;  data _Heat_Bar_Table
    220  1100
    221  1100		       4c 0c 91 	      JMP	.skipL056
    222  1103				   _Heat_Bar_Table
    223  1103		       00 01 03 07*	      .byte.b	%00000000, %00000001, %00000011, %00000111, %00001111, %00011111, %00111111, %01111111, %11111111
    224  110c
    225  110c				   .skipL056
    226  110c				   .
    227  110c							;;line 85;;
    228  110c
    229  110c				   .L057		;;line 86;;  data _Ghost_Damage_Colors
    230  110c
    231  110c		       4c 18 91 	      JMP	.skipL057
    232  110f				   _Ghost_Damage_Colors
    233  110f		       d4 d4 d6 d6*	      .byte.b	$D4, $D4, $D6, $D6, $D8, $DA, $DC, $DE, $0E
    234  1118
    235  1118				   .skipL057
    236  1118				   .
    237  1118							;;line 89;;
    238  1118
    239  1118				   .L058		;;line 90;;  data Playfield_Color_Table
    240  1118
    241  1118		       4c 22 91 	      JMP	.skipL058
    242  111b				   Playfield_Color_Table
    243  111b		       0e f0 42 82*	      .byte.b	$0E, $F0, $42, $82, $C2, $60, $1A
    244  1122
    245  1122				   .skipL058
    246  1122				   .
    247  1122							;;line 93;;
    248  1122
    249  1122				   .
    250  1122							;;line 94;;
    251  1122
    252  1122				   .
    253  1122							;;line 95;;
    254  1122
    255  1122				   .
    256  1122							;;line 96;;
    257  1122
    258  1122				   .
    259  1122							;;line 97;;
    260  1122
    261  1122				   .
    262  1122							;;line 98;;
    263  1122
    264  1122				   .
    265  1122							;;line 99;;
    266  1122
    267  1122				   .
    268  1122							;;line 100;;
    269  1122
    270  1122				   .
    271  1122							;;line 101;;
    272  1122
    273  1122				   .
    274  1122							;;line 102;;
    275  1122
    276  1122				   .
    277  1122							;;line 103;;
    278  1122
    279  1122				   .__Start_Restart
    280  1122							;;line 104;; __Start_Restart
    281  1122
    282  1122				   .
    283  1122							;;line 105;;
    284  1122
    285  1122				   .
    286  1122							;;line 106;;
    287  1122
    288  1122				   .
    289  1122							;;line 107;;
    290  1122
    291  1122				   .
    292  1122							;;line 108;;
    293  1122
    294  1122				   .
    295  1122							;;line 109;;
    296  1122
    297  1122				   .L059		;;line 110;;  b = 0  :  c = 0	:  d = 0  :  e = 0  :  f = 0  :  g = 0	:  h = 0  :  i = 0
    298  1122
    299  1122		       a9 00		      LDA	#0
    300  1124		       85 d5		      STA	b
    301  1126		       85 d6		      STA	c
    302  1128		       85 d7		      STA	d
    303  112a		       85 d8		      STA	e
    304  112c		       85 d9		      STA	f
    305  112e		       85 da		      STA	g
    306  1130		       85 db		      STA	h
    307  1132		       85 dc		      STA	i
    308  1134				   .L060		;;line 111;;  j = 0  :  k = 0	:  l = 0  :  m = 0  :  n = 0  :  o = 0	:  p = 0  :  q = 0
    309  1134
    310  1134		       a9 00		      LDA	#0
    311  1136		       85 dd		      STA	j
    312  1138		       85 de		      STA	k
    313  113a		       85 df		      STA	l
    314  113c		       85 e0		      STA	m
    315  113e		       85 e1		      STA	n
    316  1140		       85 e2		      STA	o
    317  1142		       85 e3		      STA	p
    318  1144		       85 e4		      STA	q
    319  1146				   .L061		;;line 112;;  r = 0  :  s = 0	:  t = 0  :  u = 0  :  v = 0  :  w = 0	:  x = 0  :  y = 0
    320  1146
    321  1146		       a9 00		      LDA	#0
    322  1148		       85 e5		      STA	r
    323  114a		       85 e6		      STA	s
    324  114c		       85 e7		      STA	t
    325  114e		       85 e8		      STA	u
    326  1150		       85 e9		      STA	v
    327  1152		       85 ea		      STA	w
    328  1154		       85 eb		      STA	x
    329  1156		       85 ec		      STA	y
    330  1158				   .L062		;;line 113;;  z = 0
    331  1158
    332  1158		       a9 00		      LDA	#0
    333  115a		       85 ed		      STA	z
    334  115c				   .
    335  115c							;;line 114;;
    336  115c
    337  115c				   .L063		;;line 115;;  var0 = 0  :  var1 = 0  :  var2 = 0  :  var3 = 0	:  var4 = 0  :	var5 = 0
    338  115c
    339  115c		       a9 00		      LDA	#0
    340  115e		       85 a4		      STA	var0
    341  1160		       85 a5		      STA	var1
    342  1162		       85 a6		      STA	var2
    343  1164		       85 a7		      STA	var3
    344  1166		       85 a8		      STA	var4
    345  1168		       85 a9		      STA	var5
    346  116a				   .L064		;;line 116;;  var6 = 0  :  var7 = 0  :  var8 = 0  :  var9 = 0	:  var10 = 0  :  var11 = 0
    347  116a
    348  116a		       a9 00		      LDA	#0
    349  116c		       85 aa		      STA	var6
    350  116e		       85 ab		      STA	var7
    351  1170		       85 ac		      STA	var8
    352  1172		       85 ad		      STA	var9
    353  1174		       85 ae		      STA	var10
    354  1176		       85 af		      STA	var11
    355  1178				   .L065		;;line 117;;  var12 = 0  :  var13 = 0	:  var14 = 0  :  var15 = 0  :  var16 = 0  :  var17 = 0
    356  1178
    357  1178		       a9 00		      LDA	#0
    358  117a		       85 b0		      STA	var12
    359  117c		       85 b1		      STA	var13
    360  117e		       85 b2		      STA	var14
    361  1180		       85 b3		      STA	var15
    362  1182		       85 b4		      STA	var16
    363  1184		       85 b5		      STA	var17
    364  1186				   .L066		;;line 118;;  var18 = 0  :  var19 = 0	:  var20 = 0  :  var21 = 0  :  var22 = 0  :  var23 = 0
    365  1186
    366  1186		       a9 00		      LDA	#0
    367  1188		       85 b6		      STA	var18
    368  118a		       85 b7		      STA	var19
    369  118c		       85 b8		      STA	var20
    370  118e		       85 b9		      STA	var21
    371  1190		       85 ba		      STA	var22
    372  1192		       85 bb		      STA	var23
    373  1194				   .L067		;;line 119;;  var24 = 0  :  var25 = 0	:  var26 = 0  :  var27 = 0  :  var28 = 0  :  var29 = 0
    374  1194
    375  1194		       a9 00		      LDA	#0
    376  1196		       85 bc		      STA	var24
    377  1198		       85 bd		      STA	var25
    378  119a		       85 be		      STA	var26
    379  119c		       85 bf		      STA	var27
    380  119e		       85 c0		      STA	var28
    381  11a0		       85 c1		      STA	var29
    382  11a2				   .L068		;;line 120;;  var30 = 0  :  var31 = 0	:  var32 = 0  :  var33 = 0  :  var34 = 0  :  var35 = 0
    383  11a2
    384  11a2		       a9 00		      LDA	#0
    385  11a4		       85 c2		      STA	var30
    386  11a6		       85 c3		      STA	var31
    387  11a8		       85 c4		      STA	var32
    388  11aa		       85 c5		      STA	var33
    389  11ac		       85 c6		      STA	var34
    390  11ae		       85 c7		      STA	var35
    391  11b0				   .L069		;;line 121;;  var36 = 0  :  var37 = 0	:  var38 = 0  :  var39 = 0  :  var40 = 0  :  var41 = 0
    392  11b0
    393  11b0		       a9 00		      LDA	#0
    394  11b2		       85 c8		      STA	var36
    395  11b4		       85 c9		      STA	var37
    396  11b6		       85 ca		      STA	var38
    397  11b8		       85 cb		      STA	var39
    398  11ba		       85 cc		      STA	var40
    399  11bc		       85 cd		      STA	var41
    400  11be				   .L070		;;line 122;;  var42 = 0  :  var43 = 0	:  var44 = 0  :  var45 = 0  :  var46 = 0  :  var47 = 0
    401  11be
    402  11be		       a9 00		      LDA	#0
    403  11c0		       85 ce		      STA	var42
    404  11c2		       85 cf		      STA	var43
    405  11c4		       85 d0		      STA	var44
    406  11c6		       85 d1		      STA	var45
    407  11c8		       85 d2		      STA	var46
    408  11ca		       85 d3		      STA	var47
    409  11cc				   .
    410  11cc							;;line 123;;
    411  11cc
    412  11cc				   .L071		;;line 124;;  player0y = 0
    413  11cc
    414  11cc		       a9 00		      LDA	#0
    415  11ce		       85 85		      STA	player0y
    416  11d0				   .L072		;;line 125;;  player1y = 0
    417  11d0
    418  11d0		       a9 00		      LDA	#0
    419  11d2		       85 86		      STA	player1y
    420  11d4				   .L073		;;line 126;;  missile0y = 0
    421  11d4
    422  11d4		       a9 00		      LDA	#0
    423  11d6		       85 91		      STA	missile0y
    424  11d8				   .L074		;;line 127;;  bally = 0
    425  11d8
    426  11d8		       a9 00		      LDA	#0
    427  11da		       85 89		      STA	bally
    428  11dc				   .L075		;;line 128;;  score = 0
    429  11dc
    430  11dc		       a9 00		      LDA	#$00
    431  11de		       85 95		      STA	score+2
    432  11e0		       a9 00		      LDA	#$00
    433  11e2		       85 94		      STA	score+1
    434  11e4		       a9 00		      LDA	#$00
    435  11e6		       85 93		      STA	score
    436  11e8				   .
    437  11e8							;;line 129;;
    438  11e8
    439  11e8				   .
    440  11e8							;;line 130;;
    441  11e8
    442  11e8				   .
    443  11e8							;;line 131;;
    444  11e8
    445  11e8				   .
    446  11e8							;;line 132;;
    447  11e8
    448  11e8				   .
    449  11e8							;;line 133;;
    450  11e8
    451  11e8				   .L076		;;line 134;;  const pfscore = 1
    452  11e8
    453  11e8				   .L077		;;line 135;;  AUDV0 = 0  :  AUDV1 = 0
    454  11e8
    455  11e8		       a9 00		      LDA	#0
    456  11ea		       85 19		      STA	AUDV0
    457  11ec		       85 1a		      STA	AUDV1
    458  11ee				   .L078		;;line 136;;  _SFX_Dur = 1
    459  11ee
    460  11ee		       a9 01		      LDA	#1
    461  11f0		       85 c8		      STA	_SFX_Dur
    462  11f2				   .L079		;;line 137;;  _SFX_Index = 0
    463  11f2
    464  11f2		       a9 00		      LDA	#0
    465  11f4		       85 c9		      STA	_SFX_Index
    466  11f6				   .L080		;;line 138;;  _GB_Dur = 1
    467  11f6
    468  11f6		       a9 01		      LDA	#1
    469  11f8		       85 bc		      STA	_GB_Dur
    470  11fa				   .L081		;;line 139;;  _Game_Level = 1
    471  11fa
    472  11fa		       a9 01		      LDA	#1
    473  11fc		       85 ca		      STA	_Game_Level
    474  11fe				   .L082		;;line 140;;  gosub __Level_Change
    475  11fe
    476  11fe		       20 bf 99 	      jsr	.__Level_Change
    477  1201
    478  1201				   .L083		;;line 141;;  pfscore1 = %10101010
    479  1201
    480  1201		       a9 aa		      LDA	#%10101010
    481  1203		       85 f2		      STA	pfscore1
    482  1205				   .L084		;;line 142;;  pfscorecolor = $0E
    483  1205
    484  1205		       a9 0e		      LDA	#$0E
    485  1207		       85 f4		      STA	pfscorecolor
    486  1209				   .L085		;;line 143;;  scorecolor = $0E
    487  1209
    488  1209		       a9 0e		      LDA	#$0E
    489  120b		       85 a3		      STA	scorecolor
    490  120d				   .L086		;;line 144;;  missile0height = 0
    491  120d
    492  120d		       a9 00		      LDA	#0
    493  120f		       85 90		      STA	missile0height
    494  1211				   .L087		;;line 145;;  _frame = 10
    495  1211
    496  1211		       a9 0a		      LDA	#10
    497  1213		       85 bd		      STA	_frame
    498  1215				   .L088		;;line 146;;  goto __Title_Setup bank4
    499  1215
    500  1215		       85 ee		      sta	temp7
    501  1217		       a9 f6		      lda	#>(.__Title_Setup-1)
    502  1219		       48		      pha
    503  121a		       a9 26		      lda	#<(.__Title_Setup-1)
    504  121c		       48		      pha
    505  121d		       a5 ee		      lda	temp7
    506  121f		       48		      pha
    507  1220		       8a		      txa
    508  1221		       48		      pha
    509  1222		       a2 04		      ldx	#4
    510  1224		       4c eb ff 	      jmp	BS_jsr
    511  1227				   .
    512  1227							;;line 147;;
    513  1227
    514  1227				   .__End_Theme
    515  1227							;;line 148;; __End_Theme
    516  1227
    517  1227				   .L089		;;line 149;;  AUDV0 = 0
    518  1227
    519  1227		       a9 00		      LDA	#0
    520  1229		       85 19		      STA	AUDV0
    521  122b				   .L090		;;line 150;;  AUDV1 = 0
    522  122b
    523  122b		       a9 00		      LDA	#0
    524  122d		       85 1a		      STA	AUDV1
    525  122f				   .L091		;;line 151;;  score = 1000
    526  122f
    527  122f		       a9 00		      LDA	#$00
    528  1231		       85 95		      STA	score+2
    529  1233		       a9 10		      LDA	#$10
    530  1235		       85 94		      STA	score+1
    531  1237		       a9 00		      LDA	#$00
    532  1239		       85 93		      STA	score
    533  123b				   .L092		;;line 152;;  pfscorecolor = $D4
    534  123b
    535  123b		       a9 d4		      LDA	#$D4
    536  123d		       85 f4		      STA	pfscorecolor
    537  123f				   .L093		;;line 153;;  scorecolor = $00
    538  123f
    539  123f		       a9 00		      LDA	#$00
    540  1241		       85 a3		      STA	scorecolor
    541  1243				   .
    542  1243							;;line 154;;
    543  1243
    544  1243				   .L094		;;line 155;;  pfheights:
    545  1243
    546  1243		       a9 04		      lda	# 4
    547  1245		       85 ef		      sta	playfieldpos
    548  1247				  -	      ifconst	pfres
    549  1247				  -	      lda	#>(pfcolorlabel18-pfres-9)
    550  1247					      else
    551  1247		       a9 fb		      lda	#>(pfcolorlabel18-21)
    552  1249					      endif
    553  1249		       85 f1		      sta	pfcolortable+1
    554  124b				  -	      ifconst	pfres
    555  124b				  -	      lda	#<(pfcolorlabel18-pfres-9)
    556  124b					      else
    557  124b		       a9 89		      lda	#<(pfcolorlabel18-21)
    558  124d					      endif
    559  124d		       85 f0		      sta	pfcolortable
    560  124f				   .
    561  124f							;;line 168;;
    562  124f
    563  124f				   .L095		;;line 169;;  if switchleftb then _Bit5_Left_DifficultyB{5} = 1 else _Bit5_Left_DifficultyB{5} = 0
    564  124f
    565  124f		       2c 82 02 	      bit	SWCHB
    566  1252		       70 09		      BVS	.skipL095
    567  1254				   .condpart0
    568  1254		       a5 d2		      LDA	_Bit5_Left_DifficultyB
    569  1256		       09 20		      ORA	#32
    570  1258		       85 d2		      STA	_Bit5_Left_DifficultyB
    571  125a		       4c 63 92 	      jmp	.skipelse0
    572  125d				   .skipL095
    573  125d		       a5 d2		      LDA	_Bit5_Left_DifficultyB
    574  125f		       29 df		      AND	#223
    575  1261		       85 d2		      STA	_Bit5_Left_DifficultyB
    576  1263				   .skipelse0
    577  1263				   .L096		;;line 170;;  if switchrightb then _Bit6_Right_DifficultyB{6} = 1 else _Bit6_Right_DifficultyB{6} = 0
    578  1263
    579  1263		       2c 82 02 	      bit	SWCHB
    580  1266		       30 09		      BMI	.skipL096
    581  1268				   .condpart1
    582  1268		       a5 d2		      LDA	_Bit6_Right_DifficultyB
    583  126a		       09 40		      ORA	#64
    584  126c		       85 d2		      STA	_Bit6_Right_DifficultyB
    585  126e		       4c 77 92 	      jmp	.skipelse1
    586  1271				   .skipL096
    587  1271		       a5 d2		      LDA	_Bit6_Right_DifficultyB
    588  1273		       29 bf		      AND	#191
    589  1275		       85 d2		      STA	_Bit6_Right_DifficultyB
    590  1277				   .skipelse1
    591  1277				   .
    592  1277							;;line 171;;
    593  1277
    594  1277				   .L097		;;line 172;;  if _Bit5_Left_DifficultyB{5} then _Difficulty_Level = 2 else _Difficulty_Level = 1
    595  1277
    596  1277		       a5 d2		      LDA	_Bit5_Left_DifficultyB
    597  1279		       29 20		      AND	#32
    598  127b		       f0 07		      BEQ	.skipL097
    599  127d				   .condpart2
    600  127d		       a9 02		      LDA	#2
    601  127f		       85 cc		      STA	_Difficulty_Level
    602  1281		       4c 88 92 	      jmp	.skipelse2
    603  1284				   .skipL097
    604  1284		       a9 01		      LDA	#1
    605  1286		       85 cc		      STA	_Difficulty_Level
    606  1288				   .skipelse2
    607  1288				   .
    608  1288							;;line 173;;
    609  1288
    610  1288				   .
    611  1288							;;line 174;;
    612  1288
    613  1288				   .__Start_Turn
    614  1288							;;line 175;; __Start_Turn
    615  1288
    616  1288				   .L098		;;line 176;;  COLUBK = $02
    617  1288
    618  1288		       a9 02		      LDA	#$02
    619  128a		       85 09		      STA	COLUBK
    620  128c				   .L099		;;line 177;;  _Map_Position_x = 4
    621  128c
    622  128c		       a9 04		      LDA	#4
    623  128e		       85 ab		      STA	_Map_Position_x
    624  1290				   .L0100		;;line 178;;  _Map_Position_y = 9
    625  1290
    626  1290		       a9 09		      LDA	#9
    627  1292		       85 ac		      STA	_Map_Position_y
    628  1294				   .L0101		;;line 179;;  _Buster_Room = 94
    629  1294
    630  1294		       a9 5e		      LDA	#94
    631  1296		       85 a7		      STA	_Buster_Room
    632  1298				   .L0102		;;line 180;;  gosub __Set_Room_Layout bank3
    633  1298
    634  1298		       85 ee		      sta	temp7
    635  129a		       a9 92		      lda	#>(ret_point1-1)
    636  129c		       48		      pha
    637  129d		       a9 af		      lda	#<(ret_point1-1)
    638  129f		       48		      pha
    639  12a0		       a9 d1		      lda	#>(.__Set_Room_Layout-1)
    640  12a2		       48		      pha
    641  12a3		       a9 66		      lda	#<(.__Set_Room_Layout-1)
    642  12a5		       48		      pha
    643  12a6		       a5 ee		      lda	temp7
    644  12a8		       48		      pha
    645  12a9		       8a		      txa
    646  12aa		       48		      pha
    647  12ab		       a2 03		      ldx	#3
    648  12ad		       4c eb ff 	      jmp	BS_jsr
    649  12b0				   ret_point1
    650  12b0				   .L0103		;;line 181;;  player1x = 78
    651  12b0
    652  12b0		       a9 4e		      LDA	#78
    653  12b2		       85 81		      STA	player1x
    654  12b4				   .L0104		;;line 182;;  player1y = 83
    655  12b4
    656  12b4		       a9 53		      LDA	#83
    657  12b6		       85 86		      STA	player1y
    658  12b8				   .L0105		;;line 183;;  _Buster_Direction = 0
    659  12b8
    660  12b8		       a9 00		      LDA	#0
    661  12ba		       85 b1		      STA	_Buster_Direction
    662  12bc				   .L0106		;;line 184;;  _frame = 10
    663  12bc
    664  12bc		       a9 0a		      LDA	#10
    665  12be		       85 bd		      STA	_frame
    666  12c0				   .L0107		;;line 185;;  _Wand_Temperature = 0
    667  12c0
    668  12c0		       a9 00		      LDA	#0
    669  12c2		       85 b6		      STA	_Wand_Temperature
    670  12c4				   .L0108		;;line 186;;  _Bit0_Reset_Restrainer{0} = 1
    671  12c4
    672  12c4		       a5 d2		      LDA	_Bit0_Reset_Restrainer
    673  12c6		       09 01		      ORA	#1
    674  12c8		       85 d2		      STA	_Bit0_Reset_Restrainer
    675  12ca				   .L0109		;;line 187;;  _Bit1_Missile_Flag{1} = 0
    676  12ca
    677  12ca		       a5 d2		      LDA	_Bit1_Missile_Flag
    678  12cc		       29 fd		      AND	#253
    679  12ce		       85 d2		      STA	_Bit1_Missile_Flag
    680  12d0				   .L0110		;;line 188;;  _Bit2_Wand_Lock{2} = 0
    681  12d0
    682  12d0		       a5 d2		      LDA	_Bit2_Wand_Lock
    683  12d2		       29 fb		      AND	#251
    684  12d4		       85 d2		      STA	_Bit2_Wand_Lock
    685  12d6				   .L0111		;;line 189;;  _Bit3_Stunned_Ghost{3} = 0
    686  12d6
    687  12d6		       a5 d2		      LDA	_Bit3_Stunned_Ghost
    688  12d8		       29 f7		      AND	#247
    689  12da		       85 d2		      STA	_Bit3_Stunned_Ghost
    690  12dc				   .L0112		;;line 190;;  _Bit4_Trap_Active{4} = 0
    691  12dc
    692  12dc		       a5 d2		      LDA	_Bit4_Trap_Active
    693  12de		       29 ef		      AND	#239
    694  12e0		       85 d2		      STA	_Bit4_Trap_Active
    695  12e2				   .L0113		;;line 191;;  gosub __Ghost_Sprite bank2
    696  12e2
    697  12e2		       85 ee		      sta	temp7
    698  12e4		       a9 92		      lda	#>(ret_point2-1)
    699  12e6		       48		      pha
    700  12e7		       a9 f9		      lda	#<(ret_point2-1)
    701  12e9		       48		      pha
    702  12ea		       a9 b1		      lda	#>(.__Ghost_Sprite-1)
    703  12ec		       48		      pha
    704  12ed		       a9 7c		      lda	#<(.__Ghost_Sprite-1)
    705  12ef		       48		      pha
    706  12f0		       a5 ee		      lda	temp7
    707  12f2		       48		      pha
    708  12f3		       8a		      txa
    709  12f4		       48		      pha
    710  12f5		       a2 02		      ldx	#2
    711  12f7		       4c eb ff 	      jmp	BS_jsr
    712  12fa				   ret_point2
    713  12fa				   .L0114		;;line 192;;  gosub __Spawn_Ghosts
    714  12fa
    715  12fa		       20 33 9c 	      jsr	.__Spawn_Ghosts
    716  12fd
    717  12fd				   .
    718  12fd							;;line 193;;
    719  12fd
    720  12fd				   .L0115		;;line 194;;  _Ghost1_Room = 84
    721  12fd
    722  12fd		       a9 54		      LDA	#84
    723  12ff		       85 a8		      STA	_Ghost1_Room
    724  1301				   .
    725  1301							;;line 195;;
    726  1301
    727  1301				   .
    728  1301							;;line 196;;
    729  1301
    730  1301				   .L0116		;;line 197;;  _Game_Timer = 0
    731  1301
    732  1301		       a9 00		      LDA	#0
    733  1303		       85 b4		      STA	_Game_Timer
    734  1305				   .L0117		;;line 198;;  player1color:
    735  1305
    736  1305		       a2 a8		      LDX	#<playercolorL0117_1
    737  1307		       86 87		      STX	player1color
    738  1309		       a9 fb		      LDA	#>playercolorL0117_1
    739  130b		       85 88		      STA	player1color+1
    740  130d				   .
    741  130d							;;line 213;;
    742  130d
    743  130d				   .__One_Second_Pause
    744  130d							;;line 214;; __One_Second_Pause
    745  130d
    746  130d				   .L0118		;;line 215;;  _Game_Timer = _Game_Timer  +  1
    747  130d
    748  130d		       e6 b4		      INC	_Game_Timer
    749  130f				   .L0119		;;line 216;;  COLUPF = Playfield_Color_Table[_Game_Level]
    750  130f
    751  130f		       a6 ca		      LDX	_Game_Level
    752  1311		       bd 1b 91 	      LDA	Playfield_Color_Table,x
    753  1314		       85 08		      STA	COLUPF
    754  1316				   .L0120		;;line 217;;  COLUBK = $02
    755  1316
    756  1316		       a9 02		      LDA	#$02
    757  1318		       85 09		      STA	COLUBK
    758  131a				   .L0121		;;line 218;;  drawscreen
    759  131a
    760  131a		       85 ee		      sta	temp7
    761  131c		       a9 93		      lda	#>(ret_point3-1)
    762  131e		       48		      pha
    763  131f		       a9 31		      lda	#<(ret_point3-1)
    764  1321		       48		      pha
    765  1322		       a9 f5		      lda	#>(drawscreen-1)
    766  1324		       48		      pha
    767  1325		       a9 86		      lda	#<(drawscreen-1)
    768  1327		       48		      pha
    769  1328		       a5 ee		      lda	temp7
    770  132a		       48		      pha
    771  132b		       8a		      txa
    772  132c		       48		      pha
    773  132d		       a2 04		      ldx	#4
    774  132f		       4c eb ff 	      jmp	BS_jsr
    775  1332				   ret_point3
    776  1332				   .L0122		;;line 219;;  if _Game_Timer  <  60 then goto __One_Second_Pause
    777  1332
    778  1332		       a5 b4		      LDA	_Game_Timer
    779  1334		       c9 3c		      CMP	#60
    780  1336		       b0 03		      BCS	.skipL0122
    781  1338				   .condpart3
    782  1338		       4c 0d 93 	      jmp	.__One_Second_Pause
    783  133b
    784  133b				   .skipL0122
    785  133b				   .
    786  133b							;;line 220;;
    787  133b
    788  133b				   .
    789  133b							;;line 221;;
    790  133b
    791  133b				   .
    792  133b							;;line 222;;
    793  133b
    794  133b				   .
    795  133b							;;line 223;;
    796  133b
    797  133b				   .
    798  133b							;;line 224;;
    799  133b
    800  133b				   .__Main_Loop
    801  133b							;;line 225;; __Main_Loop
    802  133b
    803  133b				   .L0123		;;line 226;;  _Game_Timer = _Game_Timer  +  1
    804  133b
    805  133b		       e6 b4		      INC	_Game_Timer
    806  133d				   .L0124		;;line 227;;  _Score_Timer = _Score_Timer  -  1
    807  133d
    808  133d		       c6 c4		      DEC	_Score_Timer
    809  133f				   .
    810  133f							;;line 228;;
    811  133f
    812  133f				   .L0125		;;line 229;;  if _Score_Timer	<  1 then scorecolor = $00
    813  133f
    814  133f		       a5 c4		      LDA	_Score_Timer
    815  1341		       c9 01		      CMP	#1
    816  1343		       b0 04		      BCS	.skipL0125
    817  1345				   .condpart4
    818  1345		       a9 00		      LDA	#$00
    819  1347		       85 a3		      STA	scorecolor
    820  1349				   .skipL0125
    821  1349				   .
    822  1349							;;line 230;;
    823  1349
    824  1349				   .L0126		;;line 231;;  if _sc1 = $00  &&  _sc2 = $00  &&  _sc3	<  $01 then goto __Game_Over_Loop
    825  1349
    826  1349		       a5 93		      LDA	_sc1
    827  134b		       c9 00		      CMP	#$00
    828  134d		       d0 0f		      BNE	.skipL0126
    829  134f				   .condpart5
    830  134f		       a5 94		      LDA	_sc2
    831  1351		       c9 00		      CMP	#$00
    832  1353		       d0 09		      BNE	.skip5then
    833  1355				   .condpart6
    834  1355		       a5 95		      LDA	_sc3
    835  1357		       c9 01		      CMP	#$01
    836  1359		       b0 03		      BCS	.skip6then
    837  135b				   .condpart7
    838  135b		       4c bc 9a 	      jmp	.__Game_Over_Loop
    839  135e
    840  135e				   .skip6then
    841  135e				   .skip5then
    842  135e				   .skipL0126
    843  135e				   .
    844  135e							;;line 232;;
    845  135e
    846  135e				   .L0127		;;line 233;;  if _Bit2_Wand_Lock{2} then gosub __Play_Overheat_SFX bank2 else AUDV1 = 0
    847  135e
    848  135e		       a5 d2		      LDA	_Bit2_Wand_Lock
    849  1360		       29 04		      AND	#4
    850  1362		       f0 1b		      BEQ	.skipL0127
    851  1364				   .condpart8
    852  1364		       85 ee		      sta	temp7
    853  1366		       a9 93		      lda	#>(ret_point4-1)
    854  1368		       48		      pha
    855  1369		       a9 7b		      lda	#<(ret_point4-1)
    856  136b		       48		      pha
    857  136c		       a9 b8		      lda	#>(.__Play_Overheat_SFX-1)
    858  136e		       48		      pha
    859  136f		       a9 34		      lda	#<(.__Play_Overheat_SFX-1)
    860  1371		       48		      pha
    861  1372		       a5 ee		      lda	temp7
    862  1374		       48		      pha
    863  1375		       8a		      txa
    864  1376		       48		      pha
    865  1377		       a2 02		      ldx	#2
    866  1379		       4c eb ff 	      jmp	BS_jsr
    867  137c				   ret_point4
    868  137c		       4c 83 93 	      jmp	.skipelse3
    869  137f				   .skipL0127
    870  137f		       a9 00		      LDA	#0
    871  1381		       85 1a		      STA	AUDV1
    872  1383				   .skipelse3
    873  1383				   .
    874  1383							;;line 234;;
    875  1383
    876  1383				   .
    877  1383							;;line 235;;
    878  1383
    879  1383				   .
    880  1383							;;line 236;;
    881  1383
    882  1383				   .
    883  1383							;;line 237;;
    884  1383
    885  1383				   .
    886  1383							;;line 238;;
    887  1383
    888  1383				   .L0128		;;line 239;;  COLUPF = Playfield_Color_Table[_Game_Level]
    889  1383
    890  1383		       a6 ca		      LDX	_Game_Level
    891  1385		       bd 1b 91 	      LDA	Playfield_Color_Table,x
    892  1388		       85 08		      STA	COLUPF
    893  138a				   .L0129		;;line 240;;  COLUBK = $02
    894  138a
    895  138a		       a9 02		      LDA	#$02
    896  138c		       85 09		      STA	COLUBK
    897  138e				   .L0130		;;line 241;;  NUSIZ0 = $30
    898  138e
    899  138e		       a9 30		      LDA	#$30
    900  1390		       85 04		      STA	NUSIZ0
    901  1392				   .L0131		;;line 242;;  gosub __Buster_Sprite bank2
    902  1392
    903  1392		       85 ee		      sta	temp7
    904  1394		       a9 93		      lda	#>(ret_point5-1)
    905  1396		       48		      pha
    906  1397		       a9 a9		      lda	#<(ret_point5-1)
    907  1399		       48		      pha
    908  139a		       a9 b0		      lda	#>(.__Buster_Sprite-1)
    909  139c		       48		      pha
    910  139d		       a9 ff		      lda	#<(.__Buster_Sprite-1)
    911  139f		       48		      pha
    912  13a0		       a5 ee		      lda	temp7
    913  13a2		       48		      pha
    914  13a3		       8a		      txa
    915  13a4		       48		      pha
    916  13a5		       a2 02		      ldx	#2
    917  13a7		       4c eb ff 	      jmp	BS_jsr
    918  13aa				   ret_point5
    919  13aa				   .
    920  13aa							;;line 243;;
    921  13aa
    922  13aa				   .
    923  13aa							;;line 244;;
    924  13aa
    925  13aa				   .
    926  13aa							;;line 245;;
    927  13aa
    928  13aa				   .
    929  13aa							;;line 246;;
    930  13aa
    931  13aa				   .
    932  13aa							;;line 247;;
    933  13aa
    934  13aa				   .L0132		;;line 248;;  _Previous_x = player1x  :  _Previous_y = player1y
    935  13aa
    936  13aa		       a5 81		      LDA	player1x
    937  13ac		       85 ad		      STA	_Previous_x
    938  13ae		       a5 86		      LDA	player1y
    939  13b0		       85 ae		      STA	_Previous_y
    940  13b2				   .
    941  13b2							;;line 249;;
    942  13b2
    943  13b2				   .L0133		;;line 250;;  if !joy0fire then _Bit1_Missile_Flag{1} = 0  :  _Bit3_Stunned_Ghost{3} = 0
    944  13b2
    945  13b2		       24 0c		      bit	INPT4
    946  13b4		       10 0c		      BPL	.skipL0133
    947  13b6				   .condpart9
    948  13b6		       a5 d2		      LDA	_Bit1_Missile_Flag
    949  13b8		       29 fd		      AND	#253
    950  13ba		       85 d2		      STA	_Bit1_Missile_Flag
    951  13bc		       a5 d2		      LDA	_Bit3_Stunned_Ghost
    952  13be		       29 f7		      AND	#247
    953  13c0		       85 d2		      STA	_Bit3_Stunned_Ghost
    954  13c2				   .skipL0133
    955  13c2				   .
    956  13c2							;;line 251;;
    957  13c2
    958  13c2				   .L0134		;;line 252;;  if joy0right  &&  !joy0fire then player1x = player1x  +	1  :  _Buster_Direction = 0  :	_frame = _frame  +  1
    959  13c2
    960  13c2		       2c 80 02 	      bit	SWCHA
    961  13c5		       30 0c		      BMI	.skipL0134
    962  13c7				   .condpart10
    963  13c7		       24 0c		      bit	INPT4
    964  13c9		       10 08		      BPL	.skip10then
    965  13cb				   .condpart11
    966  13cb		       e6 81		      INC	player1x
    967  13cd		       a9 00		      LDA	#0
    968  13cf		       85 b1		      STA	_Buster_Direction
    969  13d1		       e6 bd		      INC	_frame
    970  13d3				   .skip10then
    971  13d3				   .skipL0134
    972  13d3				   .L0135		;;line 253;;  if joy0right  &&  joy0fire then player1x = player1x  +  1  :  _frame = _frame  +  1
    973  13d3
    974  13d3		       2c 80 02 	      bit	SWCHA
    975  13d6		       30 08		      BMI	.skipL0135
    976  13d8				   .condpart12
    977  13d8		       24 0c		      bit	INPT4
    978  13da		       30 04		      BMI	.skip12then
    979  13dc				   .condpart13
    980  13dc		       e6 81		      INC	player1x
    981  13de		       e6 bd		      INC	_frame
    982  13e0				   .skip12then
    983  13e0				   .skipL0135
    984  13e0				   .L0136		;;line 254;;  if joy0left  &&	!joy0fire then player1x = player1x  -  1  :  _Buster_Direction = 8  :  _frame = _frame	+  1
    985  13e0
    986  13e0		       2c 80 02 	      bit	SWCHA
    987  13e3		       70 0c		      BVS	.skipL0136
    988  13e5				   .condpart14
    989  13e5		       24 0c		      bit	INPT4
    990  13e7		       10 08		      BPL	.skip14then
    991  13e9				   .condpart15
    992  13e9		       c6 81		      DEC	player1x
    993  13eb		       a9 08		      LDA	#8
    994  13ed		       85 b1		      STA	_Buster_Direction
    995  13ef		       e6 bd		      INC	_frame
    996  13f1				   .skip14then
    997  13f1				   .skipL0136
    998  13f1				   .L0137		;;line 255;;  if joy0left  &&	joy0fire then player1x = player1x  -  1  :  _frame = v	+  1
    999  13f1
   1000  13f1		       2c 80 02 	      bit	SWCHA
   1001  13f4		       70 0d		      BVS	.skipL0137
   1002  13f6				   .condpart16
   1003  13f6		       24 0c		      bit	INPT4
   1004  13f8		       30 09		      BMI	.skip16then
   1005  13fa				   .condpart17
   1006  13fa		       c6 81		      DEC	player1x
   1007  13fc		       a5 e9		      LDA	v
   1008  13fe		       18		      CLC
   1009  13ff		       69 01		      ADC	#1
   1010  1401		       85 bd		      STA	_frame
   1011  1403				   .skip16then
   1012  1403				   .skipL0137
   1013  1403				   .L0138		;;line 256;;  if joy0up then player1y = player1y  -  1  :  _frame = _frame  +	1
   1014  1403
   1015  1403		       a9 10		      lda	#$10
   1016  1405		       2c 80 02 	      bit	SWCHA
   1017  1408		       d0 04		      BNE	.skipL0138
   1018  140a				   .condpart18
   1019  140a		       c6 86		      DEC	player1y
   1020  140c		       e6 bd		      INC	_frame
   1021  140e				   .skipL0138
   1022  140e				   .L0139		;;line 257;;  if joy0down then player1y = player1y  +	1  :  _frame = _frame  +  1
   1023  140e
   1024  140e		       a9 20		      lda	#$20
   1025  1410		       2c 80 02 	      bit	SWCHA
   1026  1413		       d0 04		      BNE	.skipL0139
   1027  1415				   .condpart19
   1028  1415		       e6 86		      INC	player1y
   1029  1417		       e6 bd		      INC	_frame
   1030  1419				   .skipL0139
   1031  1419				   .
   1032  1419							;;line 258;;
   1033  1419
   1034  1419				   .
   1035  1419							;;line 259;;
   1036  1419
   1037  1419				   .
   1038  1419							;;line 260;;
   1039  1419
   1040  1419				   .
   1041  1419							;;line 261;;
   1042  1419
   1043  1419				   .
   1044  1419							;;line 262;;
   1045  1419
   1046  1419				   .L0140		;;line 263;;  temp1 = _Wand_Temperature  /  8
   1047  1419
   1048  1419		       a5 b6		      LDA	_Wand_Temperature
   1049  141b		       4a		      lsr
   1050  141c		       4a		      lsr
   1051  141d		       4a		      lsr
   1052  141e		       85 9c		      STA	temp1
   1053  1420				   .L0141		;;line 264;;  pfscore2 = _Heat_Bar_Table[temp1]
   1054  1420
   1055  1420		       a6 9c		      LDX	temp1
   1056  1422		       bd 03 91 	      LDA	_Heat_Bar_Table,x
   1057  1425		       85 f3		      STA	pfscore2
   1058  1427				   .
   1059  1427							;;line 265;;
   1060  1427
   1061  1427				   .L0142		;;line 266;;  if joy0fire  &&	!_Bit2_Wand_Lock{2} then gosub __Fire_The_Wand else gosub __Cool_The_Wand
   1062  1427
   1063  1427		       24 0c		      bit	INPT4
   1064  1429		       30 0c		      BMI	.skipL0142
   1065  142b				   .condpart20
   1066  142b		       a5 d2		      LDA	_Bit2_Wand_Lock
   1067  142d		       29 04		      AND	#4
   1068  142f		       d0 06		      BNE	.skip20then
   1069  1431				   .condpart21
   1070  1431		       20 31 97 	      jsr	.__Fire_The_Wand
   1071  1434		       4c 3a 94 	      jmp	.skipelse4
   1072  1437				   .skip20then
   1073  1437				   .skipL0142
   1074  1437		       20 21 98 	      jsr	.__Cool_The_Wand
   1075  143a
   1076  143a				   .skipelse4
   1077  143a				   .
   1078  143a							;;line 267;;
   1079  143a
   1080  143a				   .
   1081  143a							;;line 268;;
   1082  143a
   1083  143a				   .
   1084  143a							;;line 269;;
   1085  143a
   1086  143a				   .
   1087  143a							;;line 270;;
   1088  143a
   1089  143a				   .
   1090  143a							;;line 271;;
   1091  143a
   1092  143a				   .L0143		;;line 272;;  if _Distance_to_Ghost = 0 then gosub __PKE_Chirp bank2
   1093  143a
   1094  143a		       a5 b5		      LDA	_Distance_to_Ghost
   1095  143c		       c9 00		      CMP	#0
   1096  143e		       d0 18		      BNE	.skipL0143
   1097  1440				   .condpart22
   1098  1440		       85 ee		      sta	temp7
   1099  1442		       a9 94		      lda	#>(ret_point6-1)
   1100  1444		       48		      pha
   1101  1445		       a9 57		      lda	#<(ret_point6-1)
   1102  1447		       48		      pha
   1103  1448		       a9 b5		      lda	#>(.__PKE_Chirp-1)
   1104  144a		       48		      pha
   1105  144b		       a9 35		      lda	#<(.__PKE_Chirp-1)
   1106  144d		       48		      pha
   1107  144e		       a5 ee		      lda	temp7
   1108  1450		       48		      pha
   1109  1451		       8a		      txa
   1110  1452		       48		      pha
   1111  1453		       a2 02		      ldx	#2
   1112  1455		       4c eb ff 	      jmp	BS_jsr
   1113  1458				   ret_point6
   1114  1458				   .skipL0143
   1115  1458				   .L0144		;;line 273;;  if _Distance_to_Ghost = 1 then gosub __PKE_Drone bank2
   1116  1458
   1117  1458		       a5 b5		      LDA	_Distance_to_Ghost
   1118  145a		       c9 01		      CMP	#1
   1119  145c		       d0 18		      BNE	.skipL0144
   1120  145e				   .condpart23
   1121  145e		       85 ee		      sta	temp7
   1122  1460		       a9 94		      lda	#>(ret_point7-1)
   1123  1462		       48		      pha
   1124  1463		       a9 75		      lda	#<(ret_point7-1)
   1125  1465		       48		      pha
   1126  1466		       a9 b5		      lda	#>(.__PKE_Drone-1)
   1127  1468		       48		      pha
   1128  1469		       a9 62		      lda	#<(.__PKE_Drone-1)
   1129  146b		       48		      pha
   1130  146c		       a5 ee		      lda	temp7
   1131  146e		       48		      pha
   1132  146f		       8a		      txa
   1133  1470		       48		      pha
   1134  1471		       a2 02		      ldx	#2
   1135  1473		       4c eb ff 	      jmp	BS_jsr
   1136  1476				   ret_point7
   1137  1476				   .skipL0144
   1138  1476				   .L0145		;;line 274;;  if _Distance_to_Ghost = 2 then gosub __PKE_Hum bank2
   1139  1476
   1140  1476		       a5 b5		      LDA	_Distance_to_Ghost
   1141  1478		       c9 02		      CMP	#2
   1142  147a		       d0 18		      BNE	.skipL0145
   1143  147c				   .condpart24
   1144  147c		       85 ee		      sta	temp7
   1145  147e		       a9 94		      lda	#>(ret_point8-1)
   1146  1480		       48		      pha
   1147  1481		       a9 93		      lda	#<(ret_point8-1)
   1148  1483		       48		      pha
   1149  1484		       a9 b5		      lda	#>(.__PKE_Hum-1)
   1150  1486		       48		      pha
   1151  1487		       a9 8f		      lda	#<(.__PKE_Hum-1)
   1152  1489		       48		      pha
   1153  148a		       a5 ee		      lda	temp7
   1154  148c		       48		      pha
   1155  148d		       8a		      txa
   1156  148e		       48		      pha
   1157  148f		       a2 02		      ldx	#2
   1158  1491		       4c eb ff 	      jmp	BS_jsr
   1159  1494				   ret_point8
   1160  1494				   .skipL0145
   1161  1494				   .L0146		;;line 275;;  if _Distance_to_Ghost  >  2 then gosub __PKE_Off bank2
   1162  1494
   1163  1494		       a9 02		      LDA	#2
   1164  1496		       c5 b5		      CMP	_Distance_to_Ghost
   1165  1498		       b0 18		      BCS	.skipL0146
   1166  149a				   .condpart25
   1167  149a		       85 ee		      sta	temp7
   1168  149c		       a9 94		      lda	#>(ret_point9-1)
   1169  149e		       48		      pha
   1170  149f		       a9 b1		      lda	#<(ret_point9-1)
   1171  14a1		       48		      pha
   1172  14a2		       a9 b5		      lda	#>(.__PKE_Off-1)
   1173  14a4		       48		      pha
   1174  14a5		       a9 cd		      lda	#<(.__PKE_Off-1)
   1175  14a7		       48		      pha
   1176  14a8		       a5 ee		      lda	temp7
   1177  14aa		       48		      pha
   1178  14ab		       8a		      txa
   1179  14ac		       48		      pha
   1180  14ad		       a2 02		      ldx	#2
   1181  14af		       4c eb ff 	      jmp	BS_jsr
   1182  14b2				   ret_point9
   1183  14b2				   .skipL0146
   1184  14b2				   .
   1185  14b2							;;line 276;;
   1186  14b2
   1187  14b2				   .
   1188  14b2							;;line 277;;
   1189  14b2
   1190  14b2				   .
   1191  14b2							;;line 278;;
   1192  14b2
   1193  14b2				   .
   1194  14b2							;;line 279;;
   1195  14b2
   1196  14b2				   .
   1197  14b2							;;line 280;;
   1198  14b2
   1199  14b2				   .L0147		;;line 281;;  if _Wand_Temperature  >	64 then _Bit2_Wand_Lock{2} = 1
   1200  14b2
   1201  14b2		       a9 40		      LDA	#64
   1202  14b4		       c5 b6		      CMP	_Wand_Temperature
   1203  14b6		       b0 06		      BCS	.skipL0147
   1204  14b8				   .condpart26
   1205  14b8		       a5 d2		      LDA	_Bit2_Wand_Lock
   1206  14ba		       09 04		      ORA	#4
   1207  14bc		       85 d2		      STA	_Bit2_Wand_Lock
   1208  14be				   .skipL0147
   1209  14be				   .L0148		;;line 282;;  if _Wand_Temperature = 0 then _Bit2_Wand_Lock{2} = 0
   1210  14be
   1211  14be		       a5 b6		      LDA	_Wand_Temperature
   1212  14c0		       c9 00		      CMP	#0
   1213  14c2		       d0 06		      BNE	.skipL0148
   1214  14c4				   .condpart27
   1215  14c4		       a5 d2		      LDA	_Bit2_Wand_Lock
   1216  14c6		       29 fb		      AND	#251
   1217  14c8		       85 d2		      STA	_Bit2_Wand_Lock
   1218  14ca				   .skipL0148
   1219  14ca				   .L0149		;;line 283;;  if _Bit2_Wand_Lock{2} then pfscorecolor = $46
   1220  14ca
   1221  14ca		       a5 d2		      LDA	_Bit2_Wand_Lock
   1222  14cc		       29 04		      AND	#4
   1223  14ce		       f0 04		      BEQ	.skipL0149
   1224  14d0				   .condpart28
   1225  14d0		       a9 46		      LDA	#$46
   1226  14d2		       85 f4		      STA	pfscorecolor
   1227  14d4				   .skipL0149
   1228  14d4				   .L0150		;;line 284;;  if !_Bit2_Wand_Lock{2}  &&  _Wand_Temperature  >  33 then pfscorecolor = $1C
   1229  14d4
   1230  14d4		       a5 d2		      LDA	_Bit2_Wand_Lock
   1231  14d6		       29 04		      AND	#4
   1232  14d8		       d0 0a		      BNE	.skipL0150
   1233  14da				   .condpart29
   1234  14da		       a9 21		      LDA	#33
   1235  14dc		       c5 b6		      CMP	_Wand_Temperature
   1236  14de		       b0 04		      BCS	.skip29then
   1237  14e0				   .condpart30
   1238  14e0		       a9 1c		      LDA	#$1C
   1239  14e2		       85 f4		      STA	pfscorecolor
   1240  14e4				   .skip29then
   1241  14e4				   .skipL0150
   1242  14e4				   .L0151		;;line 285;;  if !_Bit2_Wand_Lock{2}  &&  _Wand_Temperature  <  32 then pfscorecolor = $D4
   1243  14e4
   1244  14e4		       a5 d2		      LDA	_Bit2_Wand_Lock
   1245  14e6		       29 04		      AND	#4
   1246  14e8		       d0 0a		      BNE	.skipL0151
   1247  14ea				   .condpart31
   1248  14ea		       a5 b6		      LDA	_Wand_Temperature
   1249  14ec		       c9 20		      CMP	#32
   1250  14ee		       b0 04		      BCS	.skip31then
   1251  14f0				   .condpart32
   1252  14f0		       a9 d4		      LDA	#$D4
   1253  14f2		       85 f4		      STA	pfscorecolor
   1254  14f4				   .skip31then
   1255  14f4				   .skipL0151
   1256  14f4				   .
   1257  14f4							;;line 286;;
   1258  14f4
   1259  14f4				   .
   1260  14f4							;;line 287;;
   1261  14f4
   1262  14f4				   .
   1263  14f4							;;line 288;;
   1264  14f4
   1265  14f4				   .
   1266  14f4							;;line 289;;
   1267  14f4
   1268  14f4				   .
   1269  14f4							;;line 290;;
   1270  14f4
   1271  14f4				   .L0152		;;line 291;;  gosub __Move_Ghost bank2
   1272  14f4
   1273  14f4		       85 ee		      sta	temp7
   1274  14f6		       a9 95		      lda	#>(ret_point10-1)
   1275  14f8		       48		      pha
   1276  14f9		       a9 0b		      lda	#<(ret_point10-1)
   1277  14fb		       48		      pha
   1278  14fc		       a9 b2		      lda	#>(.__Move_Ghost-1)
   1279  14fe		       48		      pha
   1280  14ff		       a9 76		      lda	#<(.__Move_Ghost-1)
   1281  1501		       48		      pha
   1282  1502		       a5 ee		      lda	temp7
   1283  1504		       48		      pha
   1284  1505		       8a		      txa
   1285  1506		       48		      pha
   1286  1507		       a2 02		      ldx	#2
   1287  1509		       4c eb ff 	      jmp	BS_jsr
   1288  150c				   ret_point10
   1289  150c				   .
   1290  150c							;;line 292;;
   1291  150c
   1292  150c				   .L0153		;;line 293;;  if collision(player1,player0) then goto __Lose_A_Life
   1293  150c
   1294  150c		       24 07		      bit	CXPPMM
   1295  150e		       10 03		      BPL	.skipL0153
   1296  1510				   .condpart33
   1297  1510		       4c 58 9a 	      jmp	.__Lose_A_Life
   1298  1513
   1299  1513				   .skipL0153
   1300  1513				   .
   1301  1513							;;line 294;;
   1302  1513
   1303  1513				   .L0154		;;line 295;;  if !collision(missile0,player0) then goto __Skip_Collision_Logic
   1304  1513
   1305  1513		       24 00		      bit	CXM0P
   1306  1515		       70 03		      BVS	.skipL0154
   1307  1517				   .condpart34
   1308  1517		       4c 35 95 	      jmp	.__Skip_Collision_Logic
   1309  151a
   1310  151a				   .skipL0154
   1311  151a				   .
   1312  151a							;;line 296;;
   1313  151a
   1314  151a				   .L0155		;;line 297;;  _Stun_Timer = 0
   1315  151a
   1316  151a		       a9 00		      LDA	#0
   1317  151c		       85 be		      STA	_Stun_Timer
   1318  151e				   .L0156		;;line 298;;  _Bit1_Missile_Flag{1} = 0
   1319  151e
   1320  151e		       a5 d2		      LDA	_Bit1_Missile_Flag
   1321  1520		       29 fd		      AND	#253
   1322  1522		       85 d2		      STA	_Bit1_Missile_Flag
   1323  1524				   .L0157		;;line 299;;  _Bit3_Stunned_Ghost{3} = 1
   1324  1524
   1325  1524		       a5 d2		      LDA	_Bit3_Stunned_Ghost
   1326  1526		       09 08		      ORA	#8
   1327  1528		       85 d2		      STA	_Bit3_Stunned_Ghost
   1328  152a				   .
   1329  152a							;;line 300;;
   1330  152a
   1331  152a				   .L0158		;;line 301;;  if _Hit_Count  >  31 then goto __Skip_Collision_Logic
   1332  152a
   1333  152a		       a9 1f		      LDA	#31
   1334  152c		       c5 bf		      CMP	_Hit_Count
   1335  152e		       b0 03		      BCS	.skipL0158
   1336  1530				   .condpart35
   1337  1530		       4c 35 95 	      jmp	.__Skip_Collision_Logic
   1338  1533
   1339  1533				   .skipL0158
   1340  1533				   .L0159		;;line 302;;  _Hit_Count = _Hit_Count	+  1
   1341  1533
   1342  1533		       e6 bf		      INC	_Hit_Count
   1343  1535				   .
   1344  1535							;;line 303;;
   1345  1535
   1346  1535				   .__Skip_Collision_Logic
   1347  1535							;;line 304;; __Skip_Collision_Logic
   1348  1535
   1349  1535				   .
   1350  1535							;;line 305;;
   1351  1535
   1352  1535				   .
   1353  1535							;;line 306;;
   1354  1535
   1355  1535				   .
   1356  1535							;;line 307;;
   1357  1535
   1358  1535				   .
   1359  1535							;;line 308;;
   1360  1535
   1361  1535				   .
   1362  1535							;;line 309;;
   1363  1535
   1364  1535				   .L0160		;;line 310;;  _Ghost_Color = _Hit_Count  /  4
   1365  1535
   1366  1535		       a5 bf		      LDA	_Hit_Count
   1367  1537		       4a		      lsr
   1368  1538		       4a		      lsr
   1369  1539		       85 c3		      STA	_Ghost_Color
   1370  153b				   .L0161		;;line 311;;  COLUP0 = _Ghost_Damage_Colors[_Ghost_Color]
   1371  153b
   1372  153b		       a6 c3		      LDX	_Ghost_Color
   1373  153d		       bd 0f 91 	      LDA	_Ghost_Damage_Colors,x
   1374  1540		       85 06		      STA	COLUP0
   1375  1542				   .
   1376  1542							;;line 312;;
   1377  1542
   1378  1542				   .L0162		;;line 313;;  if _Hit_Count  >  31 then gosub __Trap_The_Ghost
   1379  1542
   1380  1542		       a9 1f		      LDA	#31
   1381  1544		       c5 bf		      CMP	_Hit_Count
   1382  1546		       b0 03		      BCS	.skipL0162
   1383  1548				   .condpart36
   1384  1548		       20 53 98 	      jsr	.__Trap_The_Ghost
   1385  154b
   1386  154b				   .skipL0162
   1387  154b				   .L0163		;;line 314;;  gosub __Trap_Logic
   1388  154b
   1389  154b		       20 a8 98 	      jsr	.__Trap_Logic
   1390  154e
   1391  154e				   .
   1392  154e							;;line 315;;
   1393  154e
   1394  154e				   .
   1395  154e							;;line 316;;
   1396  154e
   1397  154e				   .
   1398  154e							;;line 317;;
   1399  154e
   1400  154e				   .
   1401  154e							;;line 318;;
   1402  154e
   1403  154e				   .
   1404  154e							;;line 319;;
   1405  154e
   1406  154e				   .L0164		;;line 320;;  drawscreen
   1407  154e
   1408  154e		       85 ee		      sta	temp7
   1409  1550		       a9 95		      lda	#>(ret_point11-1)
   1410  1552		       48		      pha
   1411  1553		       a9 65		      lda	#<(ret_point11-1)
   1412  1555		       48		      pha
   1413  1556		       a9 f5		      lda	#>(drawscreen-1)
   1414  1558		       48		      pha
   1415  1559		       a9 86		      lda	#<(drawscreen-1)
   1416  155b		       48		      pha
   1417  155c		       a5 ee		      lda	temp7
   1418  155e		       48		      pha
   1419  155f		       8a		      txa
   1420  1560		       48		      pha
   1421  1561		       a2 04		      ldx	#4
   1422  1563		       4c eb ff 	      jmp	BS_jsr
   1423  1566				   ret_point11
   1424  1566				   .
   1425  1566							;;line 321;;
   1426  1566
   1427  1566				   .
   1428  1566							;;line 322;;
   1429  1566
   1430  1566				   .
   1431  1566							;;line 323;;
   1432  1566
   1433  1566				   .
   1434  1566							;;line 324;;
   1435  1566
   1436  1566				   .
   1437  1566							;;line 325;;
   1438  1566
   1439  1566				   .L0165		;;line 326;;  if collision(player1,playfield) then player1x = _Previous_x  :  player1y = _Previous_y
   1440  1566
   1441  1566		       24 03		      bit	CXP1FB
   1442  1568		       10 08		      BPL	.skipL0165
   1443  156a				   .condpart37
   1444  156a		       a5 ad		      LDA	_Previous_x
   1445  156c		       85 81		      STA	player1x
   1446  156e		       a5 ae		      LDA	_Previous_y
   1447  1570		       85 86		      STA	player1y
   1448  1572				   .skipL0165
   1449  1572				   .
   1450  1572							;;line 327;;
   1451  1572
   1452  1572				   .
   1453  1572							;;line 328;;
   1454  1572
   1455  1572				   .L0166		;;line 329;;  if player1x  >  140 then gosub __Move_Right
   1456  1572
   1457  1572		       a9 8c		      LDA	#140
   1458  1574		       c5 81		      CMP	player1x
   1459  1576		       b0 03		      BCS	.skipL0166
   1460  1578				   .condpart38
   1461  1578		       20 b1 95 	      jsr	.__Move_Right
   1462  157b
   1463  157b				   .skipL0166
   1464  157b				   .L0167		;;line 330;;  if player1x  <  15 then gosub __Move_Left
   1465  157b
   1466  157b		       a5 81		      LDA	player1x
   1467  157d		       c9 0f		      CMP	#15
   1468  157f		       b0 03		      BCS	.skipL0167
   1469  1581				   .condpart39
   1470  1581		       20 f2 95 	      jsr	.__Move_Left
   1471  1584
   1472  1584				   .skipL0167
   1473  1584				   .L0168		;;line 331;;  if player1y  <  10 then gosub __Move_Up
   1474  1584
   1475  1584		       a5 86		      LDA	player1y
   1476  1586		       c9 0a		      CMP	#10
   1477  1588		       b0 03		      BCS	.skipL0168
   1478  158a				   .condpart40
   1479  158a		       20 33 96 	      jsr	.__Move_Up
   1480  158d
   1481  158d				   .skipL0168
   1482  158d				   .L0169		;;line 332;;  if player1y  >  90 then gosub __Move_Down
   1483  158d
   1484  158d		       a9 5a		      LDA	#90
   1485  158f		       c5 86		      CMP	player1y
   1486  1591		       b0 03		      BCS	.skipL0169
   1487  1593				   .condpart41
   1488  1593		       20 74 96 	      jsr	.__Move_Down
   1489  1596
   1490  1596				   .skipL0169
   1491  1596				   .
   1492  1596							;;line 333;;
   1493  1596
   1494  1596				   .
   1495  1596							;;line 334;;
   1496  1596
   1497  1596				   .
   1498  1596							;;line 335;;
   1499  1596
   1500  1596				   .
   1501  1596							;;line 336;;
   1502  1596
   1503  1596				   .
   1504  1596							;;line 337;;
   1505  1596
   1506  1596				   .L0170		;;line 338;;  if !switchreset then _Bit0_Reset_Restrainer{0} = 0  :  goto __Main_Loop
   1507  1596
   1508  1596		       a9 01		      lda	#1
   1509  1598		       2c 82 02 	      bit	SWCHB
   1510  159b		       f0 09		      BEQ	.skipL0170
   1511  159d				   .condpart42
   1512  159d		       a5 d2		      LDA	_Bit0_Reset_Restrainer
   1513  159f		       29 fe		      AND	#254
   1514  15a1		       85 d2		      STA	_Bit0_Reset_Restrainer
   1515  15a3		       4c 3b 93 	      jmp	.__Main_Loop
   1516  15a6
   1517  15a6				   .skipL0170
   1518  15a6				   .L0171		;;line 339;;  if _Bit0_Reset_Restrainer{0} then goto __Main_Loop
   1519  15a6
   1520  15a6		       a5 d2		      LDA	_Bit0_Reset_Restrainer
   1521  15a8		       4a		      LSR
   1522  15a9		       90 03		      BCC	.skipL0171
   1523  15ab				   .condpart43
   1524  15ab		       4c 3b 93 	      jmp	.__Main_Loop
   1525  15ae
   1526  15ae				   .skipL0171
   1527  15ae				   .L0172		;;line 340;;  goto __Start_Restart
   1528  15ae
   1529  15ae		       4c 22 91 	      jmp	.__Start_Restart
   1530  15b1
   1531  15b1				   .
   1532  15b1							;;line 341;;
   1533  15b1
   1534  15b1				   .
   1535  15b1							;;line 342;;
   1536  15b1
   1537  15b1				   .
   1538  15b1							;;line 343;;
   1539  15b1
   1540  15b1				   .
   1541  15b1							;;line 344;;
   1542  15b1
   1543  15b1				   .
   1544  15b1							;;line 345;;
   1545  15b1
   1546  15b1				   .__Move_Right
   1547  15b1							;;line 346;; __Move_Right
   1548  15b1
   1549  15b1				   .L0173		;;line 347;;  if _Map_Position_x = 9 then return
   1550  15b1
   1551  15b1		       a5 ab		      LDA	_Map_Position_x
   1552  15b3		       c9 09		      CMP	#9
   1553  15b5		       d0 0d		      BNE	.skipL0173
   1554  15b7				   .condpart44
   1555  15b7		       ba		      tsx
   1556  15b8		       b5 02		      lda	2,x	; check return address
   1557  15ba		       49 95		      eor	#(>*)	; vs. current PCH
   1558  15bc		       29 e0		      and	#$E0	;  mask off all but top 3 bits
   1559  15be		       f0 03		      beq	*+5	; if equal, do normal return
   1560  15c0		       4c dd ff 	      JMP	BS_return
   1561  15c3		       60		      RTS
   1562  15c4				   .skipL0173
   1563  15c4				   .L0174		;;line 348;;  gosub __Transition_Out
   1564  15c4
   1565  15c4		       20 b5 96 	      jsr	.__Transition_Out
   1566  15c7
   1567  15c7				   .L0175		;;line 349;;  _Map_Position_x = _Map_Position_x  +  1
   1568  15c7
   1569  15c7		       e6 ab		      INC	_Map_Position_x
   1570  15c9				   .L0176		;;line 350;;  player1x = 18
   1571  15c9
   1572  15c9		       a9 12		      LDA	#18
   1573  15cb		       85 81		      STA	player1x
   1574  15cd				   .L0177		;;line 351;;  gosub __Set_Room_Layout bank3
   1575  15cd
   1576  15cd		       85 ee		      sta	temp7
   1577  15cf		       a9 95		      lda	#>(ret_point12-1)
   1578  15d1		       48		      pha
   1579  15d2		       a9 e4		      lda	#<(ret_point12-1)
   1580  15d4		       48		      pha
   1581  15d5		       a9 d1		      lda	#>(.__Set_Room_Layout-1)
   1582  15d7		       48		      pha
   1583  15d8		       a9 66		      lda	#<(.__Set_Room_Layout-1)
   1584  15da		       48		      pha
   1585  15db		       a5 ee		      lda	temp7
   1586  15dd		       48		      pha
   1587  15de		       8a		      txa
   1588  15df		       48		      pha
   1589  15e0		       a2 03		      ldx	#3
   1590  15e2		       4c eb ff 	      jmp	BS_jsr
   1591  15e5				   ret_point12
   1592  15e5				   .L0178		;;line 352;;  return
   1593  15e5
   1594  15e5		       ba		      tsx
   1595  15e6		       b5 02		      lda	2,x	; check return address
   1596  15e8		       49 95		      eor	#(>*)	; vs. current PCH
   1597  15ea		       29 e0		      and	#$E0	;  mask off all but top 3 bits
   1598  15ec		       f0 03		      beq	*+5	; if equal, do normal return
   1599  15ee		       4c dd ff 	      JMP	BS_return
   1600  15f1		       60		      RTS
   1601  15f2				   .
   1602  15f2							;;line 353;;
   1603  15f2
   1604  15f2				   .__Move_Left
   1605  15f2							;;line 354;; __Move_Left
   1606  15f2
   1607  15f2				   .L0179		;;line 355;;  if _Map_Position_x = 0 then return
   1608  15f2
   1609  15f2		       a5 ab		      LDA	_Map_Position_x
   1610  15f4		       c9 00		      CMP	#0
   1611  15f6		       d0 0d		      BNE	.skipL0179
   1612  15f8				   .condpart45
   1613  15f8		       ba		      tsx
   1614  15f9		       b5 02		      lda	2,x	; check return address
   1615  15fb		       49 95		      eor	#(>*)	; vs. current PCH
   1616  15fd		       29 e0		      and	#$E0	;  mask off all but top 3 bits
   1617  15ff		       f0 03		      beq	*+5	; if equal, do normal return
   1618  1601		       4c dd ff 	      JMP	BS_return
   1619  1604		       60		      RTS
   1620  1605				   .skipL0179
   1621  1605				   .L0180		;;line 356;;  gosub __Transition_Out
   1622  1605
   1623  1605		       20 b5 96 	      jsr	.__Transition_Out
   1624  1608
   1625  1608				   .L0181		;;line 357;;  _Map_Position_x = _Map_Position_x  -  1
   1626  1608
   1627  1608		       c6 ab		      DEC	_Map_Position_x
   1628  160a				   .L0182		;;line 358;;  player1x = 137
   1629  160a
   1630  160a		       a9 89		      LDA	#137
   1631  160c		       85 81		      STA	player1x
   1632  160e				   .L0183		;;line 359;;  gosub __Set_Room_Layout bank3
   1633  160e
   1634  160e		       85 ee		      sta	temp7
   1635  1610		       a9 96		      lda	#>(ret_point13-1)
   1636  1612		       48		      pha
   1637  1613		       a9 25		      lda	#<(ret_point13-1)
   1638  1615		       48		      pha
   1639  1616		       a9 d1		      lda	#>(.__Set_Room_Layout-1)
   1640  1618		       48		      pha
   1641  1619		       a9 66		      lda	#<(.__Set_Room_Layout-1)
   1642  161b		       48		      pha
   1643  161c		       a5 ee		      lda	temp7
   1644  161e		       48		      pha
   1645  161f		       8a		      txa
   1646  1620		       48		      pha
   1647  1621		       a2 03		      ldx	#3
   1648  1623		       4c eb ff 	      jmp	BS_jsr
   1649  1626				   ret_point13
   1650  1626				   .L0184		;;line 360;;  return
   1651  1626
   1652  1626		       ba		      tsx
   1653  1627		       b5 02		      lda	2,x	; check return address
   1654  1629		       49 96		      eor	#(>*)	; vs. current PCH
   1655  162b		       29 e0		      and	#$E0	;  mask off all but top 3 bits
   1656  162d		       f0 03		      beq	*+5	; if equal, do normal return
   1657  162f		       4c dd ff 	      JMP	BS_return
   1658  1632		       60		      RTS
   1659  1633				   .
   1660  1633							;;line 361;;
   1661  1633
   1662  1633				   .__Move_Up
   1663  1633							;;line 362;; __Move_Up
   1664  1633
   1665  1633				   .L0185		;;line 363;;  if _Map_Position_y = 0 then return
   1666  1633
   1667  1633		       a5 ac		      LDA	_Map_Position_y
   1668  1635		       c9 00		      CMP	#0
   1669  1637		       d0 0d		      BNE	.skipL0185
   1670  1639				   .condpart46
   1671  1639		       ba		      tsx
   1672  163a		       b5 02		      lda	2,x	; check return address
   1673  163c		       49 96		      eor	#(>*)	; vs. current PCH
   1674  163e		       29 e0		      and	#$E0	;  mask off all but top 3 bits
   1675  1640		       f0 03		      beq	*+5	; if equal, do normal return
   1676  1642		       4c dd ff 	      JMP	BS_return
   1677  1645		       60		      RTS
   1678  1646				   .skipL0185
   1679  1646				   .L0186		;;line 364;;  gosub __Transition_Out
   1680  1646
   1681  1646		       20 b5 96 	      jsr	.__Transition_Out
   1682  1649
   1683  1649				   .L0187		;;line 365;;  _Map_Position_y = _Map_Position_y  -  1
   1684  1649
   1685  1649		       c6 ac		      DEC	_Map_Position_y
   1686  164b				   .L0188		;;line 366;;  player1y = 89
   1687  164b
   1688  164b		       a9 59		      LDA	#89
   1689  164d		       85 86		      STA	player1y
   1690  164f				   .L0189		;;line 367;;  gosub __Set_Room_Layout bank3
   1691  164f
   1692  164f		       85 ee		      sta	temp7
   1693  1651		       a9 96		      lda	#>(ret_point14-1)
   1694  1653		       48		      pha
   1695  1654		       a9 66		      lda	#<(ret_point14-1)
   1696  1656		       48		      pha
   1697  1657		       a9 d1		      lda	#>(.__Set_Room_Layout-1)
   1698  1659		       48		      pha
   1699  165a		       a9 66		      lda	#<(.__Set_Room_Layout-1)
   1700  165c		       48		      pha
   1701  165d		       a5 ee		      lda	temp7
   1702  165f		       48		      pha
   1703  1660		       8a		      txa
   1704  1661		       48		      pha
   1705  1662		       a2 03		      ldx	#3
   1706  1664		       4c eb ff 	      jmp	BS_jsr
   1707  1667				   ret_point14
   1708  1667				   .L0190		;;line 368;;  return
   1709  1667
   1710  1667		       ba		      tsx
   1711  1668		       b5 02		      lda	2,x	; check return address
   1712  166a		       49 96		      eor	#(>*)	; vs. current PCH
   1713  166c		       29 e0		      and	#$E0	;  mask off all but top 3 bits
   1714  166e		       f0 03		      beq	*+5	; if equal, do normal return
   1715  1670		       4c dd ff 	      JMP	BS_return
   1716  1673		       60		      RTS
   1717  1674				   .
   1718  1674							;;line 369;;
   1719  1674
   1720  1674				   .__Move_Down
   1721  1674							;;line 370;; __Move_Down
   1722  1674
   1723  1674				   .L0191		;;line 371;;  if _Map_Position_y = 9 then return
   1724  1674
   1725  1674		       a5 ac		      LDA	_Map_Position_y
   1726  1676		       c9 09		      CMP	#9
   1727  1678		       d0 0d		      BNE	.skipL0191
   1728  167a				   .condpart47
   1729  167a		       ba		      tsx
   1730  167b		       b5 02		      lda	2,x	; check return address
   1731  167d		       49 96		      eor	#(>*)	; vs. current PCH
   1732  167f		       29 e0		      and	#$E0	;  mask off all but top 3 bits
   1733  1681		       f0 03		      beq	*+5	; if equal, do normal return
   1734  1683		       4c dd ff 	      JMP	BS_return
   1735  1686		       60		      RTS
   1736  1687				   .skipL0191
   1737  1687				   .L0192		;;line 372;;  gosub __Transition_Out
   1738  1687
   1739  1687		       20 b5 96 	      jsr	.__Transition_Out
   1740  168a
   1741  168a				   .L0193		;;line 373;;  _Map_Position_y = _Map_Position_y  +  1
   1742  168a
   1743  168a		       e6 ac		      INC	_Map_Position_y
   1744  168c				   .L0194		;;line 374;;  player1y = 11
   1745  168c
   1746  168c		       a9 0b		      LDA	#11
   1747  168e		       85 86		      STA	player1y
   1748  1690				   .L0195		;;line 375;;  gosub __Set_Room_Layout bank3
   1749  1690
   1750  1690		       85 ee		      sta	temp7
   1751  1692		       a9 96		      lda	#>(ret_point15-1)
   1752  1694		       48		      pha
   1753  1695		       a9 a7		      lda	#<(ret_point15-1)
   1754  1697		       48		      pha
   1755  1698		       a9 d1		      lda	#>(.__Set_Room_Layout-1)
   1756  169a		       48		      pha
   1757  169b		       a9 66		      lda	#<(.__Set_Room_Layout-1)
   1758  169d		       48		      pha
   1759  169e		       a5 ee		      lda	temp7
   1760  16a0		       48		      pha
   1761  16a1		       8a		      txa
   1762  16a2		       48		      pha
   1763  16a3		       a2 03		      ldx	#3
   1764  16a5		       4c eb ff 	      jmp	BS_jsr
   1765  16a8				   ret_point15
   1766  16a8				   .L0196		;;line 376;;  return
   1767  16a8
   1768  16a8		       ba		      tsx
   1769  16a9		       b5 02		      lda	2,x	; check return address
   1770  16ab		       49 96		      eor	#(>*)	; vs. current PCH
   1771  16ad		       29 e0		      and	#$E0	;  mask off all but top 3 bits
   1772  16af		       f0 03		      beq	*+5	; if equal, do normal return
   1773  16b1		       4c dd ff 	      JMP	BS_return
   1774  16b4		       60		      RTS
   1775  16b5				   .
   1776  16b5							;;line 377;;
   1777  16b5
   1778  16b5				   .__Transition_Out
   1779  16b5							;;line 378;; __Transition_Out
   1780  16b5
   1781  16b5				   .L0197		;;line 379;;  pfclear
   1782  16b5
   1783  16b5		       a9 00		      LDA	#0
   1784  16b7		       85 ee		      sta	temp7
   1785  16b9		       a9 96		      lda	#>(ret_point16-1)
   1786  16bb		       48		      pha
   1787  16bc		       a9 ce		      lda	#<(ret_point16-1)
   1788  16be		       48		      pha
   1789  16bf		       a9 f3		      lda	#>(pfclear-1)
   1790  16c1		       48		      pha
   1791  16c2		       a9 8f		      lda	#<(pfclear-1)
   1792  16c4		       48		      pha
   1793  16c5		       a5 ee		      lda	temp7
   1794  16c7		       48		      pha
   1795  16c8		       8a		      txa
   1796  16c9		       48		      pha
   1797  16ca		       a2 04		      ldx	#4
   1798  16cc		       4c eb ff 	      jmp	BS_jsr
   1799  16cf				   ret_point16
   1800  16cf				   .L0198		;;line 380;;  COLUBK = $02
   1801  16cf
   1802  16cf		       a9 02		      LDA	#$02
   1803  16d1		       85 09		      STA	COLUBK
   1804  16d3				   .L0199		;;line 381;;  player0y = 0
   1805  16d3
   1806  16d3		       a9 00		      LDA	#0
   1807  16d5		       85 85		      STA	player0y
   1808  16d7				   .L0200		;;line 382;;  _Hit_Count = 0
   1809  16d7
   1810  16d7		       a9 00		      LDA	#0
   1811  16d9		       85 bf		      STA	_Hit_Count
   1812  16db				   .L0201		;;line 383;;  _Stun_Timer = 0
   1813  16db
   1814  16db		       a9 00		      LDA	#0
   1815  16dd		       85 be		      STA	_Stun_Timer
   1816  16df				   .L0202		;;line 384;;  if _Buster_Room = _Ghost1_Room then gosub __Spawn_Ghosts
   1817  16df
   1818  16df		       a5 a7		      LDA	_Buster_Room
   1819  16e1		       c5 a8		      CMP	_Ghost1_Room
   1820  16e3		       d0 03		      BNE	.skipL0202
   1821  16e5				   .condpart48
   1822  16e5		       20 33 9c 	      jsr	.__Spawn_Ghosts
   1823  16e8
   1824  16e8				   .skipL0202
   1825  16e8				   .L0203		;;line 385;;  if _Buster_Room = _Ghost2_Room then gosub __Spawn_Ghosts
   1826  16e8
   1827  16e8		       a5 a7		      LDA	_Buster_Room
   1828  16ea		       c5 a9		      CMP	_Ghost2_Room
   1829  16ec		       d0 03		      BNE	.skipL0203
   1830  16ee				   .condpart49
   1831  16ee		       20 33 9c 	      jsr	.__Spawn_Ghosts
   1832  16f1
   1833  16f1				   .skipL0203
   1834  16f1				   .L0204		;;line 386;;  if _Buster_Room = _Ghost3_Room then gosub __Spawn_Ghosts
   1835  16f1
   1836  16f1		       a5 a7		      LDA	_Buster_Room
   1837  16f3		       c5 aa		      CMP	_Ghost3_Room
   1838  16f5		       d0 03		      BNE	.skipL0204
   1839  16f7				   .condpart50
   1840  16f7		       20 33 9c 	      jsr	.__Spawn_Ghosts
   1841  16fa
   1842  16fa				   .skipL0204
   1843  16fa				   .L0205		;;line 387;;  gosub __Reset_Level_Variables
   1844  16fa
   1845  16fa		       20 cf 99 	      jsr	.__Reset_Level_Variables
   1846  16fd
   1847  16fd				   .L0206		;;line 388;;  _Transition_Quick_Count = 4
   1848  16fd
   1849  16fd		       a9 04		      LDA	#4
   1850  16ff		       85 b8		      STA	_Transition_Quick_Count
   1851  1701				   .__Fade_Loop
   1852  1701							;;line 389;; __Fade_Loop
   1853  1701
   1854  1701				   .L0207		;;line 390;;  drawscreen
   1855  1701
   1856  1701		       85 ee		      sta	temp7
   1857  1703		       a9 97		      lda	#>(ret_point17-1)
   1858  1705		       48		      pha
   1859  1706		       a9 18		      lda	#<(ret_point17-1)
   1860  1708		       48		      pha
   1861  1709		       a9 f5		      lda	#>(drawscreen-1)
   1862  170b		       48		      pha
   1863  170c		       a9 86		      lda	#<(drawscreen-1)
   1864  170e		       48		      pha
   1865  170f		       a5 ee		      lda	temp7
   1866  1711		       48		      pha
   1867  1712		       8a		      txa
   1868  1713		       48		      pha
   1869  1714		       a2 04		      ldx	#4
   1870  1716		       4c eb ff 	      jmp	BS_jsr
   1871  1719				   ret_point17
   1872  1719				   .L0208		;;line 391;;  _Transition_Quick_Count = _Transition_Quick_Count  -  1
   1873  1719
   1874  1719		       c6 b8		      DEC	_Transition_Quick_Count
   1875  171b				   .L0209		;;line 392;;  if _Transition_Quick_Count  >  0 then goto __Fade_Loop
   1876  171b
   1877  171b		       a9 00		      LDA	#0
   1878  171d		       c5 b8		      CMP	_Transition_Quick_Count
   1879  171f		       b0 03		      BCS	.skipL0209
   1880  1721				   .condpart51
   1881  1721		       4c 01 97 	      jmp	.__Fade_Loop
   1882  1724
   1883  1724				   .skipL0209
   1884  1724				   .L0210		;;line 393;;  return
   1885  1724
   1886  1724		       ba		      tsx
   1887  1725		       b5 02		      lda	2,x	; check return address
   1888  1727		       49 97		      eor	#(>*)	; vs. current PCH
   1889  1729		       29 e0		      and	#$E0	;  mask off all but top 3 bits
   1890  172b		       f0 03		      beq	*+5	; if equal, do normal return
   1891  172d		       4c dd ff 	      JMP	BS_return
   1892  1730		       60		      RTS
   1893  1731				   .
   1894  1731							;;line 394;;
   1895  1731
   1896  1731				   .
   1897  1731							;;line 395;;
   1898  1731
   1899  1731				   .
   1900  1731							;;line 396;;
   1901  1731
   1902  1731				   .
   1903  1731							;;line 397;;
   1904  1731
   1905  1731				   .
   1906  1731							;;line 398;;
   1907  1731
   1908  1731				   .__Fire_The_Wand
   1909  1731							;;line 399;; __Fire_The_Wand
   1910  1731
   1911  1731				   .L0211		;;line 400;;  _Wand_Temperature_Subpixel = _Wand_Temperature_Subpixel	+  1
   1912  1731
   1913  1731		       e6 b7		      INC	_Wand_Temperature_Subpixel
   1914  1733				   .L0212		;;line 401;;  if _Wand_Temperature_Subpixel  >  3 then _Wand_Temperature_Subpixel = 0	:  _Wand_Temperature = _Wand_Temperature  +  1
   1915  1733
   1916  1733		       a9 03		      LDA	#3
   1917  1735		       c5 b7		      CMP	_Wand_Temperature_Subpixel
   1918  1737		       b0 06		      BCS	.skipL0212
   1919  1739				   .condpart52
   1920  1739		       a9 00		      LDA	#0
   1921  173b		       85 b7		      STA	_Wand_Temperature_Subpixel
   1922  173d		       e6 b6		      INC	_Wand_Temperature
   1923  173f				   .skipL0212
   1924  173f				   .L0213		;;line 402;;  if !_Bit1_Missile_Flag{1} then gosub __Missile_Start
   1925  173f
   1926  173f		       a5 d2		      LDA	_Bit1_Missile_Flag
   1927  1741		       29 02		      AND	#2
   1928  1743		       d0 03		      BNE	.skipL0213
   1929  1745				   .condpart53
   1930  1745		       20 6a 97 	      jsr	.__Missile_Start
   1931  1748
   1932  1748				   .skipL0213
   1933  1748				   .L0214		;;line 403;;  if _Bit1_Missile_Flag{1} then gosub __Missile_Moving
   1934  1748
   1935  1748		       a5 d2		      LDA	_Bit1_Missile_Flag
   1936  174a		       29 02		      AND	#2
   1937  174c		       f0 03		      BEQ	.skipL0214
   1938  174e				   .condpart54
   1939  174e		       20 a2 97 	      jsr	.__Missile_Moving
   1940  1751
   1941  1751				   .skipL0214
   1942  1751				   .L0215		;;line 404;;  AUDV1 = 4  :  AUDF1 = 30  :  AUDC1 = 8
   1943  1751
   1944  1751		       a9 04		      LDA	#4
   1945  1753		       85 1a		      STA	AUDV1
   1946  1755		       a9 1e		      LDA	#30
   1947  1757		       85 18		      STA	AUDF1
   1948  1759		       a9 08		      LDA	#8
   1949  175b		       85 16		      STA	AUDC1
   1950  175d				   .L0216		;;line 405;;  return
   1951  175d
   1952  175d		       ba		      tsx
   1953  175e		       b5 02		      lda	2,x	; check return address
   1954  1760		       49 97		      eor	#(>*)	; vs. current PCH
   1955  1762		       29 e0		      and	#$E0	;  mask off all but top 3 bits
   1956  1764		       f0 03		      beq	*+5	; if equal, do normal return
   1957  1766		       4c dd ff 	      JMP	BS_return
   1958  1769		       60		      RTS
   1959  176a				   .
   1960  176a							;;line 406;;
   1961  176a
   1962  176a				   .__Missile_Start
   1963  176a							;;line 407;; __Missile_Start
   1964  176a
   1965  176a				   .L0217		;;line 408;;  missile0y = player1y  -	5
   1966  176a
   1967  176a		       a5 86		      LDA	player1y
   1968  176c		       38		      SEC
   1969  176d		       e9 05		      SBC	#5
   1970  176f		       85 91		      STA	missile0y
   1971  1771				   .L0218		;;line 409;;  if _Buster_Direction = 0 then missile0x = player1x  +  4
   1972  1771
   1973  1771		       a5 b1		      LDA	_Buster_Direction
   1974  1773		       c9 00		      CMP	#0
   1975  1775		       d0 07		      BNE	.skipL0218
   1976  1777				   .condpart55
   1977  1777		       a5 81		      LDA	player1x
   1978  1779		       18		      CLC
   1979  177a		       69 04		      ADC	#4
   1980  177c		       85 82		      STA	missile0x
   1981  177e				   .skipL0218
   1982  177e				   .L0219		;;line 410;;  if _Buster_Direction = 8 then missile0x = player1x  -  4
   1983  177e
   1984  177e		       a5 b1		      LDA	_Buster_Direction
   1985  1780		       c9 08		      CMP	#8
   1986  1782		       d0 07		      BNE	.skipL0219
   1987  1784				   .condpart56
   1988  1784		       a5 81		      LDA	player1x
   1989  1786		       38		      SEC
   1990  1787		       e9 04		      SBC	#4
   1991  1789		       85 82		      STA	missile0x
   1992  178b				   .skipL0219
   1993  178b				   .L0220		;;line 411;;  _Bit1_Missile_Flag{1} = 1
   1994  178b
   1995  178b		       a5 d2		      LDA	_Bit1_Missile_Flag
   1996  178d		       09 02		      ORA	#2
   1997  178f		       85 d2		      STA	_Bit1_Missile_Flag
   1998  1791				   .L0221		;;line 412;;  _Stream_Counter = 0
   1999  1791
   2000  1791		       a9 00		      LDA	#0
   2001  1793		       85 c2		      STA	_Stream_Counter
   2002  1795				   .L0222		;;line 413;;  return
   2003  1795
   2004  1795		       ba		      tsx
   2005  1796		       b5 02		      lda	2,x	; check return address
   2006  1798		       49 97		      eor	#(>*)	; vs. current PCH
   2007  179a		       29 e0		      and	#$E0	;  mask off all but top 3 bits
   2008  179c		       f0 03		      beq	*+5	; if equal, do normal return
   2009  179e		       4c dd ff 	      JMP	BS_return
   2010  17a1		       60		      RTS
   2011  17a2				   .
   2012  17a2							;;line 414;;
   2013  17a2
   2014  17a2				   .__Missile_Moving
   2015  17a2							;;line 415;; __Missile_Moving
   2016  17a2
   2017  17a2				   .L0223		;;line 416;;  _Stream_Counter = _Stream_Counter  +  1
   2018  17a2
   2019  17a2		       e6 c2		      INC	_Stream_Counter
   2020  17a4				   .L0224		;;line 417;;  _Previous_Missile_x = missile0x
   2021  17a4
   2022  17a4		       a5 82		      LDA	missile0x
   2023  17a6		       85 c1		      STA	_Previous_Missile_x
   2024  17a8				   .L0225		;;line 418;;  if _Buster_Direction = 0 then missile0x = missile0x  +  8
   2025  17a8
   2026  17a8		       a5 b1		      LDA	_Buster_Direction
   2027  17aa		       c9 00		      CMP	#0
   2028  17ac		       d0 07		      BNE	.skipL0225
   2029  17ae				   .condpart57
   2030  17ae		       a5 82		      LDA	missile0x
   2031  17b0		       18		      CLC
   2032  17b1		       69 08		      ADC	#8
   2033  17b3		       85 82		      STA	missile0x
   2034  17b5				   .skipL0225
   2035  17b5				   .L0226		;;line 419;;  if _Buster_Direction = 8 then missile0x = missile0x  -  8
   2036  17b5
   2037  17b5		       a5 b1		      LDA	_Buster_Direction
   2038  17b7		       c9 08		      CMP	#8
   2039  17b9		       d0 07		      BNE	.skipL0226
   2040  17bb				   .condpart58
   2041  17bb		       a5 82		      LDA	missile0x
   2042  17bd		       38		      SEC
   2043  17be		       e9 08		      SBC	#8
   2044  17c0		       85 82		      STA	missile0x
   2045  17c2				   .skipL0226
   2046  17c2				   .L0227		;;line 420;;  if collision(missile0,playfield) then _Bit1_Missile_Flag{1} = 0	:  missile0x = _Previous_Missile_x  :  score = score  -  100  :  scorecolor = $42  :  _Score_Timer = 60
   2047  17c2
   2048  17c2		       24 04		      bit	CXM0FB
   2049  17c4		       10 27		      BPL	.skipL0227
   2050  17c6				   .condpart59
   2051  17c6		       a5 d2		      LDA	_Bit1_Missile_Flag
   2052  17c8		       29 fd		      AND	#253
   2053  17ca		       85 d2		      STA	_Bit1_Missile_Flag
   2054  17cc		       a5 c1		      LDA	_Previous_Missile_x
   2055  17ce		       85 82		      STA	missile0x
   2056  17d0		       f8		      SED
   2057  17d1		       38		      SEC
   2058  17d2		       a5 95		      LDA	score+2
   2059  17d4		       e9 00		      SBC	#$00
   2060  17d6		       85 95		      STA	score+2
   2061  17d8		       a5 94		      LDA	score+1
   2062  17da		       e9 01		      SBC	#$01
   2063  17dc		       85 94		      STA	score+1
   2064  17de		       a5 93		      LDA	score
   2065  17e0		       e9 00		      SBC	#$00
   2066  17e2		       85 93		      STA	score
   2067  17e4		       d8		      CLD
   2068  17e5		       a9 42		      LDA	#$42
   2069  17e7		       85 a3		      STA	scorecolor
   2070  17e9		       a9 3c		      LDA	#60
   2071  17eb		       85 c4		      STA	_Score_Timer
   2072  17ed				   .skipL0227
   2073  17ed				   .L0228		;;line 421;;  if  ( _Stream_Counter  &  1 )  = 0 then missile0y = missile0y  +  1 else missile0y = missile0y  -  1
   2074  17ed
   2075  17ed							; complex condition detected
   2076  17ed							; complex statement detected
   2077  17ed		       a5 c2		      LDA	_Stream_Counter
   2078  17ef		       29 01		      AND	#1
   2079  17f1		       c9 00		      CMP	#0
   2080  17f3		       d0 05		      BNE	.skipL0228
   2081  17f5				   .condpart60
   2082  17f5		       e6 91		      INC	missile0y
   2083  17f7		       4c fc 97 	      jmp	.skipelse5
   2084  17fa				   .skipL0228
   2085  17fa		       c6 91		      DEC	missile0y
   2086  17fc				   .skipelse5
   2087  17fc				   .L0229		;;line 422;;  if missile0x  <	15 then _Bit1_Missile_Flag{1} = 0
   2088  17fc
   2089  17fc		       a5 82		      LDA	missile0x
   2090  17fe		       c9 0f		      CMP	#15
   2091  1800		       b0 06		      BCS	.skipL0229
   2092  1802				   .condpart61
   2093  1802		       a5 d2		      LDA	_Bit1_Missile_Flag
   2094  1804		       29 fd		      AND	#253
   2095  1806		       85 d2		      STA	_Bit1_Missile_Flag
   2096  1808				   .skipL0229
   2097  1808				   .L0230		;;line 423;;  if missile0x  >	140 then _Bit1_Missile_Flag{1} = 0
   2098  1808
   2099  1808		       a9 8c		      LDA	#140
   2100  180a		       c5 82		      CMP	missile0x
   2101  180c		       b0 06		      BCS	.skipL0230
   2102  180e				   .condpart62
   2103  180e		       a5 d2		      LDA	_Bit1_Missile_Flag
   2104  1810		       29 fd		      AND	#253
   2105  1812		       85 d2		      STA	_Bit1_Missile_Flag
   2106  1814				   .skipL0230
   2107  1814				   .L0231		;;line 424;;  return
   2108  1814
   2109  1814		       ba		      tsx
   2110  1815		       b5 02		      lda	2,x	; check return address
   2111  1817		       49 98		      eor	#(>*)	; vs. current PCH
   2112  1819		       29 e0		      and	#$E0	;  mask off all but top 3 bits
   2113  181b		       f0 03		      beq	*+5	; if equal, do normal return
   2114  181d		       4c dd ff 	      JMP	BS_return
   2115  1820		       60		      RTS
   2116  1821				   .
   2117  1821							;;line 425;;
   2118  1821
   2119  1821				   .__Cool_The_Wand
   2120  1821							;;line 426;; __Cool_The_Wand
   2121  1821
   2122  1821				   .L0232		;;line 427;;  missile0y = 0
   2123  1821
   2124  1821		       a9 00		      LDA	#0
   2125  1823		       85 91		      STA	missile0y
   2126  1825				   .L0233		;;line 428;;  if _Wand_Temperature = 0 then return
   2127  1825
   2128  1825		       a5 b6		      LDA	_Wand_Temperature
   2129  1827		       c9 00		      CMP	#0
   2130  1829		       d0 0d		      BNE	.skipL0233
   2131  182b				   .condpart63
   2132  182b		       ba		      tsx
   2133  182c		       b5 02		      lda	2,x	; check return address
   2134  182e		       49 98		      eor	#(>*)	; vs. current PCH
   2135  1830		       29 e0		      and	#$E0	;  mask off all but top 3 bits
   2136  1832		       f0 03		      beq	*+5	; if equal, do normal return
   2137  1834		       4c dd ff 	      JMP	BS_return
   2138  1837		       60		      RTS
   2139  1838				   .skipL0233
   2140  1838				   .L0234		;;line 429;;  if _Wand_Temperature_Subpixel = 0 then _Wand_Temperature_Subpixel = 5  :  _Wand_Temperature = _Wand_Temperature	-  1
   2141  1838
   2142  1838		       a5 b7		      LDA	_Wand_Temperature_Subpixel
   2143  183a		       c9 00		      CMP	#0
   2144  183c		       d0 06		      BNE	.skipL0234
   2145  183e				   .condpart64
   2146  183e		       a9 05		      LDA	#5
   2147  1840		       85 b7		      STA	_Wand_Temperature_Subpixel
   2148  1842		       c6 b6		      DEC	_Wand_Temperature
   2149  1844				   .skipL0234
   2150  1844				   .L0235		;;line 430;;  _Wand_Temperature_Subpixel = _Wand_Temperature_Subpixel	-  1
   2151  1844
   2152  1844		       c6 b7		      DEC	_Wand_Temperature_Subpixel
   2153  1846				   .L0236		;;line 431;;  return
   2154  1846
   2155  1846		       ba		      tsx
   2156  1847		       b5 02		      lda	2,x	; check return address
   2157  1849		       49 98		      eor	#(>*)	; vs. current PCH
   2158  184b		       29 e0		      and	#$E0	;  mask off all but top 3 bits
   2159  184d		       f0 03		      beq	*+5	; if equal, do normal return
   2160  184f		       4c dd ff 	      JMP	BS_return
   2161  1852		       60		      RTS
   2162  1853				   .
   2163  1853							;;line 432;;
   2164  1853
   2165  1853				   .
   2166  1853							;;line 433;;
   2167  1853
   2168  1853				   .
   2169  1853							;;line 434;;
   2170  1853
   2171  1853				   .
   2172  1853							;;line 435;;
   2173  1853
   2174  1853				   .
   2175  1853							;;line 436;;
   2176  1853
   2177  1853				   .__Trap_The_Ghost
   2178  1853							;;line 437;; __Trap_The_Ghost
   2179  1853
   2180  1853				   .L0237		;;line 438;;  _Bit3_Stunned_Ghost{3} = 1
   2181  1853
   2182  1853		       a5 d2		      LDA	_Bit3_Stunned_Ghost
   2183  1855		       09 08		      ORA	#8
   2184  1857		       85 d2		      STA	_Bit3_Stunned_Ghost
   2185  1859				   .L0238		;;line 439;;  if _Bit4_Trap_Active{4} then return
   2186  1859
   2187  1859		       a5 d2		      LDA	_Bit4_Trap_Active
   2188  185b		       29 10		      AND	#16
   2189  185d		       f0 0d		      BEQ	.skipL0238
   2190  185f				   .condpart65
   2191  185f		       ba		      tsx
   2192  1860		       b5 02		      lda	2,x	; check return address
   2193  1862		       49 98		      eor	#(>*)	; vs. current PCH
   2194  1864		       29 e0		      and	#$E0	;  mask off all but top 3 bits
   2195  1866		       f0 03		      beq	*+5	; if equal, do normal return
   2196  1868		       4c dd ff 	      JMP	BS_return
   2197  186b		       60		      RTS
   2198  186c				   .skipL0238
   2199  186c				   .
   2200  186c							;;line 440;;
   2201  186c
   2202  186c				   .L0239		;;line 441;;  CTRLPF = $31
   2203  186c
   2204  186c		       a9 31		      LDA	#$31
   2205  186e		       85 0a		      STA	CTRLPF
   2206  1870				   .L0240		;;line 442;;  ballheight = 2
   2207  1870
   2208  1870		       a9 02		      LDA	#2
   2209  1872		       85 92		      STA	ballheight
   2210  1874				   .
   2211  1874							;;line 443;;
   2212  1874
   2213  1874				   .L0241		;;line 444;;  if _Buster_Direction = 0 then ballx = player1x  +  4
   2214  1874
   2215  1874		       a5 b1		      LDA	_Buster_Direction
   2216  1876		       c9 00		      CMP	#0
   2217  1878		       d0 07		      BNE	.skipL0241
   2218  187a				   .condpart66
   2219  187a		       a5 81		      LDA	player1x
   2220  187c		       18		      CLC
   2221  187d		       69 04		      ADC	#4
   2222  187f		       85 84		      STA	ballx
   2223  1881				   .skipL0241
   2224  1881				   .L0242		;;line 445;;  if _Buster_Direction = 8 then ballx = player1x  -  4
   2225  1881
   2226  1881		       a5 b1		      LDA	_Buster_Direction
   2227  1883		       c9 08		      CMP	#8
   2228  1885		       d0 07		      BNE	.skipL0242
   2229  1887				   .condpart67
   2230  1887		       a5 81		      LDA	player1x
   2231  1889		       38		      SEC
   2232  188a		       e9 04		      SBC	#4
   2233  188c		       85 84		      STA	ballx
   2234  188e				   .skipL0242
   2235  188e				   .L0243		;;line 446;;  bally = player1y  +  2
   2236  188e
   2237  188e		       a5 86		      LDA	player1y
   2238  1890		       18		      CLC
   2239  1891		       69 02		      ADC	#2
   2240  1893		       85 89		      STA	bally
   2241  1895				   .
   2242  1895							;;line 447;;
   2243  1895
   2244  1895				   .L0244		;;line 448;;  _Bit4_Trap_Active{4} = 1
   2245  1895
   2246  1895		       a5 d2		      LDA	_Bit4_Trap_Active
   2247  1897		       09 10		      ORA	#16
   2248  1899		       85 d2		      STA	_Bit4_Trap_Active
   2249  189b				   .
   2250  189b							;;line 449;;
   2251  189b
   2252  189b				   .L0245		;;line 450;;  return
   2253  189b
   2254  189b		       ba		      tsx
   2255  189c		       b5 02		      lda	2,x	; check return address
   2256  189e		       49 98		      eor	#(>*)	; vs. current PCH
   2257  18a0		       29 e0		      and	#$E0	;  mask off all but top 3 bits
   2258  18a2		       f0 03		      beq	*+5	; if equal, do normal return
   2259  18a4		       4c dd ff 	      JMP	BS_return
   2260  18a7		       60		      RTS
   2261  18a8				   .
   2262  18a8							;;line 451;;
   2263  18a8
   2264  18a8				   .__Trap_Logic
   2265  18a8							;;line 452;; __Trap_Logic
   2266  18a8
   2267  18a8				   .L0246		;;line 453;;  if !_Bit4_Trap_Active{4} then return
   2268  18a8
   2269  18a8		       a5 d2		      LDA	_Bit4_Trap_Active
   2270  18aa		       29 10		      AND	#16
   2271  18ac		       d0 0d		      BNE	.skipL0246
   2272  18ae				   .condpart68
   2273  18ae		       ba		      tsx
   2274  18af		       b5 02		      lda	2,x	; check return address
   2275  18b1		       49 98		      eor	#(>*)	; vs. current PCH
   2276  18b3		       29 e0		      and	#$E0	;  mask off all but top 3 bits
   2277  18b5		       f0 03		      beq	*+5	; if equal, do normal return
   2278  18b7		       4c dd ff 	      JMP	BS_return
   2279  18ba		       60		      RTS
   2280  18bb				   .skipL0246
   2281  18bb				   .
   2282  18bb							;;line 454;;
   2283  18bb
   2284  18bb				   .L0247		;;line 455;;  if ballx  <  player0x then ballx = ballx  +  1
   2285  18bb
   2286  18bb		       a5 84		      LDA	ballx
   2287  18bd		       c5 80		      CMP	player0x
   2288  18bf		       b0 02		      BCS	.skipL0247
   2289  18c1				   .condpart69
   2290  18c1		       e6 84		      INC	ballx
   2291  18c3				   .skipL0247
   2292  18c3				   .L0248		;;line 456;;  if ballx  >  player0x then ballx = ballx  -  1
   2293  18c3
   2294  18c3		       a5 80		      LDA	player0x
   2295  18c5		       c5 84		      CMP	ballx
   2296  18c7		       b0 02		      BCS	.skipL0248
   2297  18c9				   .condpart70
   2298  18c9		       c6 84		      DEC	ballx
   2299  18cb				   .skipL0248
   2300  18cb				   .L0249		;;line 457;;  if bally  <  player0y then bally = bally  +  1
   2301  18cb
   2302  18cb		       a5 89		      LDA	bally
   2303  18cd		       c5 85		      CMP	player0y
   2304  18cf		       b0 02		      BCS	.skipL0249
   2305  18d1				   .condpart71
   2306  18d1		       e6 89		      INC	bally
   2307  18d3				   .skipL0249
   2308  18d3				   .L0250		;;line 458;;  if bally  >  player0y then bally = bally  -  1
   2309  18d3
   2310  18d3		       a5 85		      LDA	player0y
   2311  18d5		       c5 89		      CMP	bally
   2312  18d7		       b0 02		      BCS	.skipL0250
   2313  18d9				   .condpart72
   2314  18d9		       c6 89		      DEC	bally
   2315  18db				   .skipL0250
   2316  18db				   .
   2317  18db							;;line 459;;
   2318  18db
   2319  18db				   .L0251		;;line 460;;  if collision(ball,player0) then gosub __Ghost_Caught
   2320  18db
   2321  18db		       24 02		      bit	CXP0FB
   2322  18dd		       50 03		      BVC	.skipL0251
   2323  18df				   .condpart73
   2324  18df		       20 ef 98 	      jsr	.__Ghost_Caught
   2325  18e2
   2326  18e2				   .skipL0251
   2327  18e2				   .L0252		;;line 461;;  return
   2328  18e2
   2329  18e2		       ba		      tsx
   2330  18e3		       b5 02		      lda	2,x	; check return address
   2331  18e5		       49 98		      eor	#(>*)	; vs. current PCH
   2332  18e7		       29 e0		      and	#$E0	;  mask off all but top 3 bits
   2333  18e9		       f0 03		      beq	*+5	; if equal, do normal return
   2334  18eb		       4c dd ff 	      JMP	BS_return
   2335  18ee		       60		      RTS
   2336  18ef				   .
   2337  18ef							;;line 462;;
   2338  18ef
   2339  18ef				   .
   2340  18ef							;;line 463;;
   2341  18ef
   2342  18ef				   .
   2343  18ef							;;line 464;;
   2344  18ef
   2345  18ef				   .
   2346  18ef							;;line 465;;
   2347  18ef
   2348  18ef				   .
   2349  18ef							;;line 466;;
   2350  18ef
   2351  18ef				   .__Ghost_Caught
   2352  18ef							;;line 467;; __Ghost_Caught
   2353  18ef
   2354  18ef				   .L0253		;;line 468;;  _Ghosts_Caught = _Ghosts_Caught	+  1
   2355  18ef
   2356  18ef		       e6 cb		      INC	_Ghosts_Caught
   2357  18f1				   .L0254		;;line 469;;  if _Ghosts_Caught  >  _Difficulty_Level then gosub __Level_Change
   2358  18f1
   2359  18f1		       a5 cc		      LDA	_Difficulty_Level
   2360  18f3		       c5 cb		      CMP	_Ghosts_Caught
   2361  18f5		       b0 03		      BCS	.skipL0254
   2362  18f7				   .condpart74
   2363  18f7		       20 bf 99 	      jsr	.__Level_Change
   2364  18fa
   2365  18fa				   .skipL0254
   2366  18fa				   .L0255		;;line 470;;  _Ghost1_Room = 100
   2367  18fa
   2368  18fa		       a9 64		      LDA	#100
   2369  18fc		       85 a8		      STA	_Ghost1_Room
   2370  18fe				   .L0256		;;line 471;;  _Ghost2_Room = 100
   2371  18fe
   2372  18fe		       a9 64		      LDA	#100
   2373  1900		       85 a9		      STA	_Ghost2_Room
   2374  1902				   .L0257		;;line 472;;  _Ghost3_Room = 100
   2375  1902
   2376  1902		       a9 64		      LDA	#100
   2377  1904		       85 aa		      STA	_Ghost3_Room
   2378  1906				   .L0258		;;line 473;;  missile0y = 0
   2379  1906
   2380  1906		       a9 00		      LDA	#0
   2381  1908		       85 91		      STA	missile0y
   2382  190a				   .L0259		;;line 474;;  AUDV0 = 0  :  AUDV1 = 0
   2383  190a
   2384  190a		       a9 00		      LDA	#0
   2385  190c		       85 19		      STA	AUDV0
   2386  190e		       85 1a		      STA	AUDV1
   2387  1910				   .L0260		;;line 475;;  _Transition_Quick_Count = 60
   2388  1910
   2389  1910		       a9 3c		      LDA	#60
   2390  1912		       85 b8		      STA	_Transition_Quick_Count
   2391  1914				   .L0261		;;line 476;;  COLUBK = $0E
   2392  1914
   2393  1914		       a9 0e		      LDA	#$0E
   2394  1916		       85 09		      STA	COLUBK
   2395  1918				   .L0262		;;line 477;;  COLUPF = Playfield_Color_Table[_Game_Level]
   2396  1918
   2397  1918		       a6 ca		      LDX	_Game_Level
   2398  191a		       bd 1b 91 	      LDA	Playfield_Color_Table,x
   2399  191d		       85 08		      STA	COLUPF
   2400  191f				   .L0263		;;line 478;;  _SFX_Dur = 1
   2401  191f
   2402  191f		       a9 01		      LDA	#1
   2403  1921		       85 c8		      STA	_SFX_Dur
   2404  1923				   .L0264		;;line 479;;  _SFX_Index = 0
   2405  1923
   2406  1923		       a9 00		      LDA	#0
   2407  1925		       85 c9		      STA	_SFX_Index
   2408  1927				   .L0265		;;line 480;;  gosub __Add_Points bank2
   2409  1927
   2410  1927		       85 ee		      sta	temp7
   2411  1929		       a9 99		      lda	#>(ret_point18-1)
   2412  192b		       48		      pha
   2413  192c		       a9 3e		      lda	#<(ret_point18-1)
   2414  192e		       48		      pha
   2415  192f		       a9 b1		      lda	#>(.__Add_Points-1)
   2416  1931		       48		      pha
   2417  1932		       a9 95		      lda	#<(.__Add_Points-1)
   2418  1934		       48		      pha
   2419  1935		       a5 ee		      lda	temp7
   2420  1937		       48		      pha
   2421  1938		       8a		      txa
   2422  1939		       48		      pha
   2423  193a		       a2 02		      ldx	#2
   2424  193c		       4c eb ff 	      jmp	BS_jsr
   2425  193f				   ret_point18
   2426  193f				   .
   2427  193f							;;line 481;;
   2428  193f
   2429  193f				   .__Trap_Loop
   2430  193f							;;line 482;; __Trap_Loop
   2431  193f
   2432  193f				   .L0266		;;line 483;;  gosub __Play_Trap_SFX bank2
   2433  193f
   2434  193f		       85 ee		      sta	temp7
   2435  1941		       a9 99		      lda	#>(ret_point19-1)
   2436  1943		       48		      pha
   2437  1944		       a9 56		      lda	#<(ret_point19-1)
   2438  1946		       48		      pha
   2439  1947		       a9 b7		      lda	#>(.__Play_Trap_SFX-1)
   2440  1949		       48		      pha
   2441  194a		       a9 c5		      lda	#<(.__Play_Trap_SFX-1)
   2442  194c		       48		      pha
   2443  194d		       a5 ee		      lda	temp7
   2444  194f		       48		      pha
   2445  1950		       8a		      txa
   2446  1951		       48		      pha
   2447  1952		       a2 02		      ldx	#2
   2448  1954		       4c eb ff 	      jmp	BS_jsr
   2449  1957				   ret_point19
   2450  1957				   .L0267		;;line 484;;  drawscreen
   2451  1957
   2452  1957		       85 ee		      sta	temp7
   2453  1959		       a9 99		      lda	#>(ret_point20-1)
   2454  195b		       48		      pha
   2455  195c		       a9 6e		      lda	#<(ret_point20-1)
   2456  195e		       48		      pha
   2457  195f		       a9 f5		      lda	#>(drawscreen-1)
   2458  1961		       48		      pha
   2459  1962		       a9 86		      lda	#<(drawscreen-1)
   2460  1964		       48		      pha
   2461  1965		       a5 ee		      lda	temp7
   2462  1967		       48		      pha
   2463  1968		       8a		      txa
   2464  1969		       48		      pha
   2465  196a		       a2 04		      ldx	#4
   2466  196c		       4c eb ff 	      jmp	BS_jsr
   2467  196f				   ret_point20
   2468  196f				   .L0268		;;line 485;;  COLUBK = $02
   2469  196f
   2470  196f		       a9 02		      LDA	#$02
   2471  1971		       85 09		      STA	COLUBK
   2472  1973				   .L0269		;;line 486;;  COLUPF = Playfield_Color_Table[_Game_Level]
   2473  1973
   2474  1973		       a6 ca		      LDX	_Game_Level
   2475  1975		       bd 1b 91 	      LDA	Playfield_Color_Table,x
   2476  1978		       85 08		      STA	COLUPF
   2477  197a				   .L0270		;;line 487;;  _Transition_Quick_Count = _Transition_Quick_Count  -  1
   2478  197a
   2479  197a		       c6 b8		      DEC	_Transition_Quick_Count
   2480  197c				   .L0271		;;line 488;;  if _Transition_Quick_Count  >  0 then goto __Trap_Loop
   2481  197c
   2482  197c		       a9 00		      LDA	#0
   2483  197e		       c5 b8		      CMP	_Transition_Quick_Count
   2484  1980		       b0 03		      BCS	.skipL0271
   2485  1982				   .condpart75
   2486  1982		       4c 3f 99 	      jmp	.__Trap_Loop
   2487  1985
   2488  1985				   .skipL0271
   2489  1985				   .L0272		;;line 489;;  player0y = 0
   2490  1985
   2491  1985		       a9 00		      LDA	#0
   2492  1987		       85 85		      STA	player0y
   2493  1989				   .L0273		;;line 490;;  bally = 0
   2494  1989
   2495  1989		       a9 00		      LDA	#0
   2496  198b		       85 89		      STA	bally
   2497  198d				   .L0274		;;line 491;;  _Bit4_Trap_Active{4} = 0
   2498  198d
   2499  198d		       a5 d2		      LDA	_Bit4_Trap_Active
   2500  198f		       29 ef		      AND	#239
   2501  1991		       85 d2		      STA	_Bit4_Trap_Active
   2502  1993				   .L0275		;;line 492;;  _Hit_Count = 0
   2503  1993
   2504  1993		       a9 00		      LDA	#0
   2505  1995		       85 bf		      STA	_Hit_Count
   2506  1997				   .L0276		;;line 493;;  gosub __Spawn_Ghosts
   2507  1997
   2508  1997		       20 33 9c 	      jsr	.__Spawn_Ghosts
   2509  199a
   2510  199a				   .L0277		;;line 494;;  gosub __Set_Room_Layout bank3
   2511  199a
   2512  199a		       85 ee		      sta	temp7
   2513  199c		       a9 99		      lda	#>(ret_point21-1)
   2514  199e		       48		      pha
   2515  199f		       a9 b1		      lda	#<(ret_point21-1)
   2516  19a1		       48		      pha
   2517  19a2		       a9 d1		      lda	#>(.__Set_Room_Layout-1)
   2518  19a4		       48		      pha
   2519  19a5		       a9 66		      lda	#<(.__Set_Room_Layout-1)
   2520  19a7		       48		      pha
   2521  19a8		       a5 ee		      lda	temp7
   2522  19aa		       48		      pha
   2523  19ab		       8a		      txa
   2524  19ac		       48		      pha
   2525  19ad		       a2 03		      ldx	#3
   2526  19af		       4c eb ff 	      jmp	BS_jsr
   2527  19b2				   ret_point21
   2528  19b2				   .L0278		;;line 495;;  return
   2529  19b2
   2530  19b2		       ba		      tsx
   2531  19b3		       b5 02		      lda	2,x	; check return address
   2532  19b5		       49 99		      eor	#(>*)	; vs. current PCH
   2533  19b7		       29 e0		      and	#$E0	;  mask off all but top 3 bits
   2534  19b9		       f0 03		      beq	*+5	; if equal, do normal return
   2535  19bb		       4c dd ff 	      JMP	BS_return
   2536  19be		       60		      RTS
   2537  19bf				   .
   2538  19bf							;;line 496;;
   2539  19bf
   2540  19bf				   .__Level_Change
   2541  19bf							;;line 497;; __Level_Change
   2542  19bf
   2543  19bf				   .L0279		;;line 498;;  _Ghosts_Caught = 0
   2544  19bf
   2545  19bf		       a9 00		      LDA	#0
   2546  19c1		       85 cb		      STA	_Ghosts_Caught
   2547  19c3				   .L0280		;;line 499;;  _Game_Level = _Game_Level  +  1
   2548  19c3
   2549  19c3		       e6 ca		      INC	_Game_Level
   2550  19c5				   .L0281		;;line 500;;  if _Game_Level  >  6 then _Game_Level = 6
   2551  19c5
   2552  19c5		       a9 06		      LDA	#6
   2553  19c7		       c5 ca		      CMP	_Game_Level
   2554  19c9		       b0 04		      BCS	.skipL0281
   2555  19cb				   .condpart76
   2556  19cb		       a9 06		      LDA	#6
   2557  19cd		       85 ca		      STA	_Game_Level
   2558  19cf				   .skipL0281
   2559  19cf				   .__Reset_Level_Variables
   2560  19cf							;;line 501;; __Reset_Level_Variables
   2561  19cf
   2562  19cf				   .L0282		;;line 502;;  if _Game_Level = 1 then _Ghost_Speed_Mask = 1  :  _Visit_Length = 20  :	_Timer_Mask = 15  :  _Flee_Range = 10
   2563  19cf
   2564  19cf		       a5 ca		      LDA	_Game_Level
   2565  19d1		       c9 01		      CMP	#1
   2566  19d3		       d0 10		      BNE	.skipL0282
   2567  19d5				   .condpart77
   2568  19d5		       a9 01		      LDA	#1
   2569  19d7		       85 cd		      STA	_Ghost_Speed_Mask
   2570  19d9		       a9 14		      LDA	#20
   2571  19db		       85 ce		      STA	_Visit_Length
   2572  19dd		       a9 0f		      LDA	#15
   2573  19df		       85 cf		      STA	_Timer_Mask
   2574  19e1		       a9 0a		      LDA	#10
   2575  19e3		       85 d1		      STA	_Flee_Range
   2576  19e5				   .skipL0282
   2577  19e5				   .L0283		;;line 503;;  if _Game_Level = 2 then _Ghost_Speed_Mask = 1  :  _Visit_Length = 15  :	_Timer_Mask = 7  :  _Flee_Range = 20
   2578  19e5
   2579  19e5		       a5 ca		      LDA	_Game_Level
   2580  19e7		       c9 02		      CMP	#2
   2581  19e9		       d0 10		      BNE	.skipL0283
   2582  19eb				   .condpart78
   2583  19eb		       a9 01		      LDA	#1
   2584  19ed		       85 cd		      STA	_Ghost_Speed_Mask
   2585  19ef		       a9 0f		      LDA	#15
   2586  19f1		       85 ce		      STA	_Visit_Length
   2587  19f3		       a9 07		      LDA	#7
   2588  19f5		       85 cf		      STA	_Timer_Mask
   2589  19f7		       a9 14		      LDA	#20
   2590  19f9		       85 d1		      STA	_Flee_Range
   2591  19fb				   .skipL0283
   2592  19fb				   .L0284		;;line 504;;  if _Game_Level = 3 then _Ghost_Speed_Mask = 1  :  _Visit_Length = 10  :	_Timer_Mask = 3  :  _Flee_Range = 30
   2593  19fb
   2594  19fb		       a5 ca		      LDA	_Game_Level
   2595  19fd		       c9 03		      CMP	#3
   2596  19ff		       d0 10		      BNE	.skipL0284
   2597  1a01				   .condpart79
   2598  1a01		       a9 01		      LDA	#1
   2599  1a03		       85 cd		      STA	_Ghost_Speed_Mask
   2600  1a05		       a9 0a		      LDA	#10
   2601  1a07		       85 ce		      STA	_Visit_Length
   2602  1a09		       a9 03		      LDA	#3
   2603  1a0b		       85 cf		      STA	_Timer_Mask
   2604  1a0d		       a9 1e		      LDA	#30
   2605  1a0f		       85 d1		      STA	_Flee_Range
   2606  1a11				   .skipL0284
   2607  1a11				   .L0285		;;line 505;;  if _Game_Level = 4 then _Ghost_Speed_Mask = 1  :  _Visit_Length = 10  :	_Timer_Mask = 1  :  _Flee_Range = 40
   2608  1a11
   2609  1a11		       a5 ca		      LDA	_Game_Level
   2610  1a13		       c9 04		      CMP	#4
   2611  1a15		       d0 10		      BNE	.skipL0285
   2612  1a17				   .condpart80
   2613  1a17		       a9 01		      LDA	#1
   2614  1a19		       85 cd		      STA	_Ghost_Speed_Mask
   2615  1a1b		       a9 0a		      LDA	#10
   2616  1a1d		       85 ce		      STA	_Visit_Length
   2617  1a1f		       a9 01		      LDA	#1
   2618  1a21		       85 cf		      STA	_Timer_Mask
   2619  1a23		       a9 28		      LDA	#40
   2620  1a25		       85 d1		      STA	_Flee_Range
   2621  1a27				   .skipL0285
   2622  1a27				   .L0286		;;line 506;;  if _Game_Level = 5 then _Ghost_Speed_Mask = 1  :  _Visit_Length = 5  :  _Timer_Mask = 0
   2623  1a27
   2624  1a27		       a5 ca		      LDA	_Game_Level
   2625  1a29		       c9 05		      CMP	#5
   2626  1a2b		       d0 0c		      BNE	.skipL0286
   2627  1a2d				   .condpart81
   2628  1a2d		       a9 01		      LDA	#1
   2629  1a2f		       85 cd		      STA	_Ghost_Speed_Mask
   2630  1a31		       a9 05		      LDA	#5
   2631  1a33		       85 ce		      STA	_Visit_Length
   2632  1a35		       a9 00		      LDA	#0
   2633  1a37		       85 cf		      STA	_Timer_Mask
   2634  1a39				   .skipL0286
   2635  1a39				   .L0287		;;line 507;;  if _Game_Level = 6 then _Ghost_Speed_Mask = 0  :  _Visit_Length = 5  :  _Timer_Mask = 0
   2636  1a39
   2637  1a39		       a5 ca		      LDA	_Game_Level
   2638  1a3b		       c9 06		      CMP	#6
   2639  1a3d		       d0 0c		      BNE	.skipL0287
   2640  1a3f				   .condpart82
   2641  1a3f		       a9 00		      LDA	#0
   2642  1a41		       85 cd		      STA	_Ghost_Speed_Mask
   2643  1a43		       a9 05		      LDA	#5
   2644  1a45		       85 ce		      STA	_Visit_Length
   2645  1a47		       a9 00		      LDA	#0
   2646  1a49		       85 cf		      STA	_Timer_Mask
   2647  1a4b				   .skipL0287
   2648  1a4b				   .L0288		;;line 508;;  return
   2649  1a4b
   2650  1a4b		       ba		      tsx
   2651  1a4c		       b5 02		      lda	2,x	; check return address
   2652  1a4e		       49 9a		      eor	#(>*)	; vs. current PCH
   2653  1a50		       29 e0		      and	#$E0	;  mask off all but top 3 bits
   2654  1a52		       f0 03		      beq	*+5	; if equal, do normal return
   2655  1a54		       4c dd ff 	      JMP	BS_return
   2656  1a57		       60		      RTS
   2657  1a58				   .
   2658  1a58							;;line 509;;
   2659  1a58
   2660  1a58				   .
   2661  1a58							;;line 510;;
   2662  1a58
   2663  1a58				   .
   2664  1a58							;;line 511;;
   2665  1a58
   2666  1a58				   .
   2667  1a58							;;line 512;;
   2668  1a58
   2669  1a58				   .
   2670  1a58							;;line 513;;
   2671  1a58
   2672  1a58				   .__Lose_A_Life
   2673  1a58							;;line 514;; __Lose_A_Life
   2674  1a58
   2675  1a58				   .L0289		;;line 515;;  player0y = 0
   2676  1a58
   2677  1a58		       a9 00		      LDA	#0
   2678  1a5a		       85 85		      STA	player0y
   2679  1a5c				   .L0290		;;line 516;;  pfscore1 = pfscore1  /  4
   2680  1a5c
   2681  1a5c		       a5 f2		      LDA	pfscore1
   2682  1a5e		       4a		      lsr
   2683  1a5f		       4a		      lsr
   2684  1a60		       85 f2		      STA	pfscore1
   2685  1a62				   .L0291		;;line 517;;  COLUBK = $D6
   2686  1a62
   2687  1a62		       a9 d6		      LDA	#$D6
   2688  1a64		       85 09		      STA	COLUBK
   2689  1a66				   .L0292		;;line 518;;  player1color:
   2690  1a66
   2691  1a66		       a2 b5		      LDX	#<playercolorL0292_1
   2692  1a68		       86 87		      STX	player1color
   2693  1a6a		       a9 fb		      LDA	#>playercolorL0292_1
   2694  1a6c		       85 88		      STA	player1color+1
   2695  1a6e				   .L0293		;;line 533;;  _Transition_Quick_Count = 60
   2696  1a6e
   2697  1a6e		       a9 3c		      LDA	#60
   2698  1a70		       85 b8		      STA	_Transition_Quick_Count
   2699  1a72				   .
   2700  1a72							;;line 534;;
   2701  1a72
   2702  1a72				   .__Slimed_Loop
   2703  1a72							;;line 535;; __Slimed_Loop
   2704  1a72
   2705  1a72				   .L0294		;;line 536;;  _Transition_Quick_Count = _Transition_Quick_Count  -  1
   2706  1a72
   2707  1a72		       c6 b8		      DEC	_Transition_Quick_Count
   2708  1a74				   .L0295		;;line 537;;  gosub __Play_Slimed_SFX bank2
   2709  1a74
   2710  1a74		       85 ee		      sta	temp7
   2711  1a76		       a9 9a		      lda	#>(ret_point22-1)
   2712  1a78		       48		      pha
   2713  1a79		       a9 8b		      lda	#<(ret_point22-1)
   2714  1a7b		       48		      pha
   2715  1a7c		       a9 b7		      lda	#>(.__Play_Slimed_SFX-1)
   2716  1a7e		       48		      pha
   2717  1a7f		       a9 56		      lda	#<(.__Play_Slimed_SFX-1)
   2718  1a81		       48		      pha
   2719  1a82		       a5 ee		      lda	temp7
   2720  1a84		       48		      pha
   2721  1a85		       8a		      txa
   2722  1a86		       48		      pha
   2723  1a87		       a2 02		      ldx	#2
   2724  1a89		       4c eb ff 	      jmp	BS_jsr
   2725  1a8c				   ret_point22
   2726  1a8c				   .L0296		;;line 538;;  drawscreen
   2727  1a8c
   2728  1a8c		       85 ee		      sta	temp7
   2729  1a8e		       a9 9a		      lda	#>(ret_point23-1)
   2730  1a90		       48		      pha
   2731  1a91		       a9 a3		      lda	#<(ret_point23-1)
   2732  1a93		       48		      pha
   2733  1a94		       a9 f5		      lda	#>(drawscreen-1)
   2734  1a96		       48		      pha
   2735  1a97		       a9 86		      lda	#<(drawscreen-1)
   2736  1a99		       48		      pha
   2737  1a9a		       a5 ee		      lda	temp7
   2738  1a9c		       48		      pha
   2739  1a9d		       8a		      txa
   2740  1a9e		       48		      pha
   2741  1a9f		       a2 04		      ldx	#4
   2742  1aa1		       4c eb ff 	      jmp	BS_jsr
   2743  1aa4				   ret_point23
   2744  1aa4				   .L0297		;;line 539;;  if _Transition_Quick_Count  >  0 then goto __Slimed_Loop
   2745  1aa4
   2746  1aa4		       a9 00		      LDA	#0
   2747  1aa6		       c5 b8		      CMP	_Transition_Quick_Count
   2748  1aa8		       b0 03		      BCS	.skipL0297
   2749  1aaa				   .condpart83
   2750  1aaa		       4c 72 9a 	      jmp	.__Slimed_Loop
   2751  1aad
   2752  1aad				   .skipL0297
   2753  1aad				   .L0298		;;line 540;;  AUDV0 = 0  :  AUDV1 = 0
   2754  1aad
   2755  1aad		       a9 00		      LDA	#0
   2756  1aaf		       85 19		      STA	AUDV0
   2757  1ab1		       85 1a		      STA	AUDV1
   2758  1ab3				   .L0299		;;line 541;;  if pfscore1  >=	%00000010 then goto __Start_Turn
   2759  1ab3
   2760  1ab3		       a5 f2		      LDA	pfscore1
   2761  1ab5		       c9 02		      CMP	#%00000010
   2762  1ab7		       90 03		      BCC	.skipL0299
   2763  1ab9				   .condpart84
   2764  1ab9		       4c 88 92 	      jmp	.__Start_Turn
   2765  1abc
   2766  1abc				   .skipL0299
   2767  1abc				   .
   2768  1abc							;;line 542;;
   2769  1abc
   2770  1abc				   .__Game_Over_Loop
   2771  1abc							;;line 543;; __Game_Over_Loop
   2772  1abc
   2773  1abc				   .L0300		;;line 544;;  AUDV0 = 0  :  AUDV1 = 0
   2774  1abc
   2775  1abc		       a9 00		      LDA	#0
   2776  1abe		       85 19		      STA	AUDV0
   2777  1ac0		       85 1a		      STA	AUDV1
   2778  1ac2				   .L0301		;;line 545;;  pfscore2 = 0
   2779  1ac2
   2780  1ac2		       a9 00		      LDA	#0
   2781  1ac4		       85 f3		      STA	pfscore2
   2782  1ac6				   .L0302		;;line 546;;  missile0y = 0
   2783  1ac6
   2784  1ac6		       a9 00		      LDA	#0
   2785  1ac8		       85 91		      STA	missile0y
   2786  1aca				   .L0303		;;line 547;;  player1x = 0
   2787  1aca
   2788  1aca		       a9 00		      LDA	#0
   2789  1acc		       85 81		      STA	player1x
   2790  1ace				   .L0304		;;line 548;;  player1y = 0
   2791  1ace
   2792  1ace		       a9 00		      LDA	#0
   2793  1ad0		       85 86		      STA	player1y
   2794  1ad2				   .
   2795  1ad2							;;line 549;;
   2796  1ad2
   2797  1ad2				   .L0305		;;line 550;;  _Game_Timer = _Game_Timer  +  1
   2798  1ad2
   2799  1ad2		       e6 b4		      INC	_Game_Timer
   2800  1ad4				   .L0306		;;line 551;;  if _Game_Timer  >  180 then COLUBK = rand  :  COLUPF = rand  :  _Game_Timer = 0
   2801  1ad4
   2802  1ad4		       a9 b4		      LDA	#180
   2803  1ad6		       c5 b4		      CMP	_Game_Timer
   2804  1ad8		       b0 38		      BCS	.skipL0306
   2805  1ada				   .condpart85
   2806  1ada		       85 ee		      sta	temp7
   2807  1adc		       a9 9a		      lda	#>(ret_point24-1)
   2808  1ade		       48		      pha
   2809  1adf		       a9 f1		      lda	#<(ret_point24-1)
   2810  1ae1		       48		      pha
   2811  1ae2		       a9 f5		      lda	#>(randomize-1)
   2812  1ae4		       48		      pha
   2813  1ae5		       a9 76		      lda	#<(randomize-1)
   2814  1ae7		       48		      pha
   2815  1ae8		       a5 ee		      lda	temp7
   2816  1aea		       48		      pha
   2817  1aeb		       8a		      txa
   2818  1aec		       48		      pha
   2819  1aed		       a2 04		      ldx	#4
   2820  1aef		       4c eb ff 	      jmp	BS_jsr
   2821  1af2				   ret_point24
   2822  1af2		       85 09		      STA	COLUBK
   2823  1af4		       85 ee		      sta	temp7
   2824  1af6		       a9 9b		      lda	#>(ret_point25-1)
   2825  1af8		       48		      pha
   2826  1af9		       a9 0b		      lda	#<(ret_point25-1)
   2827  1afb		       48		      pha
   2828  1afc		       a9 f5		      lda	#>(randomize-1)
   2829  1afe		       48		      pha
   2830  1aff		       a9 76		      lda	#<(randomize-1)
   2831  1b01		       48		      pha
   2832  1b02		       a5 ee		      lda	temp7
   2833  1b04		       48		      pha
   2834  1b05		       8a		      txa
   2835  1b06		       48		      pha
   2836  1b07		       a2 04		      ldx	#4
   2837  1b09		       4c eb ff 	      jmp	BS_jsr
   2838  1b0c				   ret_point25
   2839  1b0c		       85 08		      STA	COLUPF
   2840  1b0e		       a9 00		      LDA	#0
   2841  1b10		       85 b4		      STA	_Game_Timer
   2842  1b12				   .skipL0306
   2843  1b12				   .L0307		;;line 552;;  gosub __Random_Ghost_Move
   2844  1b12
   2845  1b12		       20 48 9b 	      jsr	.__Random_Ghost_Move
   2846  1b15
   2847  1b15				   .
   2848  1b15							;;line 553;;
   2849  1b15
   2850  1b15				   .L0308		;;line 554;;  drawscreen
   2851  1b15
   2852  1b15		       85 ee		      sta	temp7
   2853  1b17		       a9 9b		      lda	#>(ret_point26-1)
   2854  1b19		       48		      pha
   2855  1b1a		       a9 2c		      lda	#<(ret_point26-1)
   2856  1b1c		       48		      pha
   2857  1b1d		       a9 f5		      lda	#>(drawscreen-1)
   2858  1b1f		       48		      pha
   2859  1b20		       a9 86		      lda	#<(drawscreen-1)
   2860  1b22		       48		      pha
   2861  1b23		       a5 ee		      lda	temp7
   2862  1b25		       48		      pha
   2863  1b26		       8a		      txa
   2864  1b27		       48		      pha
   2865  1b28		       a2 04		      ldx	#4
   2866  1b2a		       4c eb ff 	      jmp	BS_jsr
   2867  1b2d				   ret_point26
   2868  1b2d				   .
   2869  1b2d							;;line 555;;
   2870  1b2d
   2871  1b2d				   .L0309		;;line 556;;  if !switchreset then _Bit0_Reset_Restrainer{0} = 0  :  goto __Game_Over_Loop
   2872  1b2d
   2873  1b2d		       a9 01		      lda	#1
   2874  1b2f		       2c 82 02 	      bit	SWCHB
   2875  1b32		       f0 09		      BEQ	.skipL0309
   2876  1b34				   .condpart86
   2877  1b34		       a5 d2		      LDA	_Bit0_Reset_Restrainer
   2878  1b36		       29 fe		      AND	#254
   2879  1b38		       85 d2		      STA	_Bit0_Reset_Restrainer
   2880  1b3a		       4c bc 9a 	      jmp	.__Game_Over_Loop
   2881  1b3d
   2882  1b3d				   .skipL0309
   2883  1b3d				   .L0310		;;line 557;;  if _Bit0_Reset_Restrainer{0} then goto __Game_Over_Loop
   2884  1b3d
   2885  1b3d		       a5 d2		      LDA	_Bit0_Reset_Restrainer
   2886  1b3f		       4a		      LSR
   2887  1b40		       90 03		      BCC	.skipL0310
   2888  1b42				   .condpart87
   2889  1b42		       4c bc 9a 	      jmp	.__Game_Over_Loop
   2890  1b45
   2891  1b45				   .skipL0310
   2892  1b45				   .L0311		;;line 558;;  goto __Start_Restart
   2893  1b45
   2894  1b45		       4c 22 91 	      jmp	.__Start_Restart
   2895  1b48
   2896  1b48				   .
   2897  1b48							;;line 559;;
   2898  1b48
   2899  1b48				   .__Random_Ghost_Move
   2900  1b48							;;line 560;; __Random_Ghost_Move
   2901  1b48
   2902  1b48				   .L0312		;;line 561;;  if _Ghost_Timer	>  0 then goto _Random_Keep_Moving
   2903  1b48
   2904  1b48		       a9 00		      LDA	#0
   2905  1b4a		       c5 b3		      CMP	_Ghost_Timer
   2906  1b4c		       b0 03		      BCS	.skipL0312
   2907  1b4e				   .condpart88
   2908  1b4e		       4c 8c 9b 	      jmp	._Random_Keep_Moving
   2909  1b51
   2910  1b51				   .skipL0312
   2911  1b51				   .
   2912  1b51							;;line 562;;
   2913  1b51
   2914  1b51				   .L0313		;;line 563;;  _Ghost_Timer =  ( rand  &  15 )	 +  20
   2915  1b51
   2916  1b51							; complex statement detected
   2917  1b51		       85 ee		      sta	temp7
   2918  1b53		       a9 9b		      lda	#>(ret_point27-1)
   2919  1b55		       48		      pha
   2920  1b56		       a9 68		      lda	#<(ret_point27-1)
   2921  1b58		       48		      pha
   2922  1b59		       a9 f5		      lda	#>(randomize-1)
   2923  1b5b		       48		      pha
   2924  1b5c		       a9 76		      lda	#<(randomize-1)
   2925  1b5e		       48		      pha
   2926  1b5f		       a5 ee		      lda	temp7
   2927  1b61		       48		      pha
   2928  1b62		       8a		      txa
   2929  1b63		       48		      pha
   2930  1b64		       a2 04		      ldx	#4
   2931  1b66		       4c eb ff 	      jmp	BS_jsr
   2932  1b69				   ret_point27
   2933  1b69		       29 0f		      AND	#15
   2934  1b6b		       18		      CLC
   2935  1b6c		       69 14		      ADC	#20
   2936  1b6e		       85 b3		      STA	_Ghost_Timer
   2937  1b70				   .L0314		;;line 564;;  _Ghost_Direction =  ( rand  &  7 )
   2938  1b70
   2939  1b70							; complex statement detected
   2940  1b70		       85 ee		      sta	temp7
   2941  1b72		       a9 9b		      lda	#>(ret_point28-1)
   2942  1b74		       48		      pha
   2943  1b75		       a9 87		      lda	#<(ret_point28-1)
   2944  1b77		       48		      pha
   2945  1b78		       a9 f5		      lda	#>(randomize-1)
   2946  1b7a		       48		      pha
   2947  1b7b		       a9 76		      lda	#<(randomize-1)
   2948  1b7d		       48		      pha
   2949  1b7e		       a5 ee		      lda	temp7
   2950  1b80		       48		      pha
   2951  1b81		       8a		      txa
   2952  1b82		       48		      pha
   2953  1b83		       a2 04		      ldx	#4
   2954  1b85		       4c eb ff 	      jmp	BS_jsr
   2955  1b88				   ret_point28
   2956  1b88		       29 07		      AND	#7
   2957  1b8a		       85 b2		      STA	_Ghost_Direction
   2958  1b8c				   .
   2959  1b8c							;;line 565;;
   2960  1b8c
   2961  1b8c				   ._Random_Keep_Moving
   2962  1b8c							;;line 566;; _Random_Keep_Moving
   2963  1b8c
   2964  1b8c				   .L0315		;;line 567;;  _Ghost_Timer = _Ghost_Timer  -  1
   2965  1b8c
   2966  1b8c		       c6 b3		      DEC	_Ghost_Timer
   2967  1b8e				   .L0316		;;line 568;;  if _Ghost_Direction = 0 then _Ghost_y = _Ghost_y  -  1
   2968  1b8e
   2969  1b8e		       a5 b2		      LDA	_Ghost_Direction
   2970  1b90		       c9 00		      CMP	#0
   2971  1b92		       d0 02		      BNE	.skipL0316
   2972  1b94				   .condpart89
   2973  1b94		       c6 b0		      DEC	_Ghost_y
   2974  1b96				   .skipL0316
   2975  1b96				   .L0317		;;line 569;;  if _Ghost_Direction = 1 then _Ghost_y = _Ghost_y  +  1
   2976  1b96
   2977  1b96		       a5 b2		      LDA	_Ghost_Direction
   2978  1b98		       c9 01		      CMP	#1
   2979  1b9a		       d0 02		      BNE	.skipL0317
   2980  1b9c				   .condpart90
   2981  1b9c		       e6 b0		      INC	_Ghost_y
   2982  1b9e				   .skipL0317
   2983  1b9e				   .L0318		;;line 570;;  if _Ghost_Direction = 2 then _Ghost_x = _Ghost_x  -  1
   2984  1b9e
   2985  1b9e		       a5 b2		      LDA	_Ghost_Direction
   2986  1ba0		       c9 02		      CMP	#2
   2987  1ba2		       d0 02		      BNE	.skipL0318
   2988  1ba4				   .condpart91
   2989  1ba4		       c6 af		      DEC	_Ghost_x
   2990  1ba6				   .skipL0318
   2991  1ba6				   .L0319		;;line 571;;  if _Ghost_Direction = 3 then _Ghost_x = _Ghost_x  +  1
   2992  1ba6
   2993  1ba6		       a5 b2		      LDA	_Ghost_Direction
   2994  1ba8		       c9 03		      CMP	#3
   2995  1baa		       d0 02		      BNE	.skipL0319
   2996  1bac				   .condpart92
   2997  1bac		       e6 af		      INC	_Ghost_x
   2998  1bae				   .skipL0319
   2999  1bae				   .L0320		;;line 572;;  if _Ghost_Direction = 4 then _Ghost_x = _Ghost_x  -  1  :  _Ghost_y = _Ghost_y  -  1
   3000  1bae
   3001  1bae		       a5 b2		      LDA	_Ghost_Direction
   3002  1bb0		       c9 04		      CMP	#4
   3003  1bb2		       d0 04		      BNE	.skipL0320
   3004  1bb4				   .condpart93
   3005  1bb4		       c6 af		      DEC	_Ghost_x
   3006  1bb6		       c6 b0		      DEC	_Ghost_y
   3007  1bb8				   .skipL0320
   3008  1bb8				   .L0321		;;line 573;;  if _Ghost_Direction = 5 then _Ghost_x = _Ghost_x  -  1  :  _Ghost_y = _Ghost_y  +  1
   3009  1bb8
   3010  1bb8		       a5 b2		      LDA	_Ghost_Direction
   3011  1bba		       c9 05		      CMP	#5
   3012  1bbc		       d0 04		      BNE	.skipL0321
   3013  1bbe				   .condpart94
   3014  1bbe		       c6 af		      DEC	_Ghost_x
   3015  1bc0		       e6 b0		      INC	_Ghost_y
   3016  1bc2				   .skipL0321
   3017  1bc2				   .L0322		;;line 574;;  if _Ghost_Direction = 6 then _Ghost_x = _Ghost_x  +  1  :  _Ghost_y = _Ghost_y  -  1
   3018  1bc2
   3019  1bc2		       a5 b2		      LDA	_Ghost_Direction
   3020  1bc4		       c9 06		      CMP	#6
   3021  1bc6		       d0 04		      BNE	.skipL0322
   3022  1bc8				   .condpart95
   3023  1bc8		       e6 af		      INC	_Ghost_x
   3024  1bca		       c6 b0		      DEC	_Ghost_y
   3025  1bcc				   .skipL0322
   3026  1bcc				   .L0323		;;line 575;;  if _Ghost_Direction = 7 then _Ghost_x = _Ghost_x  +  1  :  _Ghost_y = _Ghost_y  +  1
   3027  1bcc
   3028  1bcc		       a5 b2		      LDA	_Ghost_Direction
   3029  1bce		       c9 07		      CMP	#7
   3030  1bd0		       d0 04		      BNE	.skipL0323
   3031  1bd2				   .condpart96
   3032  1bd2		       e6 af		      INC	_Ghost_x
   3033  1bd4		       e6 b0		      INC	_Ghost_y
   3034  1bd6				   .skipL0323
   3035  1bd6				   .
   3036  1bd6							;;line 576;;
   3037  1bd6
   3038  1bd6				   .L0324		;;line 577;;  if _Ghost_y  >  89 then _Ghost_y = 89  :  _Ghost_Direction = 0  :  _Ghost_Timer = 20
   3039  1bd6
   3040  1bd6		       a9 59		      LDA	#89
   3041  1bd8		       c5 b0		      CMP	_Ghost_y
   3042  1bda		       b0 0c		      BCS	.skipL0324
   3043  1bdc				   .condpart97
   3044  1bdc		       a9 59		      LDA	#89
   3045  1bde		       85 b0		      STA	_Ghost_y
   3046  1be0		       a9 00		      LDA	#0
   3047  1be2		       85 b2		      STA	_Ghost_Direction
   3048  1be4		       a9 14		      LDA	#20
   3049  1be6		       85 b3		      STA	_Ghost_Timer
   3050  1be8				   .skipL0324
   3051  1be8				   .L0325		;;line 578;;  if _Ghost_y  <  15 then _Ghost_y = 15  :  _Ghost_Direction = 1  :  _Ghost_Timer = 20
   3052  1be8
   3053  1be8		       a5 b0		      LDA	_Ghost_y
   3054  1bea		       c9 0f		      CMP	#15
   3055  1bec		       b0 0c		      BCS	.skipL0325
   3056  1bee				   .condpart98
   3057  1bee		       a9 0f		      LDA	#15
   3058  1bf0		       85 b0		      STA	_Ghost_y
   3059  1bf2		       a9 01		      LDA	#1
   3060  1bf4		       85 b2		      STA	_Ghost_Direction
   3061  1bf6		       a9 14		      LDA	#20
   3062  1bf8		       85 b3		      STA	_Ghost_Timer
   3063  1bfa				   .skipL0325
   3064  1bfa				   .L0326		;;line 579;;  if _Ghost_x  >  140 then _Ghost_x = 140	:  _Ghost_Direction = 2  :  _Ghost_Timer = 20
   3065  1bfa
   3066  1bfa		       a9 8c		      LDA	#140
   3067  1bfc		       c5 af		      CMP	_Ghost_x
   3068  1bfe		       b0 0c		      BCS	.skipL0326
   3069  1c00				   .condpart99
   3070  1c00		       a9 8c		      LDA	#140
   3071  1c02		       85 af		      STA	_Ghost_x
   3072  1c04		       a9 02		      LDA	#2
   3073  1c06		       85 b2		      STA	_Ghost_Direction
   3074  1c08		       a9 14		      LDA	#20
   3075  1c0a		       85 b3		      STA	_Ghost_Timer
   3076  1c0c				   .skipL0326
   3077  1c0c				   .L0327		;;line 580;;  if _Ghost_x  <  20 then _Ghost_x = 20  :  _Ghost_Direction = 3  :  _Ghost_Timer = 20
   3078  1c0c
   3079  1c0c		       a5 af		      LDA	_Ghost_x
   3080  1c0e		       c9 14		      CMP	#20
   3081  1c10		       b0 0c		      BCS	.skipL0327
   3082  1c12				   .condpart100
   3083  1c12		       a9 14		      LDA	#20
   3084  1c14		       85 af		      STA	_Ghost_x
   3085  1c16		       a9 03		      LDA	#3
   3086  1c18		       85 b2		      STA	_Ghost_Direction
   3087  1c1a		       a9 14		      LDA	#20
   3088  1c1c		       85 b3		      STA	_Ghost_Timer
   3089  1c1e				   .skipL0327
   3090  1c1e				   .
   3091  1c1e							;;line 581;;
   3092  1c1e
   3093  1c1e				   .L0328		;;line 582;;  player0x = _Ghost_x  :  player0y = _Ghost_y
   3094  1c1e
   3095  1c1e		       a5 af		      LDA	_Ghost_x
   3096  1c20		       85 80		      STA	player0x
   3097  1c22		       a5 b0		      LDA	_Ghost_y
   3098  1c24		       85 85		      STA	player0y
   3099  1c26				   .
   3100  1c26							;;line 583;;
   3101  1c26
   3102  1c26				   .L0329		;;line 584;;  return
   3103  1c26
   3104  1c26		       ba		      tsx
   3105  1c27		       b5 02		      lda	2,x	; check return address
   3106  1c29		       49 9c		      eor	#(>*)	; vs. current PCH
   3107  1c2b		       29 e0		      and	#$E0	;  mask off all but top 3 bits
   3108  1c2d		       f0 03		      beq	*+5	; if equal, do normal return
   3109  1c2f		       4c dd ff 	      JMP	BS_return
   3110  1c32		       60		      RTS
   3111  1c33				   .
   3112  1c33							;;line 585;;
   3113  1c33
   3114  1c33				   .
   3115  1c33							;;line 586;;
   3116  1c33
   3117  1c33				   .
   3118  1c33							;;line 587;;
   3119  1c33
   3120  1c33				   .
   3121  1c33							;;line 588;;
   3122  1c33
   3123  1c33				   .
   3124  1c33							;;line 589;;
   3125  1c33
   3126  1c33				   .__Spawn_Ghosts
   3127  1c33							;;line 590;; __Spawn_Ghosts
   3128  1c33
   3129  1c33				   .L0330		;;line 591;;  _Hit_Count = 0
   3130  1c33
   3131  1c33		       a9 00		      LDA	#0
   3132  1c35		       85 bf		      STA	_Hit_Count
   3133  1c37				   .L0331		;;line 592;;  _Bit3_Stunned_Ghost{3} = 0
   3134  1c37
   3135  1c37		       a5 d2		      LDA	_Bit3_Stunned_Ghost
   3136  1c39		       29 f7		      AND	#247
   3137  1c3b		       85 d2		      STA	_Bit3_Stunned_Ghost
   3138  1c3d				   .__Roll_Ghost1
   3139  1c3d							;;line 593;; __Roll_Ghost1
   3140  1c3d
   3141  1c3d				   .L0332		;;line 594;;  _Ghost1_Room = rand
   3142  1c3d
   3143  1c3d		       85 ee		      sta	temp7
   3144  1c3f		       a9 9c		      lda	#>(ret_point29-1)
   3145  1c41		       48		      pha
   3146  1c42		       a9 54		      lda	#<(ret_point29-1)
   3147  1c44		       48		      pha
   3148  1c45		       a9 f5		      lda	#>(randomize-1)
   3149  1c47		       48		      pha
   3150  1c48		       a9 76		      lda	#<(randomize-1)
   3151  1c4a		       48		      pha
   3152  1c4b		       a5 ee		      lda	temp7
   3153  1c4d		       48		      pha
   3154  1c4e		       8a		      txa
   3155  1c4f		       48		      pha
   3156  1c50		       a2 04		      ldx	#4
   3157  1c52		       4c eb ff 	      jmp	BS_jsr
   3158  1c55				   ret_point29
   3159  1c55		       85 a8		      STA	_Ghost1_Room
   3160  1c57				   .L0333		;;line 595;;  if _Ghost1_Room	>  99 then goto __Roll_Ghost1
   3161  1c57
   3162  1c57		       a9 63		      LDA	#99
   3163  1c59		       c5 a8		      CMP	_Ghost1_Room
   3164  1c5b		       b0 03		      BCS	.skipL0333
   3165  1c5d				   .condpart101
   3166  1c5d		       4c 3d 9c 	      jmp	.__Roll_Ghost1
   3167  1c60
   3168  1c60				   .skipL0333
   3169  1c60				   .L0334		;;line 596;;  if _Ghost1_Room = _Buster_Room then goto __Roll_Ghost1
   3170  1c60
   3171  1c60		       a5 a8		      LDA	_Ghost1_Room
   3172  1c62		       c5 a7		      CMP	_Buster_Room
   3173  1c64		       d0 03		      BNE	.skipL0334
   3174  1c66				   .condpart102
   3175  1c66		       4c 3d 9c 	      jmp	.__Roll_Ghost1
   3176  1c69
   3177  1c69				   .skipL0334
   3178  1c69				   .__Roll_Ghost2
   3179  1c69							;;line 597;; __Roll_Ghost2
   3180  1c69
   3181  1c69				   .L0335		;;line 598;;  _Ghost2_Room = rand
   3182  1c69
   3183  1c69		       85 ee		      sta	temp7
   3184  1c6b		       a9 9c		      lda	#>(ret_point30-1)
   3185  1c6d		       48		      pha
   3186  1c6e		       a9 80		      lda	#<(ret_point30-1)
   3187  1c70		       48		      pha
   3188  1c71		       a9 f5		      lda	#>(randomize-1)
   3189  1c73		       48		      pha
   3190  1c74		       a9 76		      lda	#<(randomize-1)
   3191  1c76		       48		      pha
   3192  1c77		       a5 ee		      lda	temp7
   3193  1c79		       48		      pha
   3194  1c7a		       8a		      txa
   3195  1c7b		       48		      pha
   3196  1c7c		       a2 04		      ldx	#4
   3197  1c7e		       4c eb ff 	      jmp	BS_jsr
   3198  1c81				   ret_point30
   3199  1c81		       85 a9		      STA	_Ghost2_Room
   3200  1c83				   .L0336		;;line 599;;  if _Ghost2_Room	>  99 then goto __Roll_Ghost2
   3201  1c83
   3202  1c83		       a9 63		      LDA	#99
   3203  1c85		       c5 a9		      CMP	_Ghost2_Room
   3204  1c87		       b0 03		      BCS	.skipL0336
   3205  1c89				   .condpart103
   3206  1c89		       4c 69 9c 	      jmp	.__Roll_Ghost2
   3207  1c8c
   3208  1c8c				   .skipL0336
   3209  1c8c				   .L0337		;;line 600;;  if _Ghost2_Room = _Buster_Room then goto __Roll_Ghost2
   3210  1c8c
   3211  1c8c		       a5 a9		      LDA	_Ghost2_Room
   3212  1c8e		       c5 a7		      CMP	_Buster_Room
   3213  1c90		       d0 03		      BNE	.skipL0337
   3214  1c92				   .condpart104
   3215  1c92		       4c 69 9c 	      jmp	.__Roll_Ghost2
   3216  1c95
   3217  1c95				   .skipL0337
   3218  1c95				   .L0338		;;line 601;;  if _Ghost2_Room = _Ghost1_Room then goto __Roll_Ghost2
   3219  1c95
   3220  1c95		       a5 a9		      LDA	_Ghost2_Room
   3221  1c97		       c5 a8		      CMP	_Ghost1_Room
   3222  1c99		       d0 03		      BNE	.skipL0338
   3223  1c9b				   .condpart105
   3224  1c9b		       4c 69 9c 	      jmp	.__Roll_Ghost2
   3225  1c9e
   3226  1c9e				   .skipL0338
   3227  1c9e				   .__Roll_Ghost3
   3228  1c9e							;;line 602;; __Roll_Ghost3
   3229  1c9e
   3230  1c9e				   .L0339		;;line 603;;  _Ghost3_Room = rand
   3231  1c9e
   3232  1c9e		       85 ee		      sta	temp7
   3233  1ca0		       a9 9c		      lda	#>(ret_point31-1)
   3234  1ca2		       48		      pha
   3235  1ca3		       a9 b5		      lda	#<(ret_point31-1)
   3236  1ca5		       48		      pha
   3237  1ca6		       a9 f5		      lda	#>(randomize-1)
   3238  1ca8		       48		      pha
   3239  1ca9		       a9 76		      lda	#<(randomize-1)
   3240  1cab		       48		      pha
   3241  1cac		       a5 ee		      lda	temp7
   3242  1cae		       48		      pha
   3243  1caf		       8a		      txa
   3244  1cb0		       48		      pha
   3245  1cb1		       a2 04		      ldx	#4
   3246  1cb3		       4c eb ff 	      jmp	BS_jsr
   3247  1cb6				   ret_point31
   3248  1cb6		       85 aa		      STA	_Ghost3_Room
   3249  1cb8				   .L0340		;;line 604;;  if _Ghost3_Room	>  99 then goto __Roll_Ghost3
   3250  1cb8
   3251  1cb8		       a9 63		      LDA	#99
   3252  1cba		       c5 aa		      CMP	_Ghost3_Room
   3253  1cbc		       b0 03		      BCS	.skipL0340
   3254  1cbe				   .condpart106
   3255  1cbe		       4c 9e 9c 	      jmp	.__Roll_Ghost3
   3256  1cc1
   3257  1cc1				   .skipL0340
   3258  1cc1				   .L0341		;;line 605;;  if _Ghost3_Room = _Buster_Room then goto __Roll_Ghost3
   3259  1cc1
   3260  1cc1		       a5 aa		      LDA	_Ghost3_Room
   3261  1cc3		       c5 a7		      CMP	_Buster_Room
   3262  1cc5		       d0 03		      BNE	.skipL0341
   3263  1cc7				   .condpart107
   3264  1cc7		       4c 9e 9c 	      jmp	.__Roll_Ghost3
   3265  1cca
   3266  1cca				   .skipL0341
   3267  1cca				   .L0342		;;line 606;;  if _Ghost3_Room = _Ghost1_Room then goto __Roll_Ghost3
   3268  1cca
   3269  1cca		       a5 aa		      LDA	_Ghost3_Room
   3270  1ccc		       c5 a8		      CMP	_Ghost1_Room
   3271  1cce		       d0 03		      BNE	.skipL0342
   3272  1cd0				   .condpart108
   3273  1cd0		       4c 9e 9c 	      jmp	.__Roll_Ghost3
   3274  1cd3
   3275  1cd3				   .skipL0342
   3276  1cd3				   .L0343		;;line 607;;  if _Ghost3_Room = _Ghost2_Room then goto __Roll_Ghost3
   3277  1cd3
   3278  1cd3		       a5 aa		      LDA	_Ghost3_Room
   3279  1cd5		       c5 a9		      CMP	_Ghost2_Room
   3280  1cd7		       d0 03		      BNE	.skipL0343
   3281  1cd9				   .condpart109
   3282  1cd9		       4c 9e 9c 	      jmp	.__Roll_Ghost3
   3283  1cdc
   3284  1cdc				   .skipL0343
   3285  1cdc				   .L0344		;;line 608;;  return
   3286  1cdc
   3287  1cdc		       ba		      tsx
   3288  1cdd		       b5 02		      lda	2,x	; check return address
   3289  1cdf		       49 9c		      eor	#(>*)	; vs. current PCH
   3290  1ce1		       29 e0		      and	#$E0	;  mask off all but top 3 bits
   3291  1ce3		       f0 03		      beq	*+5	; if equal, do normal return
   3292  1ce5		       4c dd ff 	      JMP	BS_return
   3293  1ce8		       60		      RTS
   3294  1ce9				   .
   3295  1ce9							;;line 609;;
   3296  1ce9
   3297  1ce9				   .
   3298  1ce9							;;line 610;;
   3299  1ce9
   3300  1ce9				   .
   3301  1ce9							;;line 611;;
   3302  1ce9
   3303  1ce9				   .L0345		;;line 612;;  bank 2
   3304  1ce9
   3305  1ce9					      if	ECHO1
      747 bytes of ROM space left in bank 1
   3306  1ce9					      echo	"    ",[(start_bank1 - *)]d , "bytes of ROM space left in bank 1")
   3307  1ce9					      endif
   3308  1ce9		       00 01	   ECHO1      =	1
   3309  1fd4					      ORG	$1FF4-bscode_length
   3310  1fd4					      RORG	$9FF4-bscode_length
   3311  1fd4		       a2 ff	   start_bank1 ldx	#$ff
   3312  1fd6				  -	      ifconst	FASTFETCH	; using DPC+
   3313  1fd6				  -	      stx	FASTFETCH
   3314  1fd6					      endif
   3315  1fd6		       9a		      txs
   3316  1fd7				  -	      if	bankswitch == 64
   3317  1fd7				  -	      lda	#(((>(start-1)) & $0F) | $F0)
   3318  1fd7					      else
   3319  1fd7		       a9 f3		      lda	#>(start-1)
   3320  1fd9					      endif
   3321  1fd9		       48		      pha
   3322  1fda		       a9 51		      lda	#<(start-1)
   3323  1fdc		       48		      pha
   3324  1fdd		       48		      pha
   3325  1fde		       8a		      txa
   3326  1fdf		       48		      pha
   3327  1fe0		       ba		      tsx
   3328  1fe1					      if	bankswitch != 64
   3329  1fe1		       b5 04		      lda	4,x	; get high byte of return address
   3330  1fe3		       2a		      rol
   3331  1fe4		       2a		      rol
   3332  1fe5		       2a		      rol
   3333  1fe6		       2a		      rol
   3334  1fe7		       29 03		      and	#bs_mask	;1 3 or 7 for F8/F6/F4
   3335  1fe9		       aa		      tax
   3336  1fea		       e8		      inx
   3337  1feb				  -	      else
   3338  1feb				  -	      lda	4,x	; get high byte of return address
   3339  1feb				  -	      tay
   3340  1feb				  -	      ora	#$10	; change our bank nibble into a valid rom mirror
   3341  1feb				  -	      sta	4,x
   3342  1feb				  -	      tya
   3343  1feb				  -	      lsr
   3344  1feb				  -	      lsr
   3345  1feb				  -	      lsr
   3346  1feb				  -	      lsr
   3347  1feb				  -	      tax
   3348  1feb				  -	      inx
   3349  1feb					      endif
   3350  1feb		       bd f5 1f 	      lda	bankswitch_hotspot-1,x
   3351  1fee		       68		      pla
   3352  1fef		       aa		      tax
   3353  1ff0		       68		      pla
   3354  1ff1		       60		      rts
   3355  1ff2				  -	      if	((* & $1FFF) > ((bankswitch_hotspot & $1FFF) - 1))
   3356  1ff2				  -	      echo	"WARNING: size parameter in banksw.asm too small - the program probably will not work."
   3357  1ff2				  -	      echo	"Change to",[(*-begin_bscode+1)&$FF]d,"and try again."
   3358  1ff2					      endif
   3359  1ffc					      ORG	$1FFC
   3360  1ffc					      RORG	$9FFC
   3361  1ffc		       d4 9f		      .word.w	(start_bank1 & $ffff)
   3362  1ffe		       d4 9f		      .word.w	(start_bank1 & $ffff)
   3363  2000					      ORG	$2000
   3364  2000					      RORG	$B000
   3365  2000					      repeat	256
   3366  2000		       ff		      .byte.b	$ff
   3365  2000					      repend
   3366  2001		       ff		      .byte.b	$ff
   3365  2001					      repend
   3366  2002		       ff		      .byte.b	$ff
   3365  2002					      repend
   3366  2003		       ff		      .byte.b	$ff
   3365  2003					      repend
   3366  2004		       ff		      .byte.b	$ff
   3365  2004					      repend
   3366  2005		       ff		      .byte.b	$ff
   3365  2005					      repend
   3366  2006		       ff		      .byte.b	$ff
   3365  2006					      repend
   3366  2007		       ff		      .byte.b	$ff
   3365  2007					      repend
   3366  2008		       ff		      .byte.b	$ff
   3365  2008					      repend
   3366  2009		       ff		      .byte.b	$ff
   3365  2009					      repend
   3366  200a		       ff		      .byte.b	$ff
   3365  200a					      repend
   3366  200b		       ff		      .byte.b	$ff
   3365  200b					      repend
   3366  200c		       ff		      .byte.b	$ff
   3365  200c					      repend
   3366  200d		       ff		      .byte.b	$ff
   3365  200d					      repend
   3366  200e		       ff		      .byte.b	$ff
   3365  200e					      repend
   3366  200f		       ff		      .byte.b	$ff
   3365  200f					      repend
   3366  2010		       ff		      .byte.b	$ff
   3365  2010					      repend
   3366  2011		       ff		      .byte.b	$ff
   3365  2011					      repend
   3366  2012		       ff		      .byte.b	$ff
   3365  2012					      repend
   3366  2013		       ff		      .byte.b	$ff
   3365  2013					      repend
   3366  2014		       ff		      .byte.b	$ff
   3365  2014					      repend
   3366  2015		       ff		      .byte.b	$ff
   3365  2015					      repend
   3366  2016		       ff		      .byte.b	$ff
   3365  2016					      repend
   3366  2017		       ff		      .byte.b	$ff
   3365  2017					      repend
   3366  2018		       ff		      .byte.b	$ff
   3365  2018					      repend
   3366  2019		       ff		      .byte.b	$ff
   3365  2019					      repend
   3366  201a		       ff		      .byte.b	$ff
   3365  201a					      repend
   3366  201b		       ff		      .byte.b	$ff
   3365  201b					      repend
   3366  201c		       ff		      .byte.b	$ff
   3365  201c					      repend
   3366  201d		       ff		      .byte.b	$ff
   3365  201d					      repend
   3366  201e		       ff		      .byte.b	$ff
   3365  201e					      repend
   3366  201f		       ff		      .byte.b	$ff
   3365  201f					      repend
   3366  2020		       ff		      .byte.b	$ff
   3365  2020					      repend
   3366  2021		       ff		      .byte.b	$ff
   3365  2021					      repend
   3366  2022		       ff		      .byte.b	$ff
   3365  2022					      repend
   3366  2023		       ff		      .byte.b	$ff
   3365  2023					      repend
   3366  2024		       ff		      .byte.b	$ff
   3365  2024					      repend
   3366  2025		       ff		      .byte.b	$ff
   3365  2025					      repend
   3366  2026		       ff		      .byte.b	$ff
   3365  2026					      repend
   3366  2027		       ff		      .byte.b	$ff
   3365  2027					      repend
   3366  2028		       ff		      .byte.b	$ff
   3365  2028					      repend
   3366  2029		       ff		      .byte.b	$ff
   3365  2029					      repend
   3366  202a		       ff		      .byte.b	$ff
   3365  202a					      repend
   3366  202b		       ff		      .byte.b	$ff
   3365  202b					      repend
   3366  202c		       ff		      .byte.b	$ff
   3365  202c					      repend
   3366  202d		       ff		      .byte.b	$ff
   3365  202d					      repend
   3366  202e		       ff		      .byte.b	$ff
   3365  202e					      repend
   3366  202f		       ff		      .byte.b	$ff
   3365  202f					      repend
   3366  2030		       ff		      .byte.b	$ff
   3365  2030					      repend
   3366  2031		       ff		      .byte.b	$ff
   3365  2031					      repend
   3366  2032		       ff		      .byte.b	$ff
   3365  2032					      repend
   3366  2033		       ff		      .byte.b	$ff
   3365  2033					      repend
   3366  2034		       ff		      .byte.b	$ff
   3365  2034					      repend
   3366  2035		       ff		      .byte.b	$ff
   3365  2035					      repend
   3366  2036		       ff		      .byte.b	$ff
   3365  2036					      repend
   3366  2037		       ff		      .byte.b	$ff
   3365  2037					      repend
   3366  2038		       ff		      .byte.b	$ff
   3365  2038					      repend
   3366  2039		       ff		      .byte.b	$ff
   3365  2039					      repend
   3366  203a		       ff		      .byte.b	$ff
   3365  203a					      repend
   3366  203b		       ff		      .byte.b	$ff
   3365  203b					      repend
   3366  203c		       ff		      .byte.b	$ff
   3365  203c					      repend
   3366  203d		       ff		      .byte.b	$ff
   3365  203d					      repend
   3366  203e		       ff		      .byte.b	$ff
   3365  203e					      repend
   3366  203f		       ff		      .byte.b	$ff
   3365  203f					      repend
   3366  2040		       ff		      .byte.b	$ff
   3365  2040					      repend
   3366  2041		       ff		      .byte.b	$ff
   3365  2041					      repend
   3366  2042		       ff		      .byte.b	$ff
   3365  2042					      repend
   3366  2043		       ff		      .byte.b	$ff
   3365  2043					      repend
   3366  2044		       ff		      .byte.b	$ff
   3365  2044					      repend
   3366  2045		       ff		      .byte.b	$ff
   3365  2045					      repend
   3366  2046		       ff		      .byte.b	$ff
   3365  2046					      repend
   3366  2047		       ff		      .byte.b	$ff
   3365  2047					      repend
   3366  2048		       ff		      .byte.b	$ff
   3365  2048					      repend
   3366  2049		       ff		      .byte.b	$ff
   3365  2049					      repend
   3366  204a		       ff		      .byte.b	$ff
   3365  204a					      repend
   3366  204b		       ff		      .byte.b	$ff
   3365  204b					      repend
   3366  204c		       ff		      .byte.b	$ff
   3365  204c					      repend
   3366  204d		       ff		      .byte.b	$ff
   3365  204d					      repend
   3366  204e		       ff		      .byte.b	$ff
   3365  204e					      repend
   3366  204f		       ff		      .byte.b	$ff
   3365  204f					      repend
   3366  2050		       ff		      .byte.b	$ff
   3365  2050					      repend
   3366  2051		       ff		      .byte.b	$ff
   3365  2051					      repend
   3366  2052		       ff		      .byte.b	$ff
   3365  2052					      repend
   3366  2053		       ff		      .byte.b	$ff
   3365  2053					      repend
   3366  2054		       ff		      .byte.b	$ff
   3365  2054					      repend
   3366  2055		       ff		      .byte.b	$ff
   3365  2055					      repend
   3366  2056		       ff		      .byte.b	$ff
   3365  2056					      repend
   3366  2057		       ff		      .byte.b	$ff
   3365  2057					      repend
   3366  2058		       ff		      .byte.b	$ff
   3365  2058					      repend
   3366  2059		       ff		      .byte.b	$ff
   3365  2059					      repend
   3366  205a		       ff		      .byte.b	$ff
   3365  205a					      repend
   3366  205b		       ff		      .byte.b	$ff
   3365  205b					      repend
   3366  205c		       ff		      .byte.b	$ff
   3365  205c					      repend
   3366  205d		       ff		      .byte.b	$ff
   3365  205d					      repend
   3366  205e		       ff		      .byte.b	$ff
   3365  205e					      repend
   3366  205f		       ff		      .byte.b	$ff
   3365  205f					      repend
   3366  2060		       ff		      .byte.b	$ff
   3365  2060					      repend
   3366  2061		       ff		      .byte.b	$ff
   3365  2061					      repend
   3366  2062		       ff		      .byte.b	$ff
   3365  2062					      repend
   3366  2063		       ff		      .byte.b	$ff
   3365  2063					      repend
   3366  2064		       ff		      .byte.b	$ff
   3365  2064					      repend
   3366  2065		       ff		      .byte.b	$ff
   3365  2065					      repend
   3366  2066		       ff		      .byte.b	$ff
   3365  2066					      repend
   3366  2067		       ff		      .byte.b	$ff
   3365  2067					      repend
   3366  2068		       ff		      .byte.b	$ff
   3365  2068					      repend
   3366  2069		       ff		      .byte.b	$ff
   3365  2069					      repend
   3366  206a		       ff		      .byte.b	$ff
   3365  206a					      repend
   3366  206b		       ff		      .byte.b	$ff
   3365  206b					      repend
   3366  206c		       ff		      .byte.b	$ff
   3365  206c					      repend
   3366  206d		       ff		      .byte.b	$ff
   3365  206d					      repend
   3366  206e		       ff		      .byte.b	$ff
   3365  206e					      repend
   3366  206f		       ff		      .byte.b	$ff
   3365  206f					      repend
   3366  2070		       ff		      .byte.b	$ff
   3365  2070					      repend
   3366  2071		       ff		      .byte.b	$ff
   3365  2071					      repend
   3366  2072		       ff		      .byte.b	$ff
   3365  2072					      repend
   3366  2073		       ff		      .byte.b	$ff
   3365  2073					      repend
   3366  2074		       ff		      .byte.b	$ff
   3365  2074					      repend
   3366  2075		       ff		      .byte.b	$ff
   3365  2075					      repend
   3366  2076		       ff		      .byte.b	$ff
   3365  2076					      repend
   3366  2077		       ff		      .byte.b	$ff
   3365  2077					      repend
   3366  2078		       ff		      .byte.b	$ff
   3365  2078					      repend
   3366  2079		       ff		      .byte.b	$ff
   3365  2079					      repend
   3366  207a		       ff		      .byte.b	$ff
   3365  207a					      repend
   3366  207b		       ff		      .byte.b	$ff
   3365  207b					      repend
   3366  207c		       ff		      .byte.b	$ff
   3365  207c					      repend
   3366  207d		       ff		      .byte.b	$ff
   3365  207d					      repend
   3366  207e		       ff		      .byte.b	$ff
   3365  207e					      repend
   3366  207f		       ff		      .byte.b	$ff
   3365  207f					      repend
   3366  2080		       ff		      .byte.b	$ff
   3365  2080					      repend
   3366  2081		       ff		      .byte.b	$ff
   3365  2081					      repend
   3366  2082		       ff		      .byte.b	$ff
   3365  2082					      repend
   3366  2083		       ff		      .byte.b	$ff
   3365  2083					      repend
   3366  2084		       ff		      .byte.b	$ff
   3365  2084					      repend
   3366  2085		       ff		      .byte.b	$ff
   3365  2085					      repend
   3366  2086		       ff		      .byte.b	$ff
   3365  2086					      repend
   3366  2087		       ff		      .byte.b	$ff
   3365  2087					      repend
   3366  2088		       ff		      .byte.b	$ff
   3365  2088					      repend
   3366  2089		       ff		      .byte.b	$ff
   3365  2089					      repend
   3366  208a		       ff		      .byte.b	$ff
   3365  208a					      repend
   3366  208b		       ff		      .byte.b	$ff
   3365  208b					      repend
   3366  208c		       ff		      .byte.b	$ff
   3365  208c					      repend
   3366  208d		       ff		      .byte.b	$ff
   3365  208d					      repend
   3366  208e		       ff		      .byte.b	$ff
   3365  208e					      repend
   3366  208f		       ff		      .byte.b	$ff
   3365  208f					      repend
   3366  2090		       ff		      .byte.b	$ff
   3365  2090					      repend
   3366  2091		       ff		      .byte.b	$ff
   3365  2091					      repend
   3366  2092		       ff		      .byte.b	$ff
   3365  2092					      repend
   3366  2093		       ff		      .byte.b	$ff
   3365  2093					      repend
   3366  2094		       ff		      .byte.b	$ff
   3365  2094					      repend
   3366  2095		       ff		      .byte.b	$ff
   3365  2095					      repend
   3366  2096		       ff		      .byte.b	$ff
   3365  2096					      repend
   3366  2097		       ff		      .byte.b	$ff
   3365  2097					      repend
   3366  2098		       ff		      .byte.b	$ff
   3365  2098					      repend
   3366  2099		       ff		      .byte.b	$ff
   3365  2099					      repend
   3366  209a		       ff		      .byte.b	$ff
   3365  209a					      repend
   3366  209b		       ff		      .byte.b	$ff
   3365  209b					      repend
   3366  209c		       ff		      .byte.b	$ff
   3365  209c					      repend
   3366  209d		       ff		      .byte.b	$ff
   3365  209d					      repend
   3366  209e		       ff		      .byte.b	$ff
   3365  209e					      repend
   3366  209f		       ff		      .byte.b	$ff
   3365  209f					      repend
   3366  20a0		       ff		      .byte.b	$ff
   3365  20a0					      repend
   3366  20a1		       ff		      .byte.b	$ff
   3365  20a1					      repend
   3366  20a2		       ff		      .byte.b	$ff
   3365  20a2					      repend
   3366  20a3		       ff		      .byte.b	$ff
   3365  20a3					      repend
   3366  20a4		       ff		      .byte.b	$ff
   3365  20a4					      repend
   3366  20a5		       ff		      .byte.b	$ff
   3365  20a5					      repend
   3366  20a6		       ff		      .byte.b	$ff
   3365  20a6					      repend
   3366  20a7		       ff		      .byte.b	$ff
   3365  20a7					      repend
   3366  20a8		       ff		      .byte.b	$ff
   3365  20a8					      repend
   3366  20a9		       ff		      .byte.b	$ff
   3365  20a9					      repend
   3366  20aa		       ff		      .byte.b	$ff
   3365  20aa					      repend
   3366  20ab		       ff		      .byte.b	$ff
   3365  20ab					      repend
   3366  20ac		       ff		      .byte.b	$ff
   3365  20ac					      repend
   3366  20ad		       ff		      .byte.b	$ff
   3365  20ad					      repend
   3366  20ae		       ff		      .byte.b	$ff
   3365  20ae					      repend
   3366  20af		       ff		      .byte.b	$ff
   3365  20af					      repend
   3366  20b0		       ff		      .byte.b	$ff
   3365  20b0					      repend
   3366  20b1		       ff		      .byte.b	$ff
   3365  20b1					      repend
   3366  20b2		       ff		      .byte.b	$ff
   3365  20b2					      repend
   3366  20b3		       ff		      .byte.b	$ff
   3365  20b3					      repend
   3366  20b4		       ff		      .byte.b	$ff
   3365  20b4					      repend
   3366  20b5		       ff		      .byte.b	$ff
   3365  20b5					      repend
   3366  20b6		       ff		      .byte.b	$ff
   3365  20b6					      repend
   3366  20b7		       ff		      .byte.b	$ff
   3365  20b7					      repend
   3366  20b8		       ff		      .byte.b	$ff
   3365  20b8					      repend
   3366  20b9		       ff		      .byte.b	$ff
   3365  20b9					      repend
   3366  20ba		       ff		      .byte.b	$ff
   3365  20ba					      repend
   3366  20bb		       ff		      .byte.b	$ff
   3365  20bb					      repend
   3366  20bc		       ff		      .byte.b	$ff
   3365  20bc					      repend
   3366  20bd		       ff		      .byte.b	$ff
   3365  20bd					      repend
   3366  20be		       ff		      .byte.b	$ff
   3365  20be					      repend
   3366  20bf		       ff		      .byte.b	$ff
   3365  20bf					      repend
   3366  20c0		       ff		      .byte.b	$ff
   3365  20c0					      repend
   3366  20c1		       ff		      .byte.b	$ff
   3365  20c1					      repend
   3366  20c2		       ff		      .byte.b	$ff
   3365  20c2					      repend
   3366  20c3		       ff		      .byte.b	$ff
   3365  20c3					      repend
   3366  20c4		       ff		      .byte.b	$ff
   3365  20c4					      repend
   3366  20c5		       ff		      .byte.b	$ff
   3365  20c5					      repend
   3366  20c6		       ff		      .byte.b	$ff
   3365  20c6					      repend
   3366  20c7		       ff		      .byte.b	$ff
   3365  20c7					      repend
   3366  20c8		       ff		      .byte.b	$ff
   3365  20c8					      repend
   3366  20c9		       ff		      .byte.b	$ff
   3365  20c9					      repend
   3366  20ca		       ff		      .byte.b	$ff
   3365  20ca					      repend
   3366  20cb		       ff		      .byte.b	$ff
   3365  20cb					      repend
   3366  20cc		       ff		      .byte.b	$ff
   3365  20cc					      repend
   3366  20cd		       ff		      .byte.b	$ff
   3365  20cd					      repend
   3366  20ce		       ff		      .byte.b	$ff
   3365  20ce					      repend
   3366  20cf		       ff		      .byte.b	$ff
   3365  20cf					      repend
   3366  20d0		       ff		      .byte.b	$ff
   3365  20d0					      repend
   3366  20d1		       ff		      .byte.b	$ff
   3365  20d1					      repend
   3366  20d2		       ff		      .byte.b	$ff
   3365  20d2					      repend
   3366  20d3		       ff		      .byte.b	$ff
   3365  20d3					      repend
   3366  20d4		       ff		      .byte.b	$ff
   3365  20d4					      repend
   3366  20d5		       ff		      .byte.b	$ff
   3365  20d5					      repend
   3366  20d6		       ff		      .byte.b	$ff
   3365  20d6					      repend
   3366  20d7		       ff		      .byte.b	$ff
   3365  20d7					      repend
   3366  20d8		       ff		      .byte.b	$ff
   3365  20d8					      repend
   3366  20d9		       ff		      .byte.b	$ff
   3365  20d9					      repend
   3366  20da		       ff		      .byte.b	$ff
   3365  20da					      repend
   3366  20db		       ff		      .byte.b	$ff
   3365  20db					      repend
   3366  20dc		       ff		      .byte.b	$ff
   3365  20dc					      repend
   3366  20dd		       ff		      .byte.b	$ff
   3365  20dd					      repend
   3366  20de		       ff		      .byte.b	$ff
   3365  20de					      repend
   3366  20df		       ff		      .byte.b	$ff
   3365  20df					      repend
   3366  20e0		       ff		      .byte.b	$ff
   3365  20e0					      repend
   3366  20e1		       ff		      .byte.b	$ff
   3365  20e1					      repend
   3366  20e2		       ff		      .byte.b	$ff
   3365  20e2					      repend
   3366  20e3		       ff		      .byte.b	$ff
   3365  20e3					      repend
   3366  20e4		       ff		      .byte.b	$ff
   3365  20e4					      repend
   3366  20e5		       ff		      .byte.b	$ff
   3365  20e5					      repend
   3366  20e6		       ff		      .byte.b	$ff
   3365  20e6					      repend
   3366  20e7		       ff		      .byte.b	$ff
   3365  20e7					      repend
   3366  20e8		       ff		      .byte.b	$ff
   3365  20e8					      repend
   3366  20e9		       ff		      .byte.b	$ff
   3365  20e9					      repend
   3366  20ea		       ff		      .byte.b	$ff
   3365  20ea					      repend
   3366  20eb		       ff		      .byte.b	$ff
   3365  20eb					      repend
   3366  20ec		       ff		      .byte.b	$ff
   3365  20ec					      repend
   3366  20ed		       ff		      .byte.b	$ff
   3365  20ed					      repend
   3366  20ee		       ff		      .byte.b	$ff
   3365  20ee					      repend
   3366  20ef		       ff		      .byte.b	$ff
   3365  20ef					      repend
   3366  20f0		       ff		      .byte.b	$ff
   3365  20f0					      repend
   3366  20f1		       ff		      .byte.b	$ff
   3365  20f1					      repend
   3366  20f2		       ff		      .byte.b	$ff
   3365  20f2					      repend
   3366  20f3		       ff		      .byte.b	$ff
   3365  20f3					      repend
   3366  20f4		       ff		      .byte.b	$ff
   3365  20f4					      repend
   3366  20f5		       ff		      .byte.b	$ff
   3365  20f5					      repend
   3366  20f6		       ff		      .byte.b	$ff
   3365  20f6					      repend
   3366  20f7		       ff		      .byte.b	$ff
   3365  20f7					      repend
   3366  20f8		       ff		      .byte.b	$ff
   3365  20f8					      repend
   3366  20f9		       ff		      .byte.b	$ff
   3365  20f9					      repend
   3366  20fa		       ff		      .byte.b	$ff
   3365  20fa					      repend
   3366  20fb		       ff		      .byte.b	$ff
   3365  20fb					      repend
   3366  20fc		       ff		      .byte.b	$ff
   3365  20fc					      repend
   3366  20fd		       ff		      .byte.b	$ff
   3365  20fd					      repend
   3366  20fe		       ff		      .byte.b	$ff
   3365  20fe					      repend
   3366  20ff		       ff		      .byte.b	$ff
   3367  2100					      repend
   3368  2100				   .
   3369  2100							;;line 613;;
   3370  2100
   3371  2100				   .
   3372  2100							;;line 614;;
   3373  2100
   3374  2100				   .
   3375  2100							;;line 615;;
   3376  2100
   3377  2100				   .
   3378  2100							;;line 616;;
   3379  2100
   3380  2100				   .
   3381  2100							;;line 617;;
   3382  2100
   3383  2100				   .
   3384  2100							;;line 618;;
   3385  2100
   3386  2100				   .
   3387  2100							;;line 619;;
   3388  2100
   3389  2100				   .__Buster_Sprite
   3390  2100							;;line 620;; __Buster_Sprite
   3391  2100
   3392  2100				   .L0346		;;line 621;;  REFP1 = _Buster_Direction
   3393  2100
   3394  2100		       a5 b1		      LDA	_Buster_Direction
   3395  2102		       85 0c		      STA	REFP1
   3396  2104				   .L0347		;;line 622;;  if _frame  >=  10  &&  _frame  <  15 then player1:
   3397  2104
   3398  2104		       a5 bd		      LDA	_frame
   3399  2106		       c9 0a		      CMP	#10
   3400  2108		       90 12		      BCC	.skipL0347
   3401  210a				   .condpart110
   3402  210a		       a5 bd		      LDA	_frame
   3403  210c		       c9 0f		      CMP	#15
   3404  210e		       b0 0c		      BCS	.skip110then
   3405  2110				   .condpart111
   3406  2110		       a2 c2		      LDX	#<player111then_1
   3407  2112		       86 8c		      STX	player1pointerlo
   3408  2114		       a9 fb		      LDA	#>player111then_1
   3409  2116		       85 8d		      STA	player1pointerhi
   3410  2118		       a9 0c		      LDA	#12
   3411  211a		       85 8f		      STA	player1height
   3412  211c				   .skip110then
   3413  211c				   .skipL0347
   3414  211c				   .L0348		;;line 637;;  player1color:
   3415  211c
   3416  211c		       a2 cf		      LDX	#<playercolorL0348_1
   3417  211e		       86 87		      STX	player1color
   3418  2120		       a9 fb		      LDA	#>playercolorL0348_1
   3419  2122		       85 88		      STA	player1color+1
   3420  2124				   .L0349		;;line 652;;  if _frame  >=  15  &&  _frame  <  20 then player1:
   3421  2124
   3422  2124		       a5 bd		      LDA	_frame
   3423  2126		       c9 0f		      CMP	#15
   3424  2128		       90 12		      BCC	.skipL0349
   3425  212a				   .condpart112
   3426  212a		       a5 bd		      LDA	_frame
   3427  212c		       c9 14		      CMP	#20
   3428  212e		       b0 0c		      BCS	.skip112then
   3429  2130				   .condpart113
   3430  2130		       a2 dc		      LDX	#<player113then_1
   3431  2132		       86 8c		      STX	player1pointerlo
   3432  2134		       a9 fb		      LDA	#>player113then_1
   3433  2136		       85 8d		      STA	player1pointerhi
   3434  2138		       a9 0c		      LDA	#12
   3435  213a		       85 8f		      STA	player1height
   3436  213c				   .skip112then
   3437  213c				   .skipL0349
   3438  213c				   .L0350		;;line 667;;  if _frame  >=  20  &&  _frame  <  25 then player1:
   3439  213c
   3440  213c		       a5 bd		      LDA	_frame
   3441  213e		       c9 14		      CMP	#20
   3442  2140		       90 12		      BCC	.skipL0350
   3443  2142				   .condpart114
   3444  2142		       a5 bd		      LDA	_frame
   3445  2144		       c9 19		      CMP	#25
   3446  2146		       b0 0c		      BCS	.skip114then
   3447  2148				   .condpart115
   3448  2148		       a2 e9		      LDX	#<player115then_1
   3449  214a		       86 8c		      STX	player1pointerlo
   3450  214c		       a9 fb		      LDA	#>player115then_1
   3451  214e		       85 8d		      STA	player1pointerhi
   3452  2150		       a9 0c		      LDA	#12
   3453  2152		       85 8f		      STA	player1height
   3454  2154				   .skip114then
   3455  2154				   .skipL0350
   3456  2154				   .L0351		;;line 682;;  if _frame  >=  25 then player1:
   3457  2154
   3458  2154		       a5 bd		      LDA	_frame
   3459  2156		       c9 19		      CMP	#25
   3460  2158		       90 0c		      BCC	.skipL0351
   3461  215a				   .condpart116
   3462  215a		       a2 00		      LDX	#<player116then_1
   3463  215c		       86 8c		      STX	player1pointerlo
   3464  215e		       a9 fc		      LDA	#>player116then_1
   3465  2160		       85 8d		      STA	player1pointerhi
   3466  2162		       a9 0c		      LDA	#12
   3467  2164		       85 8f		      STA	player1height
   3468  2166				   .skipL0351
   3469  2166				   .L0352		;;line 697;;  if _frame  >=  30 then _frame = 10
   3470  2166
   3471  2166		       a5 bd		      LDA	_frame
   3472  2168		       c9 1e		      CMP	#30
   3473  216a		       90 04		      BCC	.skipL0352
   3474  216c				   .condpart117
   3475  216c		       a9 0a		      LDA	#10
   3476  216e		       85 bd		      STA	_frame
   3477  2170				   .skipL0352
   3478  2170				   .L0353		;;line 698;;  return
   3479  2170
   3480  2170		       ba		      tsx
   3481  2171		       b5 02		      lda	2,x	; check return address
   3482  2173		       49 b1		      eor	#(>*)	; vs. current PCH
   3483  2175		       29 e0		      and	#$E0	;  mask off all but top 3 bits
   3484  2177		       f0 03		      beq	*+5	; if equal, do normal return
   3485  2179		       4c dd ff 	      JMP	BS_return
   3486  217c		       60		      RTS
   3487  217d				   .
   3488  217d							;;line 699;;
   3489  217d
   3490  217d				   .__Ghost_Sprite
   3491  217d							;;line 700;; __Ghost_Sprite
   3492  217d
   3493  217d				   .L0354		;;line 701;;  player0:
   3494  217d
   3495  217d		       a2 0d		      LDX	#<playerL0354_0
   3496  217f		       86 8a		      STX	player0pointerlo
   3497  2181		       a9 fc		      LDA	#>playerL0354_0
   3498  2183		       85 8b		      STA	player0pointerhi
   3499  2185		       a9 06		      LDA	#6
   3500  2187		       85 8e		      STA	player0height
   3501  2189				   .L0355		;;line 710;;  return
   3502  2189
   3503  2189		       ba		      tsx
   3504  218a		       b5 02		      lda	2,x	; check return address
   3505  218c		       49 b1		      eor	#(>*)	; vs. current PCH
   3506  218e		       29 e0		      and	#$E0	;  mask off all but top 3 bits
   3507  2190		       f0 03		      beq	*+5	; if equal, do normal return
   3508  2192		       4c dd ff 	      JMP	BS_return
   3509  2195		       60		      RTS
   3510  2196				   .
   3511  2196							;;line 711;;
   3512  2196
   3513  2196				   .__Add_Points
   3514  2196							;;line 712;; __Add_Points
   3515  2196
   3516  2196				   .L0356		;;line 713;;  scorecolor = $C4  :  _Score_Timer = 60
   3517  2196
   3518  2196		       a9 c4		      LDA	#$C4
   3519  2198		       85 a3		      STA	scorecolor
   3520  219a		       a9 3c		      LDA	#60
   3521  219c		       85 c4		      STA	_Score_Timer
   3522  219e				   .L0357		;;line 714;;  if _Game_Level  >  5 then score = score	+  5000  :  return
   3523  219e
   3524  219e		       a9 05		      LDA	#5
   3525  21a0		       c5 ca		      CMP	_Game_Level
   3526  21a2		       b0 1c		      BCS	.skipL0357
   3527  21a4				   .condpart118
   3528  21a4		       f8		      SED
   3529  21a5		       18		      CLC
   3530  21a6		       a5 94		      LDA	score+1
   3531  21a8		       69 50		      ADC	#$50
   3532  21aa		       85 94		      STA	score+1
   3533  21ac		       a5 93		      LDA	score
   3534  21ae		       69 00		      ADC	#$00
   3535  21b0		       85 93		      STA	score
   3536  21b2		       d8		      CLD
   3537  21b3		       ba		      tsx
   3538  21b4		       b5 02		      lda	2,x	; check return address
   3539  21b6		       49 b1		      eor	#(>*)	; vs. current PCH
   3540  21b8		       29 e0		      and	#$E0	;  mask off all but top 3 bits
   3541  21ba		       f0 03		      beq	*+5	; if equal, do normal return
   3542  21bc		       4c dd ff 	      JMP	BS_return
   3543  21bf		       60		      RTS
   3544  21c0				   .skipL0357
   3545  21c0				   .L0358		;;line 715;;  if _Game_Level = 5 then score = score  +  4000  :  return
   3546  21c0
   3547  21c0		       a5 ca		      LDA	_Game_Level
   3548  21c2		       c9 05		      CMP	#5
   3549  21c4		       d0 1c		      BNE	.skipL0358
   3550  21c6				   .condpart119
   3551  21c6		       f8		      SED
   3552  21c7		       18		      CLC
   3553  21c8		       a5 94		      LDA	score+1
   3554  21ca		       69 40		      ADC	#$40
   3555  21cc		       85 94		      STA	score+1
   3556  21ce		       a5 93		      LDA	score
   3557  21d0		       69 00		      ADC	#$00
   3558  21d2		       85 93		      STA	score
   3559  21d4		       d8		      CLD
   3560  21d5		       ba		      tsx
   3561  21d6		       b5 02		      lda	2,x	; check return address
   3562  21d8		       49 b1		      eor	#(>*)	; vs. current PCH
   3563  21da		       29 e0		      and	#$E0	;  mask off all but top 3 bits
   3564  21dc		       f0 03		      beq	*+5	; if equal, do normal return
   3565  21de		       4c dd ff 	      JMP	BS_return
   3566  21e1		       60		      RTS
   3567  21e2				   .skipL0358
   3568  21e2				   .L0359		;;line 716;;  if _Game_Level = 4 then score = score  +  3000  :  return
   3569  21e2
   3570  21e2		       a5 ca		      LDA	_Game_Level
   3571  21e4		       c9 04		      CMP	#4
   3572  21e6		       d0 1c		      BNE	.skipL0359
   3573  21e8				   .condpart120
   3574  21e8		       f8		      SED
   3575  21e9		       18		      CLC
   3576  21ea		       a5 94		      LDA	score+1
   3577  21ec		       69 30		      ADC	#$30
   3578  21ee		       85 94		      STA	score+1
   3579  21f0		       a5 93		      LDA	score
   3580  21f2		       69 00		      ADC	#$00
   3581  21f4		       85 93		      STA	score
   3582  21f6		       d8		      CLD
   3583  21f7		       ba		      tsx
   3584  21f8		       b5 02		      lda	2,x	; check return address
   3585  21fa		       49 b1		      eor	#(>*)	; vs. current PCH
   3586  21fc		       29 e0		      and	#$E0	;  mask off all but top 3 bits
   3587  21fe		       f0 03		      beq	*+5	; if equal, do normal return
   3588  2200		       4c dd ff 	      JMP	BS_return
   3589  2203		       60		      RTS
   3590  2204				   .skipL0359
   3591  2204				   .L0360		;;line 717;;  if _Game_Level = 3 then score = score  +  2000  :  return
   3592  2204
   3593  2204		       a5 ca		      LDA	_Game_Level
   3594  2206		       c9 03		      CMP	#3
   3595  2208		       d0 1c		      BNE	.skipL0360
   3596  220a				   .condpart121
   3597  220a		       f8		      SED
   3598  220b		       18		      CLC
   3599  220c		       a5 94		      LDA	score+1
   3600  220e		       69 20		      ADC	#$20
   3601  2210		       85 94		      STA	score+1
   3602  2212		       a5 93		      LDA	score
   3603  2214		       69 00		      ADC	#$00
   3604  2216		       85 93		      STA	score
   3605  2218		       d8		      CLD
   3606  2219		       ba		      tsx
   3607  221a		       b5 02		      lda	2,x	; check return address
   3608  221c		       49 b2		      eor	#(>*)	; vs. current PCH
   3609  221e		       29 e0		      and	#$E0	;  mask off all but top 3 bits
   3610  2220		       f0 03		      beq	*+5	; if equal, do normal return
   3611  2222		       4c dd ff 	      JMP	BS_return
   3612  2225		       60		      RTS
   3613  2226				   .skipL0360
   3614  2226				   .L0361		;;line 718;;  if _Game_Level = 2 then score = score  +  1000  :  return
   3615  2226
   3616  2226		       a5 ca		      LDA	_Game_Level
   3617  2228		       c9 02		      CMP	#2
   3618  222a		       d0 1c		      BNE	.skipL0361
   3619  222c				   .condpart122
   3620  222c		       f8		      SED
   3621  222d		       18		      CLC
   3622  222e		       a5 94		      LDA	score+1
   3623  2230		       69 10		      ADC	#$10
   3624  2232		       85 94		      STA	score+1
   3625  2234		       a5 93		      LDA	score
   3626  2236		       69 00		      ADC	#$00
   3627  2238		       85 93		      STA	score
   3628  223a		       d8		      CLD
   3629  223b		       ba		      tsx
   3630  223c		       b5 02		      lda	2,x	; check return address
   3631  223e		       49 b2		      eor	#(>*)	; vs. current PCH
   3632  2240		       29 e0		      and	#$E0	;  mask off all but top 3 bits
   3633  2242		       f0 03		      beq	*+5	; if equal, do normal return
   3634  2244		       4c dd ff 	      JMP	BS_return
   3635  2247		       60		      RTS
   3636  2248				   .skipL0361
   3637  2248				   .L0362		;;line 719;;  if _Game_Level = 1 then score = score  +  500  :  return
   3638  2248
   3639  2248		       a5 ca		      LDA	_Game_Level
   3640  224a		       c9 01		      CMP	#1
   3641  224c		       d0 1c		      BNE	.skipL0362
   3642  224e				   .condpart123
   3643  224e		       f8		      SED
   3644  224f		       18		      CLC
   3645  2250		       a5 94		      LDA	score+1
   3646  2252		       69 05		      ADC	#$05
   3647  2254		       85 94		      STA	score+1
   3648  2256		       a5 93		      LDA	score
   3649  2258		       69 00		      ADC	#$00
   3650  225a		       85 93		      STA	score
   3651  225c		       d8		      CLD
   3652  225d		       ba		      tsx
   3653  225e		       b5 02		      lda	2,x	; check return address
   3654  2260		       49 b2		      eor	#(>*)	; vs. current PCH
   3655  2262		       29 e0		      and	#$E0	;  mask off all but top 3 bits
   3656  2264		       f0 03		      beq	*+5	; if equal, do normal return
   3657  2266		       4c dd ff 	      JMP	BS_return
   3658  2269		       60		      RTS
   3659  226a				   .skipL0362
   3660  226a				   .L0363		;;line 720;;  return
   3661  226a
   3662  226a		       ba		      tsx
   3663  226b		       b5 02		      lda	2,x	; check return address
   3664  226d		       49 b2		      eor	#(>*)	; vs. current PCH
   3665  226f		       29 e0		      and	#$E0	;  mask off all but top 3 bits
   3666  2271		       f0 03		      beq	*+5	; if equal, do normal return
   3667  2273		       4c dd ff 	      JMP	BS_return
   3668  2276		       60		      RTS
   3669  2277				   .
   3670  2277							;;line 721;;
   3671  2277
   3672  2277				   .
   3673  2277							;;line 722;;
   3674  2277
   3675  2277				   .
   3676  2277							;;line 723;;
   3677  2277
   3678  2277				   .
   3679  2277							;;line 724;;
   3680  2277
   3681  2277				   .
   3682  2277							;;line 725;;
   3683  2277
   3684  2277				   .__Move_Ghost
   3685  2277							;;line 726;; __Move_Ghost
   3686  2277
   3687  2277				   .
   3688  2277							;;line 727;;
   3689  2277
   3690  2277				   .L0364		;;line 728;;  if _Ghost1_Room	<>  _Buster_Room  &&  _Ghost2_Room  <>	_Buster_Room  &&  _Ghost3_Room	<>  _Buster_Room then return
   3691  2277
   3692  2277		       a5 a8		      LDA	_Ghost1_Room
   3693  2279		       c5 a7		      CMP	_Buster_Room
   3694  227b		       f0 19		      BEQ	.skipL0364
   3695  227d				   .condpart124
   3696  227d		       a5 a9		      LDA	_Ghost2_Room
   3697  227f		       c5 a7		      CMP	_Buster_Room
   3698  2281		       f0 13		      BEQ	.skip124then
   3699  2283				   .condpart125
   3700  2283		       a5 aa		      LDA	_Ghost3_Room
   3701  2285		       c5 a7		      CMP	_Buster_Room
   3702  2287		       f0 0d		      BEQ	.skip125then
   3703  2289				   .condpart126
   3704  2289		       ba		      tsx
   3705  228a		       b5 02		      lda	2,x	; check return address
   3706  228c		       49 b2		      eor	#(>*)	; vs. current PCH
   3707  228e		       29 e0		      and	#$E0	;  mask off all but top 3 bits
   3708  2290		       f0 03		      beq	*+5	; if equal, do normal return
   3709  2292		       4c dd ff 	      JMP	BS_return
   3710  2295		       60		      RTS
   3711  2296				   .skip125then
   3712  2296				   .skip124then
   3713  2296				   .skipL0364
   3714  2296				   .
   3715  2296							;;line 729;;
   3716  2296
   3717  2296				   .
   3718  2296							;;line 730;;
   3719  2296
   3720  2296				   .L0365		;;line 731;;  if !_Bit3_Stunned_Ghost{3} then goto __Not_Stunned
   3721  2296
   3722  2296		       a5 d2		      LDA	_Bit3_Stunned_Ghost
   3723  2298		       29 08		      AND	#8
   3724  229a		       d0 03		      BNE	.skipL0365
   3725  229c				   .condpart127
   3726  229c		       4c be b2 	      jmp	.__Not_Stunned
   3727  229f
   3728  229f				   .skipL0365
   3729  229f				   .L0366		;;line 732;;  _Stun_Timer = _Stun_Timer  +  1
   3730  229f
   3731  229f		       e6 be		      INC	_Stun_Timer
   3732  22a1				   .L0367		;;line 733;;  if _Stun_Timer  >  15 then _Bit3_Stunned_Ghost{3} = 0  :  _Stun_Timer = 0
   3733  22a1
   3734  22a1		       a9 0f		      LDA	#15
   3735  22a3		       c5 be		      CMP	_Stun_Timer
   3736  22a5		       b0 0a		      BCS	.skipL0367
   3737  22a7				   .condpart128
   3738  22a7		       a5 d2		      LDA	_Bit3_Stunned_Ghost
   3739  22a9		       29 f7		      AND	#247
   3740  22ab		       85 d2		      STA	_Bit3_Stunned_Ghost
   3741  22ad		       a9 00		      LDA	#0
   3742  22af		       85 be		      STA	_Stun_Timer
   3743  22b1				   .skipL0367
   3744  22b1				   .L0368		;;line 734;;  return
   3745  22b1
   3746  22b1		       ba		      tsx
   3747  22b2		       b5 02		      lda	2,x	; check return address
   3748  22b4		       49 b2		      eor	#(>*)	; vs. current PCH
   3749  22b6		       29 e0		      and	#$E0	;  mask off all but top 3 bits
   3750  22b8		       f0 03		      beq	*+5	; if equal, do normal return
   3751  22ba		       4c dd ff 	      JMP	BS_return
   3752  22bd		       60		      RTS
   3753  22be				   .
   3754  22be							;;line 735;;
   3755  22be
   3756  22be				   .
   3757  22be							;;line 736;;
   3758  22be
   3759  22be				   .__Not_Stunned
   3760  22be							;;line 737;; __Not_Stunned
   3761  22be
   3762  22be				   .L0369		;;line 738;;  _Room_Counter = _Room_Counter  +  1
   3763  22be
   3764  22be		       e6 d0		      INC	_Room_Counter
   3765  22c0				   .L0370		;;line 739;;  if _Room_Counter = 60 then _Visit_Length = _Visit_Length  -  1  :  _Room_Counter = 0
   3766  22c0
   3767  22c0		       a5 d0		      LDA	_Room_Counter
   3768  22c2		       c9 3c		      CMP	#60
   3769  22c4		       d0 06		      BNE	.skipL0370
   3770  22c6				   .condpart129
   3771  22c6		       c6 ce		      DEC	_Visit_Length
   3772  22c8		       a9 00		      LDA	#0
   3773  22ca		       85 d0		      STA	_Room_Counter
   3774  22cc				   .skipL0370
   3775  22cc				   .L0371		;;line 740;;  if _Visit_Length  >  2 then goto __Still_In_Room
   3776  22cc
   3777  22cc		       a9 02		      LDA	#2
   3778  22ce		       c5 ce		      CMP	_Visit_Length
   3779  22d0		       b0 03		      BCS	.skipL0371
   3780  22d2				   .condpart130
   3781  22d2		       4c 37 b3 	      jmp	.__Still_In_Room
   3782  22d5
   3783  22d5				   .skipL0371
   3784  22d5				   .L0372		;;line 741;;  if _Visit_Length  >  1 then goto __Flicker
   3785  22d5
   3786  22d5		       a9 01		      LDA	#1
   3787  22d7		       c5 ce		      CMP	_Visit_Length
   3788  22d9		       b0 03		      BCS	.skipL0372
   3789  22db				   .condpart131
   3790  22db		       4c 1f b3 	      jmp	.__Flicker
   3791  22de
   3792  22de				   .skipL0372
   3793  22de				   .
   3794  22de							;;line 742;;
   3795  22de
   3796  22de				   .L0373		;;line 743;;  gosub __Spawn_Ghosts bank1
   3797  22de
   3798  22de		       85 ee		      sta	temp7
   3799  22e0		       a9 b2		      lda	#>(ret_point32-1)
   3800  22e2		       48		      pha
   3801  22e3		       a9 f5		      lda	#<(ret_point32-1)
   3802  22e5		       48		      pha
   3803  22e6		       a9 9c		      lda	#>(.__Spawn_Ghosts-1)
   3804  22e8		       48		      pha
   3805  22e9		       a9 32		      lda	#<(.__Spawn_Ghosts-1)
   3806  22eb		       48		      pha
   3807  22ec		       a5 ee		      lda	temp7
   3808  22ee		       48		      pha
   3809  22ef		       8a		      txa
   3810  22f0		       48		      pha
   3811  22f1		       a2 01		      ldx	#1
   3812  22f3		       4c eb ff 	      jmp	BS_jsr
   3813  22f6				   ret_point32
   3814  22f6				   .L0374		;;line 744;;  _Distance_to_Ghost = 255
   3815  22f6
   3816  22f6		       a9 ff		      LDA	#255
   3817  22f8		       85 b5		      STA	_Distance_to_Ghost
   3818  22fa				   .L0375		;;line 745;;  gosub __Set_Room_Layout bank3
   3819  22fa
   3820  22fa		       85 ee		      sta	temp7
   3821  22fc		       a9 b3		      lda	#>(ret_point33-1)
   3822  22fe		       48		      pha
   3823  22ff		       a9 11		      lda	#<(ret_point33-1)
   3824  2301		       48		      pha
   3825  2302		       a9 d1		      lda	#>(.__Set_Room_Layout-1)
   3826  2304		       48		      pha
   3827  2305		       a9 66		      lda	#<(.__Set_Room_Layout-1)
   3828  2307		       48		      pha
   3829  2308		       a5 ee		      lda	temp7
   3830  230a		       48		      pha
   3831  230b		       8a		      txa
   3832  230c		       48		      pha
   3833  230d		       a2 03		      ldx	#3
   3834  230f		       4c eb ff 	      jmp	BS_jsr
   3835  2312				   ret_point33
   3836  2312				   .L0376		;;line 746;;  return
   3837  2312
   3838  2312		       ba		      tsx
   3839  2313		       b5 02		      lda	2,x	; check return address
   3840  2315		       49 b3		      eor	#(>*)	; vs. current PCH
   3841  2317		       29 e0		      and	#$E0	;  mask off all but top 3 bits
   3842  2319		       f0 03		      beq	*+5	; if equal, do normal return
   3843  231b		       4c dd ff 	      JMP	BS_return
   3844  231e		       60		      RTS
   3845  231f				   .
   3846  231f							;;line 747;;
   3847  231f
   3848  231f				   .__Flicker
   3849  231f							;;line 748;; __Flicker
   3850  231f
   3851  231f				   .L0377		;;line 749;;  gosub __Play_Disappear_SFX bank2
   3852  231f
   3853  231f		       85 ee		      sta	temp7
   3854  2321		       a9 b3		      lda	#>(ret_point34-1)
   3855  2323		       48		      pha
   3856  2324		       a9 36		      lda	#<(ret_point34-1)
   3857  2326		       48		      pha
   3858  2327		       a9 b8		      lda	#>(.__Play_Disappear_SFX-1)
   3859  2329		       48		      pha
   3860  232a		       a9 a3		      lda	#<(.__Play_Disappear_SFX-1)
   3861  232c		       48		      pha
   3862  232d		       a5 ee		      lda	temp7
   3863  232f		       48		      pha
   3864  2330		       8a		      txa
   3865  2331		       48		      pha
   3866  2332		       a2 02		      ldx	#2
   3867  2334		       4c eb ff 	      jmp	BS_jsr
   3868  2337				   ret_point34
   3869  2337				   .
   3870  2337							;;line 750;;
   3871  2337
   3872  2337				   .__Still_In_Room
   3873  2337							;;line 751;; __Still_In_Room
   3874  2337
   3875  2337				   .L0378		;;line 752;;  if  ( _Game_Timer  &  _Ghost_Speed_Mask )  then return
   3876  2337
   3877  2337							; complex statement detected
   3878  2337		       a5 b4		      LDA	_Game_Timer
   3879  2339		       25 cd		      AND	_Ghost_Speed_Mask
   3880  233b		       f0 0d		      BEQ	.skipL0378
   3881  233d				   .condpart132
   3882  233d		       ba		      tsx
   3883  233e		       b5 02		      lda	2,x	; check return address
   3884  2340		       49 b3		      eor	#(>*)	; vs. current PCH
   3885  2342		       29 e0		      and	#$E0	;  mask off all but top 3 bits
   3886  2344		       f0 03		      beq	*+5	; if equal, do normal return
   3887  2346		       4c dd ff 	      JMP	BS_return
   3888  2349		       60		      RTS
   3889  234a				   .skipL0378
   3890  234a				   .
   3891  234a							;;line 753;;
   3892  234a
   3893  234a				   .L0379		;;line 754;;  if _Bit2_Wand_Lock{2} then goto __Choose_To_Chase
   3894  234a
   3895  234a		       a5 d2		      LDA	_Bit2_Wand_Lock
   3896  234c		       29 04		      AND	#4
   3897  234e		       f0 03		      BEQ	.skipL0379
   3898  2350				   .condpart133
   3899  2350		       4c 24 b4 	      jmp	.__Choose_To_Chase
   3900  2353
   3901  2353				   .skipL0379
   3902  2353				   .L0380		;;line 755;;  if _Game_Level  >  4 then goto __Choose_To_Chase
   3903  2353
   3904  2353		       a9 04		      LDA	#4
   3905  2355		       c5 ca		      CMP	_Game_Level
   3906  2357		       b0 03		      BCS	.skipL0380
   3907  2359				   .condpart134
   3908  2359		       4c 24 b4 	      jmp	.__Choose_To_Chase
   3909  235c
   3910  235c				   .skipL0380
   3911  235c				   .
   3912  235c							;;line 756;;
   3913  235c
   3914  235c				   .L0381		;;line 757;;  if _Ghost_Timer	>  0 then goto __Keep_Moving
   3915  235c
   3916  235c		       a9 00		      LDA	#0
   3917  235e		       c5 b3		      CMP	_Ghost_Timer
   3918  2360		       b0 03		      BCS	.skipL0381
   3919  2362				   .condpart135
   3920  2362		       4c ab b4 	      jmp	.__Keep_Moving
   3921  2365
   3922  2365				   .skipL0381
   3923  2365				   .
   3924  2365							;;line 758;;
   3925  2365
   3926  2365				   .L0382		;;line 759;;  _Ghost_Timer =  ( rand  &  _Timer_Mask )   +  10
   3927  2365
   3928  2365							; complex statement detected
   3929  2365		       85 ee		      sta	temp7
   3930  2367		       a9 b3		      lda	#>(ret_point35-1)
   3931  2369		       48		      pha
   3932  236a		       a9 7c		      lda	#<(ret_point35-1)
   3933  236c		       48		      pha
   3934  236d		       a9 f5		      lda	#>(randomize-1)
   3935  236f		       48		      pha
   3936  2370		       a9 76		      lda	#<(randomize-1)
   3937  2372		       48		      pha
   3938  2373		       a5 ee		      lda	temp7
   3939  2375		       48		      pha
   3940  2376		       8a		      txa
   3941  2377		       48		      pha
   3942  2378		       a2 04		      ldx	#4
   3943  237a		       4c eb ff 	      jmp	BS_jsr
   3944  237d				   ret_point35
   3945  237d		       25 cf		      AND	_Timer_Mask
   3946  237f		       18		      CLC
   3947  2380		       69 0a		      ADC	#10
   3948  2382		       85 b3		      STA	_Ghost_Timer
   3949  2384				   .
   3950  2384							;;line 760;;
   3951  2384
   3952  2384				   .L0383		;;line 761;;  temp5 = player1x  -  _Ghost_x  :  if _Ghost_x  >  player1x then temp5 = _Ghost_x  -  player1x
   3953  2384
   3954  2384		       a5 81		      LDA	player1x
   3955  2386		       38		      SEC
   3956  2387		       e5 af		      SBC	_Ghost_x
   3957  2389		       85 a0		      STA	temp5
   3958  238b		       a5 81		      LDA	player1x
   3959  238d		       c5 af		      CMP	_Ghost_x
   3960  238f		       b0 07		      BCS	.skipL0383
   3961  2391				   .condpart136
   3962  2391		       a5 af		      LDA	_Ghost_x
   3963  2393		       38		      SEC
   3964  2394		       e5 81		      SBC	player1x
   3965  2396		       85 a0		      STA	temp5
   3966  2398				   .skipL0383
   3967  2398				   .L0384		;;line 762;;  temp6 = player1y  -  _Ghost_y  :  if _Ghost_y  >  player1y then temp6 = _Ghost_y  -  player1y
   3968  2398
   3969  2398		       a5 86		      LDA	player1y
   3970  239a		       38		      SEC
   3971  239b		       e5 b0		      SBC	_Ghost_y
   3972  239d		       85 a1		      STA	temp6
   3973  239f		       a5 86		      LDA	player1y
   3974  23a1		       c5 b0		      CMP	_Ghost_y
   3975  23a3		       b0 07		      BCS	.skipL0384
   3976  23a5				   .condpart137
   3977  23a5		       a5 b0		      LDA	_Ghost_y
   3978  23a7		       38		      SEC
   3979  23a8		       e5 86		      SBC	player1y
   3980  23aa		       85 a1		      STA	temp6
   3981  23ac				   .skipL0384
   3982  23ac				   .
   3983  23ac							;;line 763;;
   3984  23ac
   3985  23ac				   .L0385		;;line 764;;  if temp5  >  _Flee_Range  &&  temp6  >  _Flee_Range then _Ghost_Direction =  ( rand  &  3 )   :	goto __Keep_Moving
   3986  23ac
   3987  23ac		       a5 d1		      LDA	_Flee_Range
   3988  23ae		       c5 a0		      CMP	temp5
   3989  23b0		       b0 25		      BCS	.skipL0385
   3990  23b2				   .condpart138
   3991  23b2		       a5 d1		      LDA	_Flee_Range
   3992  23b4		       c5 a1		      CMP	temp6
   3993  23b6		       b0 1f		      BCS	.skip138then
   3994  23b8				   .condpart139
   3995  23b8							; complex statement detected
   3996  23b8		       85 ee		      sta	temp7
   3997  23ba		       a9 b3		      lda	#>(ret_point36-1)
   3998  23bc		       48		      pha
   3999  23bd		       a9 cf		      lda	#<(ret_point36-1)
   4000  23bf		       48		      pha
   4001  23c0		       a9 f5		      lda	#>(randomize-1)
   4002  23c2		       48		      pha
   4003  23c3		       a9 76		      lda	#<(randomize-1)
   4004  23c5		       48		      pha
   4005  23c6		       a5 ee		      lda	temp7
   4006  23c8		       48		      pha
   4007  23c9		       8a		      txa
   4008  23ca		       48		      pha
   4009  23cb		       a2 04		      ldx	#4
   4010  23cd		       4c eb ff 	      jmp	BS_jsr
   4011  23d0				   ret_point36
   4012  23d0		       29 03		      AND	#3
   4013  23d2		       85 b2		      STA	_Ghost_Direction
   4014  23d4		       4c ab b4 	      jmp	.__Keep_Moving
   4015  23d7
   4016  23d7				   .skip138then
   4017  23d7				   .skipL0385
   4018  23d7				   .L0386		;;line 765;;  if  ( rand  &  1 )  then goto __Choose_To_Flee_X else goto __Choose_To_Flee_Y
   4019  23d7
   4020  23d7							; complex statement detected
   4021  23d7		       85 ee		      sta	temp7
   4022  23d9		       a9 b3		      lda	#>(ret_point37-1)
   4023  23db		       48		      pha
   4024  23dc		       a9 ee		      lda	#<(ret_point37-1)
   4025  23de		       48		      pha
   4026  23df		       a9 f5		      lda	#>(randomize-1)
   4027  23e1		       48		      pha
   4028  23e2		       a9 76		      lda	#<(randomize-1)
   4029  23e4		       48		      pha
   4030  23e5		       a5 ee		      lda	temp7
   4031  23e7		       48		      pha
   4032  23e8		       8a		      txa
   4033  23e9		       48		      pha
   4034  23ea		       a2 04		      ldx	#4
   4035  23ec		       4c eb ff 	      jmp	BS_jsr
   4036  23ef				   ret_point37
   4037  23ef		       29 01		      AND	#1
   4038  23f1		       f0 06		      BEQ	.skipL0386
   4039  23f3				   .condpart140
   4040  23f3		       4c fc b3 	      jmp	.__Choose_To_Flee_X
   4041  23f6		       4c fc b3 	      jmp	.skipelse6
   4042  23f9				   .skipL0386
   4043  23f9		       4c 10 b4 	      jmp	.__Choose_To_Flee_Y
   4044  23fc
   4045  23fc				   .skipelse6
   4046  23fc				   .
   4047  23fc							;;line 766;;
   4048  23fc
   4049  23fc				   .__Choose_To_Flee_X
   4050  23fc							;;line 767;; __Choose_To_Flee_X
   4051  23fc
   4052  23fc				   .L0387		;;line 768;;  if player1x  >  _Ghost_x then _Ghost_Direction = 2 else _Ghost_Direction = 3
   4053  23fc
   4054  23fc		       a5 af		      LDA	_Ghost_x
   4055  23fe		       c5 81		      CMP	player1x
   4056  2400		       b0 07		      BCS	.skipL0387
   4057  2402				   .condpart141
   4058  2402		       a9 02		      LDA	#2
   4059  2404		       85 b2		      STA	_Ghost_Direction
   4060  2406		       4c 0d b4 	      jmp	.skipelse7
   4061  2409				   .skipL0387
   4062  2409		       a9 03		      LDA	#3
   4063  240b		       85 b2		      STA	_Ghost_Direction
   4064  240d				   .skipelse7
   4065  240d				   .L0388		;;line 769;;  goto __Keep_Moving
   4066  240d
   4067  240d		       4c ab b4 	      jmp	.__Keep_Moving
   4068  2410
   4069  2410				   .
   4070  2410							;;line 770;;
   4071  2410
   4072  2410				   .__Choose_To_Flee_Y
   4073  2410							;;line 771;; __Choose_To_Flee_Y
   4074  2410
   4075  2410				   .L0389		;;line 772;;  if player1y  >  _Ghost_y then _Ghost_Direction = 0 else _Ghost_Direction = 1
   4076  2410
   4077  2410		       a5 b0		      LDA	_Ghost_y
   4078  2412		       c5 86		      CMP	player1y
   4079  2414		       b0 07		      BCS	.skipL0389
   4080  2416				   .condpart142
   4081  2416		       a9 00		      LDA	#0
   4082  2418		       85 b2		      STA	_Ghost_Direction
   4083  241a		       4c 21 b4 	      jmp	.skipelse8
   4084  241d				   .skipL0389
   4085  241d		       a9 01		      LDA	#1
   4086  241f		       85 b2		      STA	_Ghost_Direction
   4087  2421				   .skipelse8
   4088  2421				   .L0390		;;line 773;;  goto __Keep_Moving
   4089  2421
   4090  2421		       4c ab b4 	      jmp	.__Keep_Moving
   4091  2424
   4092  2424				   .
   4093  2424							;;line 774;;
   4094  2424
   4095  2424				   .__Choose_To_Chase
   4096  2424							;;line 775;; __Choose_To_Chase
   4097  2424
   4098  2424				   .L0391		;;line 776;;  if _Ghost_Timer	>  0 then goto __Keep_Moving
   4099  2424
   4100  2424		       a9 00		      LDA	#0
   4101  2426		       c5 b3		      CMP	_Ghost_Timer
   4102  2428		       b0 03		      BCS	.skipL0391
   4103  242a				   .condpart143
   4104  242a		       4c ab b4 	      jmp	.__Keep_Moving
   4105  242d
   4106  242d				   .skipL0391
   4107  242d				   .
   4108  242d							;;line 777;;
   4109  242d
   4110  242d				   .L0392		;;line 778;;  _Ghost_Timer =  ( rand  &  _Timer_Mask )   +  10
   4111  242d
   4112  242d							; complex statement detected
   4113  242d		       85 ee		      sta	temp7
   4114  242f		       a9 b4		      lda	#>(ret_point38-1)
   4115  2431		       48		      pha
   4116  2432		       a9 44		      lda	#<(ret_point38-1)
   4117  2434		       48		      pha
   4118  2435		       a9 f5		      lda	#>(randomize-1)
   4119  2437		       48		      pha
   4120  2438		       a9 76		      lda	#<(randomize-1)
   4121  243a		       48		      pha
   4122  243b		       a5 ee		      lda	temp7
   4123  243d		       48		      pha
   4124  243e		       8a		      txa
   4125  243f		       48		      pha
   4126  2440		       a2 04		      ldx	#4
   4127  2442		       4c eb ff 	      jmp	BS_jsr
   4128  2445				   ret_point38
   4129  2445		       25 cf		      AND	_Timer_Mask
   4130  2447		       18		      CLC
   4131  2448		       69 0a		      ADC	#10
   4132  244a		       85 b3		      STA	_Ghost_Timer
   4133  244c				   .
   4134  244c							;;line 779;;
   4135  244c
   4136  244c				   .L0393		;;line 780;;  temp5 = player1x  -  _Ghost_x  :  if _Ghost_x  >  player1x then temp5 = _Ghost_x  -  player1x
   4137  244c
   4138  244c		       a5 81		      LDA	player1x
   4139  244e		       38		      SEC
   4140  244f		       e5 af		      SBC	_Ghost_x
   4141  2451		       85 a0		      STA	temp5
   4142  2453		       a5 81		      LDA	player1x
   4143  2455		       c5 af		      CMP	_Ghost_x
   4144  2457		       b0 07		      BCS	.skipL0393
   4145  2459				   .condpart144
   4146  2459		       a5 af		      LDA	_Ghost_x
   4147  245b		       38		      SEC
   4148  245c		       e5 81		      SBC	player1x
   4149  245e		       85 a0		      STA	temp5
   4150  2460				   .skipL0393
   4151  2460				   .L0394		;;line 781;;  temp6 = player1y  -  _Ghost_y  :  if _Ghost_y  >  player1y then temp6 = _Ghost_y  -  player1y
   4152  2460
   4153  2460		       a5 86		      LDA	player1y
   4154  2462		       38		      SEC
   4155  2463		       e5 b0		      SBC	_Ghost_y
   4156  2465		       85 a1		      STA	temp6
   4157  2467		       a5 86		      LDA	player1y
   4158  2469		       c5 b0		      CMP	_Ghost_y
   4159  246b		       b0 07		      BCS	.skipL0394
   4160  246d				   .condpart145
   4161  246d		       a5 b0		      LDA	_Ghost_y
   4162  246f		       38		      SEC
   4163  2470		       e5 86		      SBC	player1y
   4164  2472		       85 a1		      STA	temp6
   4165  2474				   .skipL0394
   4166  2474				   .
   4167  2474							;;line 782;;
   4168  2474
   4169  2474				   .
   4170  2474							;;line 783;;
   4171  2474
   4172  2474				   .L0395		;;line 784;;  if temp5  >  temp6 then goto __Choose_To_Chase_X else goto __Choose_To_Chase_Y
   4173  2474
   4174  2474		       a5 a1		      LDA	temp6
   4175  2476		       c5 a0		      CMP	temp5
   4176  2478		       b0 06		      BCS	.skipL0395
   4177  247a				   .condpart146
   4178  247a		       4c 83 b4 	      jmp	.__Choose_To_Chase_X
   4179  247d		       4c 83 b4 	      jmp	.skipelse9
   4180  2480				   .skipL0395
   4181  2480		       4c 97 b4 	      jmp	.__Choose_To_Chase_Y
   4182  2483
   4183  2483				   .skipelse9
   4184  2483				   .
   4185  2483							;;line 785;;
   4186  2483
   4187  2483				   .__Choose_To_Chase_X
   4188  2483							;;line 786;; __Choose_To_Chase_X
   4189  2483
   4190  2483				   .L0396		;;line 787;;  if player1x  >  _Ghost_x then _Ghost_Direction = 3 else _Ghost_Direction = 2
   4191  2483
   4192  2483		       a5 af		      LDA	_Ghost_x
   4193  2485		       c5 81		      CMP	player1x
   4194  2487		       b0 07		      BCS	.skipL0396
   4195  2489				   .condpart147
   4196  2489		       a9 03		      LDA	#3
   4197  248b		       85 b2		      STA	_Ghost_Direction
   4198  248d		       4c 94 b4 	      jmp	.skipelse10
   4199  2490				   .skipL0396
   4200  2490		       a9 02		      LDA	#2
   4201  2492		       85 b2		      STA	_Ghost_Direction
   4202  2494				   .skipelse10
   4203  2494				   .L0397		;;line 788;;  goto __Keep_Moving
   4204  2494
   4205  2494		       4c ab b4 	      jmp	.__Keep_Moving
   4206  2497
   4207  2497				   .
   4208  2497							;;line 789;;
   4209  2497
   4210  2497				   .__Choose_To_Chase_Y
   4211  2497							;;line 790;; __Choose_To_Chase_Y
   4212  2497
   4213  2497				   .L0398		;;line 791;;  if player1y  >  _Ghost_y then _Ghost_Direction = 1 else _Ghost_Direction = 0
   4214  2497
   4215  2497		       a5 b0		      LDA	_Ghost_y
   4216  2499		       c5 86		      CMP	player1y
   4217  249b		       b0 07		      BCS	.skipL0398
   4218  249d				   .condpart148
   4219  249d		       a9 01		      LDA	#1
   4220  249f		       85 b2		      STA	_Ghost_Direction
   4221  24a1		       4c a8 b4 	      jmp	.skipelse11
   4222  24a4				   .skipL0398
   4223  24a4		       a9 00		      LDA	#0
   4224  24a6		       85 b2		      STA	_Ghost_Direction
   4225  24a8				   .skipelse11
   4226  24a8				   .L0399		;;line 792;;  goto __Keep_Moving
   4227  24a8
   4228  24a8		       4c ab b4 	      jmp	.__Keep_Moving
   4229  24ab
   4230  24ab				   .
   4231  24ab							;;line 793;;
   4232  24ab
   4233  24ab				   .__Keep_Moving
   4234  24ab							;;line 794;; __Keep_Moving
   4235  24ab
   4236  24ab				   .L0400		;;line 795;;  _Ghost_Timer = _Ghost_Timer  -  1
   4237  24ab
   4238  24ab		       c6 b3		      DEC	_Ghost_Timer
   4239  24ad				   .L0401		;;line 796;;  if _Ghost_Direction = 0 then _Ghost_y = _Ghost_y  -  1  :  goto __Bounce_Out_Of_Corner
   4240  24ad
   4241  24ad		       a5 b2		      LDA	_Ghost_Direction
   4242  24af		       c9 00		      CMP	#0
   4243  24b1		       d0 05		      BNE	.skipL0401
   4244  24b3				   .condpart149
   4245  24b3		       c6 b0		      DEC	_Ghost_y
   4246  24b5		       4c d9 b4 	      jmp	.__Bounce_Out_Of_Corner
   4247  24b8
   4248  24b8				   .skipL0401
   4249  24b8				   .L0402		;;line 797;;  if _Ghost_Direction = 1 then _Ghost_y = _Ghost_y  +  1  :  goto __Bounce_Out_Of_Corner
   4250  24b8
   4251  24b8		       a5 b2		      LDA	_Ghost_Direction
   4252  24ba		       c9 01		      CMP	#1
   4253  24bc		       d0 05		      BNE	.skipL0402
   4254  24be				   .condpart150
   4255  24be		       e6 b0		      INC	_Ghost_y
   4256  24c0		       4c d9 b4 	      jmp	.__Bounce_Out_Of_Corner
   4257  24c3
   4258  24c3				   .skipL0402
   4259  24c3				   .L0403		;;line 798;;  if _Ghost_Direction = 2 then _Ghost_x = _Ghost_x  -  1  :  goto __Bounce_Out_Of_Corner
   4260  24c3
   4261  24c3		       a5 b2		      LDA	_Ghost_Direction
   4262  24c5		       c9 02		      CMP	#2
   4263  24c7		       d0 05		      BNE	.skipL0403
   4264  24c9				   .condpart151
   4265  24c9		       c6 af		      DEC	_Ghost_x
   4266  24cb		       4c d9 b4 	      jmp	.__Bounce_Out_Of_Corner
   4267  24ce
   4268  24ce				   .skipL0403
   4269  24ce				   .L0404		;;line 799;;  if _Ghost_Direction = 3 then _Ghost_x = _Ghost_x  +  1  :  goto __Bounce_Out_Of_Corner
   4270  24ce
   4271  24ce		       a5 b2		      LDA	_Ghost_Direction
   4272  24d0		       c9 03		      CMP	#3
   4273  24d2		       d0 05		      BNE	.skipL0404
   4274  24d4				   .condpart152
   4275  24d4		       e6 af		      INC	_Ghost_x
   4276  24d6		       4c d9 b4 	      jmp	.__Bounce_Out_Of_Corner
   4277  24d9
   4278  24d9				   .skipL0404
   4279  24d9				   .
   4280  24d9							;;line 800;;
   4281  24d9
   4282  24d9				   .__Bounce_Out_Of_Corner
   4283  24d9							;;line 801;; __Bounce_Out_Of_Corner
   4284  24d9
   4285  24d9				   .L0405		;;line 802;;  if _Ghost_x  <  20 then _Ghost_x = 20  :  _Ghost_Direction = 3  :  _Ghost_Timer = 25
   4286  24d9
   4287  24d9		       a5 af		      LDA	_Ghost_x
   4288  24db		       c9 14		      CMP	#20
   4289  24dd		       b0 0c		      BCS	.skipL0405
   4290  24df				   .condpart153
   4291  24df		       a9 14		      LDA	#20
   4292  24e1		       85 af		      STA	_Ghost_x
   4293  24e3		       a9 03		      LDA	#3
   4294  24e5		       85 b2		      STA	_Ghost_Direction
   4295  24e7		       a9 19		      LDA	#25
   4296  24e9		       85 b3		      STA	_Ghost_Timer
   4297  24eb				   .skipL0405
   4298  24eb				   .L0406		;;line 803;;  if _Ghost_x  >  140 then _Ghost_x = 140	:  _Ghost_Direction = 2  :  _Ghost_Timer = 25
   4299  24eb
   4300  24eb		       a9 8c		      LDA	#140
   4301  24ed		       c5 af		      CMP	_Ghost_x
   4302  24ef		       b0 0c		      BCS	.skipL0406
   4303  24f1				   .condpart154
   4304  24f1		       a9 8c		      LDA	#140
   4305  24f3		       85 af		      STA	_Ghost_x
   4306  24f5		       a9 02		      LDA	#2
   4307  24f7		       85 b2		      STA	_Ghost_Direction
   4308  24f9		       a9 19		      LDA	#25
   4309  24fb		       85 b3		      STA	_Ghost_Timer
   4310  24fd				   .skipL0406
   4311  24fd				   .L0407		;;line 804;;  if _Ghost_y  <  15 then _Ghost_y = 15  :  _Ghost_Direction = 1  :  _Ghost_Timer = 25
   4312  24fd
   4313  24fd		       a5 b0		      LDA	_Ghost_y
   4314  24ff		       c9 0f		      CMP	#15
   4315  2501		       b0 0c		      BCS	.skipL0407
   4316  2503				   .condpart155
   4317  2503		       a9 0f		      LDA	#15
   4318  2505		       85 b0		      STA	_Ghost_y
   4319  2507		       a9 01		      LDA	#1
   4320  2509		       85 b2		      STA	_Ghost_Direction
   4321  250b		       a9 19		      LDA	#25
   4322  250d		       85 b3		      STA	_Ghost_Timer
   4323  250f				   .skipL0407
   4324  250f				   .L0408		;;line 805;;  if _Ghost_y  >  89 then _Ghost_y = 89  :  _Ghost_Direction = 0  :  _Ghost_Timer = 25
   4325  250f
   4326  250f		       a9 59		      LDA	#89
   4327  2511		       c5 b0		      CMP	_Ghost_y
   4328  2513		       b0 0c		      BCS	.skipL0408
   4329  2515				   .condpart156
   4330  2515		       a9 59		      LDA	#89
   4331  2517		       85 b0		      STA	_Ghost_y
   4332  2519		       a9 00		      LDA	#0
   4333  251b		       85 b2		      STA	_Ghost_Direction
   4334  251d		       a9 19		      LDA	#25
   4335  251f		       85 b3		      STA	_Ghost_Timer
   4336  2521				   .skipL0408
   4337  2521				   .
   4338  2521							;;line 806;;
   4339  2521
   4340  2521				   .L0409		;;line 807;;  player0x = _Ghost_x  :  player0y = _Ghost_y
   4341  2521
   4342  2521		       a5 af		      LDA	_Ghost_x
   4343  2523		       85 80		      STA	player0x
   4344  2525		       a5 b0		      LDA	_Ghost_y
   4345  2527		       85 85		      STA	player0y
   4346  2529				   .L0410		;;line 808;;  return
   4347  2529
   4348  2529		       ba		      tsx
   4349  252a		       b5 02		      lda	2,x	; check return address
   4350  252c		       49 b5		      eor	#(>*)	; vs. current PCH
   4351  252e		       29 e0		      and	#$E0	;  mask off all but top 3 bits
   4352  2530		       f0 03		      beq	*+5	; if equal, do normal return
   4353  2532		       4c dd ff 	      JMP	BS_return
   4354  2535		       60		      RTS
   4355  2536				   .
   4356  2536							;;line 809;;
   4357  2536
   4358  2536				   .
   4359  2536							;;line 810;;
   4360  2536
   4361  2536				   .
   4362  2536							;;line 811;;
   4363  2536
   4364  2536				   .
   4365  2536							;;line 812;;
   4366  2536
   4367  2536				   .
   4368  2536							;;line 813;;
   4369  2536
   4370  2536				   .__PKE_Chirp
   4371  2536							;;line 814;; __PKE_Chirp
   4372  2536
   4373  2536				   .L0411		;;line 815;;  if  ( _Game_Timer  &  7 )  = 0 then AUDV0 = 3  :  AUDF0 = 20  :	AUDC0 = 12
   4374  2536
   4375  2536							; complex condition detected
   4376  2536							; complex statement detected
   4377  2536		       a5 b4		      LDA	_Game_Timer
   4378  2538		       29 07		      AND	#7
   4379  253a		       c9 00		      CMP	#0
   4380  253c		       d0 0c		      BNE	.skipL0411
   4381  253e				   .condpart157
   4382  253e		       a9 03		      LDA	#3
   4383  2540		       85 19		      STA	AUDV0
   4384  2542		       a9 14		      LDA	#20
   4385  2544		       85 17		      STA	AUDF0
   4386  2546		       a9 0c		      LDA	#12
   4387  2548		       85 15		      STA	AUDC0
   4388  254a				   .skipL0411
   4389  254a				   .L0412		;;line 816;;  if  ( _Game_Timer  &  7 )  = 3 then AUDV0 = 0
   4390  254a
   4391  254a							; complex condition detected
   4392  254a							; complex statement detected
   4393  254a		       a5 b4		      LDA	_Game_Timer
   4394  254c		       29 07		      AND	#7
   4395  254e		       c9 03		      CMP	#3
   4396  2550		       d0 04		      BNE	.skipL0412
   4397  2552				   .condpart158
   4398  2552		       a9 00		      LDA	#0
   4399  2554		       85 19		      STA	AUDV0
   4400  2556				   .skipL0412
   4401  2556				   .L0413		;;line 817;;  return
   4402  2556
   4403  2556		       ba		      tsx
   4404  2557		       b5 02		      lda	2,x	; check return address
   4405  2559		       49 b5		      eor	#(>*)	; vs. current PCH
   4406  255b		       29 e0		      and	#$E0	;  mask off all but top 3 bits
   4407  255d		       f0 03		      beq	*+5	; if equal, do normal return
   4408  255f		       4c dd ff 	      JMP	BS_return
   4409  2562		       60		      RTS
   4410  2563				   .
   4411  2563							;;line 818;;
   4412  2563
   4413  2563				   .__PKE_Drone
   4414  2563							;;line 819;; __PKE_Drone
   4415  2563
   4416  2563				   .L0414		;;line 820;;  if  ( _Game_Timer  &  31 )  = 0 then AUDV0 = 2  :  AUDF0 = 20  :  AUDC0 = 12
   4417  2563
   4418  2563							; complex condition detected
   4419  2563							; complex statement detected
   4420  2563		       a5 b4		      LDA	_Game_Timer
   4421  2565		       29 1f		      AND	#31
   4422  2567		       c9 00		      CMP	#0
   4423  2569		       d0 0c		      BNE	.skipL0414
   4424  256b				   .condpart159
   4425  256b		       a9 02		      LDA	#2
   4426  256d		       85 19		      STA	AUDV0
   4427  256f		       a9 14		      LDA	#20
   4428  2571		       85 17		      STA	AUDF0
   4429  2573		       a9 0c		      LDA	#12
   4430  2575		       85 15		      STA	AUDC0
   4431  2577				   .skipL0414
   4432  2577				   .L0415		;;line 821;;  if  ( _Game_Timer  &  31 )  = 5 then AUDV0 = 0
   4433  2577
   4434  2577							; complex condition detected
   4435  2577							; complex statement detected
   4436  2577		       a5 b4		      LDA	_Game_Timer
   4437  2579		       29 1f		      AND	#31
   4438  257b		       c9 05		      CMP	#5
   4439  257d		       d0 04		      BNE	.skipL0415
   4440  257f				   .condpart160
   4441  257f		       a9 00		      LDA	#0
   4442  2581		       85 19		      STA	AUDV0
   4443  2583				   .skipL0415
   4444  2583				   .L0416		;;line 822;;  return
   4445  2583
   4446  2583		       ba		      tsx
   4447  2584		       b5 02		      lda	2,x	; check return address
   4448  2586		       49 b5		      eor	#(>*)	; vs. current PCH
   4449  2588		       29 e0		      and	#$E0	;  mask off all but top 3 bits
   4450  258a		       f0 03		      beq	*+5	; if equal, do normal return
   4451  258c		       4c dd ff 	      JMP	BS_return
   4452  258f		       60		      RTS
   4453  2590				   .
   4454  2590							;;line 823;;
   4455  2590
   4456  2590				   .__PKE_Hum
   4457  2590							;;line 824;; __PKE_Hum
   4458  2590
   4459  2590				   .L0417		;;line 825;;  if !_Bit6_Right_DifficultyB{6} then return
   4460  2590
   4461  2590		       24 d2		      BIT	_Bit6_Right_DifficultyB
   4462  2592		       70 0d		      BVS	.skipL0417
   4463  2594				   .condpart161
   4464  2594		       ba		      tsx
   4465  2595		       b5 02		      lda	2,x	; check return address
   4466  2597		       49 b5		      eor	#(>*)	; vs. current PCH
   4467  2599		       29 e0		      and	#$E0	;  mask off all but top 3 bits
   4468  259b		       f0 03		      beq	*+5	; if equal, do normal return
   4469  259d		       4c dd ff 	      JMP	BS_return
   4470  25a0		       60		      RTS
   4471  25a1				   .skipL0417
   4472  25a1				   .L0418		;;line 826;;  if  ( _Game_Timer  &  63 )  = 0 then AUDV0 = 1  :  AUDF0 = 20  :  AUDC0 = 12
   4473  25a1
   4474  25a1							; complex condition detected
   4475  25a1							; complex statement detected
   4476  25a1		       a5 b4		      LDA	_Game_Timer
   4477  25a3		       29 3f		      AND	#63
   4478  25a5		       c9 00		      CMP	#0
   4479  25a7		       d0 0c		      BNE	.skipL0418
   4480  25a9				   .condpart162
   4481  25a9		       a9 01		      LDA	#1
   4482  25ab		       85 19		      STA	AUDV0
   4483  25ad		       a9 14		      LDA	#20
   4484  25af		       85 17		      STA	AUDF0
   4485  25b1		       a9 0c		      LDA	#12
   4486  25b3		       85 15		      STA	AUDC0
   4487  25b5				   .skipL0418
   4488  25b5				   .L0419		;;line 827;;  if  ( _Game_Timer  &  63 )  = 15 then AUDV0 = 0
   4489  25b5
   4490  25b5							; complex condition detected
   4491  25b5							; complex statement detected
   4492  25b5		       a5 b4		      LDA	_Game_Timer
   4493  25b7		       29 3f		      AND	#63
   4494  25b9		       c9 0f		      CMP	#15
   4495  25bb		       d0 04		      BNE	.skipL0419
   4496  25bd				   .condpart163
   4497  25bd		       a9 00		      LDA	#0
   4498  25bf		       85 19		      STA	AUDV0
   4499  25c1				   .skipL0419
   4500  25c1				   .L0420		;;line 828;;  return
   4501  25c1
   4502  25c1		       ba		      tsx
   4503  25c2		       b5 02		      lda	2,x	; check return address
   4504  25c4		       49 b5		      eor	#(>*)	; vs. current PCH
   4505  25c6		       29 e0		      and	#$E0	;  mask off all but top 3 bits
   4506  25c8		       f0 03		      beq	*+5	; if equal, do normal return
   4507  25ca		       4c dd ff 	      JMP	BS_return
   4508  25cd		       60		      RTS
   4509  25ce				   .
   4510  25ce							;;line 829;;
   4511  25ce
   4512  25ce				   .__PKE_Off
   4513  25ce							;;line 830;; __PKE_Off
   4514  25ce
   4515  25ce				   .L0421		;;line 831;;  AUDV0 = 0
   4516  25ce
   4517  25ce		       a9 00		      LDA	#0
   4518  25d0		       85 19		      STA	AUDV0
   4519  25d2				   .L0422		;;line 832;;  return
   4520  25d2
   4521  25d2		       ba		      tsx
   4522  25d3		       b5 02		      lda	2,x	; check return address
   4523  25d5		       49 b5		      eor	#(>*)	; vs. current PCH
   4524  25d7		       29 e0		      and	#$E0	;  mask off all but top 3 bits
   4525  25d9		       f0 03		      beq	*+5	; if equal, do normal return
   4526  25db		       4c dd ff 	      JMP	BS_return
   4527  25de		       60		      RTS
   4528  25df				   .
   4529  25df							;;line 833;;
   4530  25df
   4531  25df				   .L0423		;;line 834;;  data slimed_sfx
   4532  25df
   4533  25df		       4c 6b b6 	      JMP	.skipL0423
   4534  25e2				   slimed_sfx
   4535  25e2		       0f 07 19 01	      .byte.b	15,7,25,1
   4536  25e6
   4537  25e6		       0f 07 13 01	      .byte.b	15,7,19,1
   4538  25ea
   4539  25ea		       0f 06 1a 01	      .byte.b	15,6,26,1
   4540  25ee
   4541  25ee		       0f 01 1a 01	      .byte.b	15,1,26,1
   4542  25f2
   4543  25f2		       0f 07 17 01	      .byte.b	15,7,23,1
   4544  25f6
   4545  25f6		       0f 0c 10 01	      .byte.b	15,12,16,1
   4546  25fa
   4547  25fa		       0f 07 14 01	      .byte.b	15,7,20,1
   4548  25fe
   4549  25fe		       0f 07 04 01	      .byte.b	15,7,4,1
   4550  2602
   4551  2602		       0f 07 0e 01	      .byte.b	15,7,14,1
   4552  2606
   4553  2606		       0f 01 1b 01	      .byte.b	15,1,27,1
   4554  260a
   4555  260a		       0f 01 1b 01	      .byte.b	15,1,27,1
   4556  260e
   4557  260e		       0f 07 1e 01	      .byte.b	15,7,30,1
   4558  2612
   4559  2612		       0f 07 12 01	      .byte.b	15,7,18,1
   4560  2616
   4561  2616		       0f 06 09 01	      .byte.b	15,6,9,1
   4562  261a
   4563  261a		       0f 0f 17 01	      .byte.b	15,15,23,1
   4564  261e
   4565  261e		       0f 06 11 01	      .byte.b	15,6,17,1
   4566  2622
   4567  2622		       0b 07 09 01	      .byte.b	11,7,9,1
   4568  2626
   4569  2626		       0e 07 09 01	      .byte.b	14,7,9,1
   4570  262a
   4571  262a		       0b 0f 0b 01	      .byte.b	11,15,11,1
   4572  262e
   4573  262e		       0c 0f 0e 01	      .byte.b	12,15,14,1
   4574  2632
   4575  2632		       09 07 1a 01	      .byte.b	9,7,26,1
   4576  2636
   4577  2636		       09 0f 13 01	      .byte.b	9,15,19,1
   4578  263a
   4579  263a		       0b 0f 14 01	      .byte.b	11,15,20,1
   4580  263e
   4581  263e		       07 0e 0c 01	      .byte.b	7,14,12,1
   4582  2642
   4583  2642		       07 07 18 01	      .byte.b	7,7,24,1
   4584  2646
   4585  2646		       07 07 19 01	      .byte.b	7,7,25,1
   4586  264a
   4587  264a		       06 0f 0b 01	      .byte.b	6,15,11,1
   4588  264e
   4589  264e		       07 07 1a 01	      .byte.b	7,7,26,1
   4590  2652
   4591  2652		       03 07 1a 01	      .byte.b	3,7,26,1
   4592  2656
   4593  2656		       03 07 1f 01	      .byte.b	3,7,31,1
   4594  265a
   4595  265a		       06 06 18 01	      .byte.b	6,6,24,1
   4596  265e
   4597  265e		       04 06 17 01	      .byte.b	4,6,23,1
   4598  2662
   4599  2662		       04 06 14 01	      .byte.b	4,6,20,1
   4600  2666
   4601  2666		       01 07 15 01	      .byte.b	1,7,21,1
   4602  266a
   4603  266a		       ff		      .byte.b	255
   4604  266b
   4605  266b				   .skipL0423
   4606  266b				   .
   4607  266b							;;line 871;;
   4608  266b
   4609  266b				   .L0424		;;line 872;;  data trap_sfx
   4610  266b
   4611  266b		       4c 97 b6 	      JMP	.skipL0424
   4612  266e				   trap_sfx
   4613  266e		       0e 04 16 02	      .byte.b	14,4,22,2
   4614  2672
   4615  2672		       0e 04 15 02	      .byte.b	14,4,21,2
   4616  2676
   4617  2676		       0e 04 15 02	      .byte.b	14,4,21,2
   4618  267a
   4619  267a		       0e 04 12 02	      .byte.b	14,4,18,2
   4620  267e
   4621  267e		       0e 04 0e 02	      .byte.b	14,4,14,2
   4622  2682
   4623  2682		       0e 04 0c 02	      .byte.b	14,4,12,2
   4624  2686
   4625  2686		       0e 04 0e 02	      .byte.b	14,4,14,2
   4626  268a
   4627  268a		       0e 04 12 02	      .byte.b	14,4,18,2
   4628  268e
   4629  268e		       0a 04 15 02	      .byte.b	10,4,21,2
   4630  2692
   4631  2692		       08 04 15 02	      .byte.b	8,4,21,2
   4632  2696
   4633  2696		       ff		      .byte.b	255
   4634  2697
   4635  2697				   .skipL0424
   4636  2697				   .
   4637  2697							;;line 885;;
   4638  2697
   4639  2697				   .L0425		;;line 886;;  data overheat_sfx
   4640  2697
   4641  2697		       4c 07 b7 	      JMP	.skipL0425
   4642  269a				   overheat_sfx
   4643  269a		       04 04 1b 01	      .byte.b	4,4,27,1
   4644  269e
   4645  269e		       0a 04 1c 01	      .byte.b	10,4,28,1
   4646  26a2
   4647  26a2		       0f 04 1c 01	      .byte.b	15,4,28,1
   4648  26a6
   4649  26a6		       0f 04 1b 01	      .byte.b	15,4,27,1
   4650  26aa
   4651  26aa		       0f 04 1c 01	      .byte.b	15,4,28,1
   4652  26ae
   4653  26ae		       0f 04 1c 01	      .byte.b	15,4,28,1
   4654  26b2
   4655  26b2		       0f 04 19 01	      .byte.b	15,4,25,1
   4656  26b6
   4657  26b6		       0f 04 1c 01	      .byte.b	15,4,28,1
   4658  26ba
   4659  26ba		       0f 04 1c 01	      .byte.b	15,4,28,1
   4660  26be
   4661  26be		       0f 04 1c 01	      .byte.b	15,4,28,1
   4662  26c2
   4663  26c2		       09 04 1c 01	      .byte.b	9,4,28,1
   4664  26c6
   4665  26c6		       0f 04 1c 01	      .byte.b	15,4,28,1
   4666  26ca
   4667  26ca		       0f 04 1c 01	      .byte.b	15,4,28,1
   4668  26ce
   4669  26ce		       0f 04 1c 01	      .byte.b	15,4,28,1
   4670  26d2
   4671  26d2		       09 04 1c 01	      .byte.b	9,4,28,1
   4672  26d6
   4673  26d6		       0f 04 1c 01	      .byte.b	15,4,28,1
   4674  26da
   4675  26da		       0f 04 1c 01	      .byte.b	15,4,28,1
   4676  26de
   4677  26de		       0f 04 1c 01	      .byte.b	15,4,28,1
   4678  26e2
   4679  26e2		       09 04 1c 01	      .byte.b	9,4,28,1
   4680  26e6
   4681  26e6		       0f 04 1c 01	      .byte.b	15,4,28,1
   4682  26ea
   4683  26ea		       0f 04 1c 01	      .byte.b	15,4,28,1
   4684  26ee
   4685  26ee		       08 04 1d 01	      .byte.b	8,4,29,1
   4686  26f2
   4687  26f2		       02 04 1d 01	      .byte.b	2,4,29,1
   4688  26f6
   4689  26f6		       01 04 1d 01	      .byte.b	1,4,29,1
   4690  26fa
   4691  26fa		       00 04 1d 01	      .byte.b	0,4,29,1
   4692  26fe
   4693  26fe		       02 04 1d 01	      .byte.b	2,4,29,1
   4694  2702
   4695  2702		       01 04 1d 01	      .byte.b	1,4,29,1
   4696  2706
   4697  2706		       ff		      .byte.b	255
   4698  2707
   4699  2707				   .skipL0425
   4700  2707				   .
   4701  2707							;;line 916;;
   4702  2707
   4703  2707				   .L0426		;;line 917;;  data disappear_sfx
   4704  2707
   4705  2707		       4c 57 b7 	      JMP	.skipL0426
   4706  270a				   disappear_sfx
   4707  270a		       04 0c 0f 02	      .byte.b	4,12,15,2
   4708  270e
   4709  270e		       08 0e 00 02	      .byte.b	8,14,0,2
   4710  2712
   4711  2712		       08 0c 10 02	      .byte.b	8,12,16,2
   4712  2716
   4713  2716		       06 06 02 02	      .byte.b	6,6,2,2
   4714  271a
   4715  271a		       06 0c 10 02	      .byte.b	6,12,16,2
   4716  271e
   4717  271e		       06 06 02 02	      .byte.b	6,6,2,2
   4718  2722
   4719  2722		       08 0e 00 02	      .byte.b	8,14,0,2
   4720  2726
   4721  2726		       08 0c 10 02	      .byte.b	8,12,16,2
   4722  272a
   4723  272a		       08 06 02 02	      .byte.b	8,6,2,2
   4724  272e
   4725  272e		       06 0c 0f 02	      .byte.b	6,12,15,2
   4726  2732
   4727  2732		       06 0c 10 02	      .byte.b	6,12,16,2
   4728  2736
   4729  2736		       06 06 02 02	      .byte.b	6,6,2,2
   4730  273a
   4731  273a		       06 0c 10 02	      .byte.b	6,12,16,2
   4732  273e
   4733  273e		       04 0c 0f 02	      .byte.b	4,12,15,2
   4734  2742
   4735  2742		       04 0c 10 02	      .byte.b	4,12,16,2
   4736  2746
   4737  2746		       04 0c 0f 02	      .byte.b	4,12,15,2
   4738  274a
   4739  274a		       04 0e 00 02	      .byte.b	4,14,0,2
   4740  274e
   4741  274e		       04 0c 10 02	      .byte.b	4,12,16,2
   4742  2752
   4743  2752		       02 0c 10 02	      .byte.b	2,12,16,2
   4744  2756
   4745  2756		       ff		      .byte.b	255
   4746  2757
   4747  2757				   .skipL0426
   4748  2757				   .
   4749  2757							;;line 939;;
   4750  2757
   4751  2757				   .__Play_Slimed_SFX
   4752  2757							;;line 940;; __Play_Slimed_SFX
   4753  2757
   4754  2757				   .L0427		;;line 941;;  _SFX_Dur = _SFX_Dur  -  1
   4755  2757
   4756  2757		       c6 c8		      DEC	_SFX_Dur
   4757  2759				   .L0428		;;line 942;;  if _SFX_Dur  >  0 then return
   4758  2759
   4759  2759		       a9 00		      LDA	#0
   4760  275b		       c5 c8		      CMP	_SFX_Dur
   4761  275d		       b0 0d		      BCS	.skipL0428
   4762  275f				   .condpart164
   4763  275f		       ba		      tsx
   4764  2760		       b5 02		      lda	2,x	; check return address
   4765  2762		       49 b7		      eor	#(>*)	; vs. current PCH
   4766  2764		       29 e0		      and	#$E0	;  mask off all but top 3 bits
   4767  2766		       f0 03		      beq	*+5	; if equal, do normal return
   4768  2768		       4c dd ff 	      JMP	BS_return
   4769  276b		       60		      RTS
   4770  276c				   .skipL0428
   4771  276c				   .
   4772  276c							;;line 943;;
   4773  276c
   4774  276c				   .L0429		;;line 944;;  _SFX_Vol = slimed_sfx[_SFX_Index]  :  _SFX_Index = _SFX_Index  +  1
   4775  276c
   4776  276c		       a6 c9		      LDX	_SFX_Index
   4777  276e		       bd e2 b5 	      LDA	slimed_sfx,x
   4778  2771		       85 c5		      STA	_SFX_Vol
   4779  2773		       e6 c9		      INC	_SFX_Index
   4780  2775				   .L0430		;;line 945;;  if _SFX_Vol = 255 then AUDV0 = 0  :  AUDV1 = 0  :  _SFX_Dur = 255  :  return
   4781  2775
   4782  2775		       a5 c5		      LDA	_SFX_Vol
   4783  2777		       c9 ff		      CMP	#255
   4784  2779		       d0 17		      BNE	.skipL0430
   4785  277b				   .condpart165
   4786  277b		       a9 00		      LDA	#0
   4787  277d		       85 19		      STA	AUDV0
   4788  277f		       85 1a		      STA	AUDV1
   4789  2781		       a9 ff		      LDA	#255
   4790  2783		       85 c8		      STA	_SFX_Dur
   4791  2785		       ba		      tsx
   4792  2786		       b5 02		      lda	2,x	; check return address
   4793  2788		       49 b7		      eor	#(>*)	; vs. current PCH
   4794  278a		       29 e0		      and	#$E0	;  mask off all but top 3 bits
   4795  278c		       f0 03		      beq	*+5	; if equal, do normal return
   4796  278e		       4c dd ff 	      JMP	BS_return
   4797  2791		       60		      RTS
   4798  2792				   .skipL0430
   4799  2792				   .
   4800  2792							;;line 946;;
   4801  2792
   4802  2792				   .L0431		;;line 947;;  _SFX_Ch = slimed_sfx[_SFX_Index]  :  _SFX_Index = _SFX_Index  +	1
   4803  2792
   4804  2792		       a6 c9		      LDX	_SFX_Index
   4805  2794		       bd e2 b5 	      LDA	slimed_sfx,x
   4806  2797		       85 c6		      STA	_SFX_Ch
   4807  2799		       e6 c9		      INC	_SFX_Index
   4808  279b				   .L0432		;;line 948;;  _SFX_Frq = slimed_sfx[_SFX_Index]  :  _SFX_Index = _SFX_Index  +  1
   4809  279b
   4810  279b		       a6 c9		      LDX	_SFX_Index
   4811  279d		       bd e2 b5 	      LDA	slimed_sfx,x
   4812  27a0		       85 c7		      STA	_SFX_Frq
   4813  27a2		       e6 c9		      INC	_SFX_Index
   4814  27a4				   .
   4815  27a4							;;line 949;;
   4816  27a4
   4817  27a4				   .L0433		;;line 950;;  AUDV1 = _SFX_Vol
   4818  27a4
   4819  27a4		       a5 c5		      LDA	_SFX_Vol
   4820  27a6		       85 1a		      STA	AUDV1
   4821  27a8				   .L0434		;;line 951;;  AUDC1 = _SFX_Ch
   4822  27a8
   4823  27a8		       a5 c6		      LDA	_SFX_Ch
   4824  27aa		       85 16		      STA	AUDC1
   4825  27ac				   .L0435		;;line 952;;  AUDF1 = _SFX_Frq
   4826  27ac
   4827  27ac		       a5 c7		      LDA	_SFX_Frq
   4828  27ae		       85 18		      STA	AUDF1
   4829  27b0				   .
   4830  27b0							;;line 953;;
   4831  27b0
   4832  27b0				   .L0436		;;line 954;;  _SFX_Dur = slimed_sfx[_SFX_Index]  :  _SFX_Index = _SFX_Index  +  1
   4833  27b0
   4834  27b0		       a6 c9		      LDX	_SFX_Index
   4835  27b2		       bd e2 b5 	      LDA	slimed_sfx,x
   4836  27b5		       85 c8		      STA	_SFX_Dur
   4837  27b7		       e6 c9		      INC	_SFX_Index
   4838  27b9				   .L0437		;;line 955;;  return
   4839  27b9
   4840  27b9		       ba		      tsx
   4841  27ba		       b5 02		      lda	2,x	; check return address
   4842  27bc		       49 b7		      eor	#(>*)	; vs. current PCH
   4843  27be		       29 e0		      and	#$E0	;  mask off all but top 3 bits
   4844  27c0		       f0 03		      beq	*+5	; if equal, do normal return
   4845  27c2		       4c dd ff 	      JMP	BS_return
   4846  27c5		       60		      RTS
   4847  27c6				   .
   4848  27c6							;;line 956;;
   4849  27c6
   4850  27c6				   .__Play_Trap_SFX
   4851  27c6							;;line 957;; __Play_Trap_SFX
   4852  27c6
   4853  27c6				   .L0438		;;line 958;;  _SFX_Dur = _SFX_Dur  -  1
   4854  27c6
   4855  27c6		       c6 c8		      DEC	_SFX_Dur
   4856  27c8				   .L0439		;;line 959;;  if _SFX_Dur  >  0 then return
   4857  27c8
   4858  27c8		       a9 00		      LDA	#0
   4859  27ca		       c5 c8		      CMP	_SFX_Dur
   4860  27cc		       b0 0d		      BCS	.skipL0439
   4861  27ce				   .condpart166
   4862  27ce		       ba		      tsx
   4863  27cf		       b5 02		      lda	2,x	; check return address
   4864  27d1		       49 b7		      eor	#(>*)	; vs. current PCH
   4865  27d3		       29 e0		      and	#$E0	;  mask off all but top 3 bits
   4866  27d5		       f0 03		      beq	*+5	; if equal, do normal return
   4867  27d7		       4c dd ff 	      JMP	BS_return
   4868  27da		       60		      RTS
   4869  27db				   .skipL0439
   4870  27db				   .
   4871  27db							;;line 960;;
   4872  27db
   4873  27db				   .L0440		;;line 961;;  _SFX_Vol = trap_sfx[_SFX_Index]	:  _SFX_Index = _SFX_Index  +  1
   4874  27db
   4875  27db		       a6 c9		      LDX	_SFX_Index
   4876  27dd		       bd 6e b6 	      LDA	trap_sfx,x
   4877  27e0		       85 c5		      STA	_SFX_Vol
   4878  27e2		       e6 c9		      INC	_SFX_Index
   4879  27e4				   .L0441		;;line 962;;  if _SFX_Vol = 255 then _SFX_Dur = 1  :  _SFX_Index = 0  :  AUDV0 = 0  :	return
   4880  27e4
   4881  27e4		       a5 c5		      LDA	_SFX_Vol
   4882  27e6		       c9 ff		      CMP	#255
   4883  27e8		       d0 17		      BNE	.skipL0441
   4884  27ea				   .condpart167
   4885  27ea		       a9 01		      LDA	#1
   4886  27ec		       85 c8		      STA	_SFX_Dur
   4887  27ee		       a9 00		      LDA	#0
   4888  27f0		       85 c9		      STA	_SFX_Index
   4889  27f2		       85 19		      STA	AUDV0
   4890  27f4		       ba		      tsx
   4891  27f5		       b5 02		      lda	2,x	; check return address
   4892  27f7		       49 b7		      eor	#(>*)	; vs. current PCH
   4893  27f9		       29 e0		      and	#$E0	;  mask off all but top 3 bits
   4894  27fb		       f0 03		      beq	*+5	; if equal, do normal return
   4895  27fd		       4c dd ff 	      JMP	BS_return
   4896  2800		       60		      RTS
   4897  2801				   .skipL0441
   4898  2801				   .
   4899  2801							;;line 963;;
   4900  2801
   4901  2801				   .L0442		;;line 964;;  _SFX_Ch = trap_sfx[_SFX_Index]  :  _SFX_Index = _SFX_Index  +  1
   4902  2801
   4903  2801		       a6 c9		      LDX	_SFX_Index
   4904  2803		       bd 6e b6 	      LDA	trap_sfx,x
   4905  2806		       85 c6		      STA	_SFX_Ch
   4906  2808		       e6 c9		      INC	_SFX_Index
   4907  280a				   .L0443		;;line 965;;  _SFX_Frq = trap_sfx[_SFX_Index]	:  _SFX_Index = _SFX_Index  +  1
   4908  280a
   4909  280a		       a6 c9		      LDX	_SFX_Index
   4910  280c		       bd 6e b6 	      LDA	trap_sfx,x
   4911  280f		       85 c7		      STA	_SFX_Frq
   4912  2811		       e6 c9		      INC	_SFX_Index
   4913  2813				   .
   4914  2813							;;line 966;;
   4915  2813
   4916  2813				   .L0444		;;line 967;;  AUDV1 = _SFX_Vol
   4917  2813
   4918  2813		       a5 c5		      LDA	_SFX_Vol
   4919  2815		       85 1a		      STA	AUDV1
   4920  2817				   .L0445		;;line 968;;  AUDC1 = _SFX_Ch
   4921  2817
   4922  2817		       a5 c6		      LDA	_SFX_Ch
   4923  2819		       85 16		      STA	AUDC1
   4924  281b				   .L0446		;;line 969;;  AUDF1 = _SFX_Frq
   4925  281b
   4926  281b		       a5 c7		      LDA	_SFX_Frq
   4927  281d		       85 18		      STA	AUDF1
   4928  281f				   .
   4929  281f							;;line 970;;
   4930  281f
   4931  281f				   .L0447		;;line 971;;  _SFX_Dur = trap_sfx[_SFX_Index]	:  _SFX_Index = _SFX_Index  +  1
   4932  281f
   4933  281f		       a6 c9		      LDX	_SFX_Index
   4934  2821		       bd 6e b6 	      LDA	trap_sfx,x
   4935  2824		       85 c8		      STA	_SFX_Dur
   4936  2826		       e6 c9		      INC	_SFX_Index
   4937  2828				   .L0448		;;line 972;;  return
   4938  2828
   4939  2828		       ba		      tsx
   4940  2829		       b5 02		      lda	2,x	; check return address
   4941  282b		       49 b8		      eor	#(>*)	; vs. current PCH
   4942  282d		       29 e0		      and	#$E0	;  mask off all but top 3 bits
   4943  282f		       f0 03		      beq	*+5	; if equal, do normal return
   4944  2831		       4c dd ff 	      JMP	BS_return
   4945  2834		       60		      RTS
   4946  2835				   .
   4947  2835							;;line 973;;
   4948  2835
   4949  2835				   .__Play_Overheat_SFX
   4950  2835							;;line 974;; __Play_Overheat_SFX
   4951  2835
   4952  2835				   .L0449		;;line 975;;  _SFX_Dur = _SFX_Dur  -  1
   4953  2835
   4954  2835		       c6 c8		      DEC	_SFX_Dur
   4955  2837				   .L0450		;;line 976;;  if _SFX_Dur  >  0 then return
   4956  2837
   4957  2837		       a9 00		      LDA	#0
   4958  2839		       c5 c8		      CMP	_SFX_Dur
   4959  283b		       b0 0d		      BCS	.skipL0450
   4960  283d				   .condpart168
   4961  283d		       ba		      tsx
   4962  283e		       b5 02		      lda	2,x	; check return address
   4963  2840		       49 b8		      eor	#(>*)	; vs. current PCH
   4964  2842		       29 e0		      and	#$E0	;  mask off all but top 3 bits
   4965  2844		       f0 03		      beq	*+5	; if equal, do normal return
   4966  2846		       4c dd ff 	      JMP	BS_return
   4967  2849		       60		      RTS
   4968  284a				   .skipL0450
   4969  284a				   .
   4970  284a							;;line 977;;
   4971  284a
   4972  284a				   .L0451		;;line 978;;  _SFX_Vol = overheat_sfx[_SFX_Index]  :  _SFX_Index = _SFX_Index	+  1
   4973  284a
   4974  284a		       a6 c9		      LDX	_SFX_Index
   4975  284c		       bd 9a b6 	      LDA	overheat_sfx,x
   4976  284f		       85 c5		      STA	_SFX_Vol
   4977  2851		       e6 c9		      INC	_SFX_Index
   4978  2853				   .L0452		;;line 979;;  if _SFX_Vol = 255 then _SFX_Dur = 1  :  _SFX_Index = 0  :  AUDV0 = 0  :	return
   4979  2853
   4980  2853		       a5 c5		      LDA	_SFX_Vol
   4981  2855		       c9 ff		      CMP	#255
   4982  2857		       d0 17		      BNE	.skipL0452
   4983  2859				   .condpart169
   4984  2859		       a9 01		      LDA	#1
   4985  285b		       85 c8		      STA	_SFX_Dur
   4986  285d		       a9 00		      LDA	#0
   4987  285f		       85 c9		      STA	_SFX_Index
   4988  2861		       85 19		      STA	AUDV0
   4989  2863		       ba		      tsx
   4990  2864		       b5 02		      lda	2,x	; check return address
   4991  2866		       49 b8		      eor	#(>*)	; vs. current PCH
   4992  2868		       29 e0		      and	#$E0	;  mask off all but top 3 bits
   4993  286a		       f0 03		      beq	*+5	; if equal, do normal return
   4994  286c		       4c dd ff 	      JMP	BS_return
   4995  286f		       60		      RTS
   4996  2870				   .skipL0452
   4997  2870				   .
   4998  2870							;;line 980;;
   4999  2870
   5000  2870				   .L0453		;;line 981;;  _SFX_Ch = overheat_sfx[_SFX_Index]  :  _SFX_Index = _SFX_Index  +  1
   5001  2870
   5002  2870		       a6 c9		      LDX	_SFX_Index
   5003  2872		       bd 9a b6 	      LDA	overheat_sfx,x
   5004  2875		       85 c6		      STA	_SFX_Ch
   5005  2877		       e6 c9		      INC	_SFX_Index
   5006  2879				   .L0454		;;line 982;;  _SFX_Frq = overheat_sfx[_SFX_Index]  :  _SFX_Index = _SFX_Index	+  1
   5007  2879
   5008  2879		       a6 c9		      LDX	_SFX_Index
   5009  287b		       bd 9a b6 	      LDA	overheat_sfx,x
   5010  287e		       85 c7		      STA	_SFX_Frq
   5011  2880		       e6 c9		      INC	_SFX_Index
   5012  2882				   .
   5013  2882							;;line 983;;
   5014  2882
   5015  2882				   .L0455		;;line 984;;  AUDV1 = _SFX_Vol
   5016  2882
   5017  2882		       a5 c5		      LDA	_SFX_Vol
   5018  2884		       85 1a		      STA	AUDV1
   5019  2886				   .L0456		;;line 985;;  AUDC1 = _SFX_Ch
   5020  2886
   5021  2886		       a5 c6		      LDA	_SFX_Ch
   5022  2888		       85 16		      STA	AUDC1
   5023  288a				   .L0457		;;line 986;;  AUDF1 = _SFX_Frq
   5024  288a
   5025  288a		       a5 c7		      LDA	_SFX_Frq
   5026  288c		       85 18		      STA	AUDF1
   5027  288e				   .
   5028  288e							;;line 987;;
   5029  288e
   5030  288e				   .L0458		;;line 988;;  _SFX_Dur = overheat_sfx[_SFX_Index]  :  _SFX_Index = _SFX_Index	+  1
   5031  288e
   5032  288e		       a6 c9		      LDX	_SFX_Index
   5033  2890		       bd 9a b6 	      LDA	overheat_sfx,x
   5034  2893		       85 c8		      STA	_SFX_Dur
   5035  2895		       e6 c9		      INC	_SFX_Index
   5036  2897				   .L0459		;;line 989;;  return
   5037  2897
   5038  2897		       ba		      tsx
   5039  2898		       b5 02		      lda	2,x	; check return address
   5040  289a		       49 b8		      eor	#(>*)	; vs. current PCH
   5041  289c		       29 e0		      and	#$E0	;  mask off all but top 3 bits
   5042  289e		       f0 03		      beq	*+5	; if equal, do normal return
   5043  28a0		       4c dd ff 	      JMP	BS_return
   5044  28a3		       60		      RTS
   5045  28a4				   .
   5046  28a4							;;line 990;;
   5047  28a4
   5048  28a4				   .__Play_Disappear_SFX
   5049  28a4							;;line 991;; __Play_Disappear_SFX
   5050  28a4
   5051  28a4				   .L0460		;;line 992;;  _SFX_Dur = _SFX_Dur  -  1
   5052  28a4
   5053  28a4		       c6 c8		      DEC	_SFX_Dur
   5054  28a6				   .L0461		;;line 993;;  if _SFX_Dur  >  0 then return
   5055  28a6
   5056  28a6		       a9 00		      LDA	#0
   5057  28a8		       c5 c8		      CMP	_SFX_Dur
   5058  28aa		       b0 0d		      BCS	.skipL0461
   5059  28ac				   .condpart170
   5060  28ac		       ba		      tsx
   5061  28ad		       b5 02		      lda	2,x	; check return address
   5062  28af		       49 b8		      eor	#(>*)	; vs. current PCH
   5063  28b1		       29 e0		      and	#$E0	;  mask off all but top 3 bits
   5064  28b3		       f0 03		      beq	*+5	; if equal, do normal return
   5065  28b5		       4c dd ff 	      JMP	BS_return
   5066  28b8		       60		      RTS
   5067  28b9				   .skipL0461
   5068  28b9				   .
   5069  28b9							;;line 994;;
   5070  28b9
   5071  28b9				   .L0462		;;line 995;;  _SFX_Vol = disappear_sfx[_SFX_Index]  :	_SFX_Index = _SFX_Index  +  1
   5072  28b9
   5073  28b9		       a6 c9		      LDX	_SFX_Index
   5074  28bb		       bd 0a b7 	      LDA	disappear_sfx,x
   5075  28be		       85 c5		      STA	_SFX_Vol
   5076  28c0		       e6 c9		      INC	_SFX_Index
   5077  28c2				   .L0463		;;line 996;;  if _SFX_Vol = 255 then _SFX_Dur = 1  :  _SFX_Index = 0  :  AUDV0 = 0  :	return
   5078  28c2
   5079  28c2		       a5 c5		      LDA	_SFX_Vol
   5080  28c4		       c9 ff		      CMP	#255
   5081  28c6		       d0 17		      BNE	.skipL0463
   5082  28c8				   .condpart171
   5083  28c8		       a9 01		      LDA	#1
   5084  28ca		       85 c8		      STA	_SFX_Dur
   5085  28cc		       a9 00		      LDA	#0
   5086  28ce		       85 c9		      STA	_SFX_Index
   5087  28d0		       85 19		      STA	AUDV0
   5088  28d2		       ba		      tsx
   5089  28d3		       b5 02		      lda	2,x	; check return address
   5090  28d5		       49 b8		      eor	#(>*)	; vs. current PCH
   5091  28d7		       29 e0		      and	#$E0	;  mask off all but top 3 bits
   5092  28d9		       f0 03		      beq	*+5	; if equal, do normal return
   5093  28db		       4c dd ff 	      JMP	BS_return
   5094  28de		       60		      RTS
   5095  28df				   .skipL0463
   5096  28df				   .
   5097  28df							;;line 997;;
   5098  28df
   5099  28df				   .L0464		;;line 998;;  _SFX_Ch = disappear_sfx[_SFX_Index]  :  _SFX_Index = _SFX_Index	+  1
   5100  28df
   5101  28df		       a6 c9		      LDX	_SFX_Index
   5102  28e1		       bd 0a b7 	      LDA	disappear_sfx,x
   5103  28e4		       85 c6		      STA	_SFX_Ch
   5104  28e6		       e6 c9		      INC	_SFX_Index
   5105  28e8				   .L0465		;;line 999;;  _SFX_Frq = disappear_sfx[_SFX_Index]  :	_SFX_Index = _SFX_Index  +  1
   5106  28e8
   5107  28e8		       a6 c9		      LDX	_SFX_Index
   5108  28ea		       bd 0a b7 	      LDA	disappear_sfx,x
   5109  28ed		       85 c7		      STA	_SFX_Frq
   5110  28ef		       e6 c9		      INC	_SFX_Index
   5111  28f1				   .
   5112  28f1							;;line 1000;;
   5113  28f1
   5114  28f1				   .L0466		;;line 1001;;	AUDV1 = _SFX_Vol
   5115  28f1
   5116  28f1		       a5 c5		      LDA	_SFX_Vol
   5117  28f3		       85 1a		      STA	AUDV1
   5118  28f5				   .L0467		;;line 1002;;	AUDC1 = _SFX_Ch
   5119  28f5
   5120  28f5		       a5 c6		      LDA	_SFX_Ch
   5121  28f7		       85 16		      STA	AUDC1
   5122  28f9				   .L0468		;;line 1003;;	AUDF1 = _SFX_Frq
   5123  28f9
   5124  28f9		       a5 c7		      LDA	_SFX_Frq
   5125  28fb		       85 18		      STA	AUDF1
   5126  28fd				   .
   5127  28fd							;;line 1004;;
   5128  28fd
   5129  28fd				   .L0469		;;line 1005;;	_SFX_Dur = disappear_sfx[_SFX_Index]  :  _SFX_Index = _SFX_Index  +  1
   5130  28fd
   5131  28fd		       a6 c9		      LDX	_SFX_Index
   5132  28ff		       bd 0a b7 	      LDA	disappear_sfx,x
   5133  2902		       85 c8		      STA	_SFX_Dur
   5134  2904		       e6 c9		      INC	_SFX_Index
   5135  2906				   .L0470		;;line 1006;;	return
   5136  2906
   5137  2906		       ba		      tsx
   5138  2907		       b5 02		      lda	2,x	; check return address
   5139  2909		       49 b9		      eor	#(>*)	; vs. current PCH
   5140  290b		       29 e0		      and	#$E0	;  mask off all but top 3 bits
   5141  290d		       f0 03		      beq	*+5	; if equal, do normal return
   5142  290f		       4c dd ff 	      JMP	BS_return
   5143  2912		       60		      RTS
   5144  2913				   .
   5145  2913							;;line 1007;;
   5146  2913
   5147  2913				   .
   5148  2913							;;line 1008;;
   5149  2913
   5150  2913				   .
   5151  2913							;;line 1009;;
   5152  2913
   5153  2913				   .L0471		;;line 1010;;	bank 3
   5154  2913
   5155  2913					      if	ECHO2
      1729 bytes of ROM space left in bank 2
   5156  2913					      echo	"    ",[(start_bank2 - *)]d , "bytes of ROM space left in bank 2")
   5157  2913					      endif
   5158  2913		       00 01	   ECHO2      =	1
   5159  2fd4					      ORG	$2FF4-bscode_length
   5160  2fd4					      RORG	$BFF4-bscode_length
   5161  2fd4		       a2 ff	   start_bank2 ldx	#$ff
   5162  2fd6				  -	      ifconst	FASTFETCH	; using DPC+
   5163  2fd6				  -	      stx	FASTFETCH
   5164  2fd6					      endif
   5165  2fd6		       9a		      txs
   5166  2fd7				  -	      if	bankswitch == 64
   5167  2fd7				  -	      lda	#(((>(start-1)) & $0F) | $F0)
   5168  2fd7					      else
   5169  2fd7		       a9 f3		      lda	#>(start-1)
   5170  2fd9					      endif
   5171  2fd9		       48		      pha
   5172  2fda		       a9 51		      lda	#<(start-1)
   5173  2fdc		       48		      pha
   5174  2fdd		       48		      pha
   5175  2fde		       8a		      txa
   5176  2fdf		       48		      pha
   5177  2fe0		       ba		      tsx
   5178  2fe1					      if	bankswitch != 64
   5179  2fe1		       b5 04		      lda	4,x	; get high byte of return address
   5180  2fe3		       2a		      rol
   5181  2fe4		       2a		      rol
   5182  2fe5		       2a		      rol
   5183  2fe6		       2a		      rol
   5184  2fe7		       29 03		      and	#bs_mask	;1 3 or 7 for F8/F6/F4
   5185  2fe9		       aa		      tax
   5186  2fea		       e8		      inx
   5187  2feb				  -	      else
   5188  2feb				  -	      lda	4,x	; get high byte of return address
   5189  2feb				  -	      tay
   5190  2feb				  -	      ora	#$10	; change our bank nibble into a valid rom mirror
   5191  2feb				  -	      sta	4,x
   5192  2feb				  -	      tya
   5193  2feb				  -	      lsr
   5194  2feb				  -	      lsr
   5195  2feb				  -	      lsr
   5196  2feb				  -	      lsr
   5197  2feb				  -	      tax
   5198  2feb				  -	      inx
   5199  2feb					      endif
   5200  2feb		       bd f5 1f 	      lda	bankswitch_hotspot-1,x
   5201  2fee		       68		      pla
   5202  2fef		       aa		      tax
   5203  2ff0		       68		      pla
   5204  2ff1		       60		      rts
   5205  2ff2				  -	      if	((* & $1FFF) > ((bankswitch_hotspot & $1FFF) - 1))
   5206  2ff2				  -	      echo	"WARNING: size parameter in banksw.asm too small - the program probably will not work."
   5207  2ff2				  -	      echo	"Change to",[(*-begin_bscode+1)&$FF]d,"and try again."
   5208  2ff2					      endif
   5209  2ffc					      ORG	$2FFC
   5210  2ffc					      RORG	$BFFC
   5211  2ffc		       d4 bf		      .word.w	(start_bank2 & $ffff)
   5212  2ffe		       d4 bf		      .word.w	(start_bank2 & $ffff)
   5213  3000					      ORG	$3000
   5214  3000					      RORG	$D000
   5215  3000					      repeat	256
   5216  3000		       ff		      .byte.b	$ff
   5215  3000					      repend
   5216  3001		       ff		      .byte.b	$ff
   5215  3001					      repend
   5216  3002		       ff		      .byte.b	$ff
   5215  3002					      repend
   5216  3003		       ff		      .byte.b	$ff
   5215  3003					      repend
   5216  3004		       ff		      .byte.b	$ff
   5215  3004					      repend
   5216  3005		       ff		      .byte.b	$ff
   5215  3005					      repend
   5216  3006		       ff		      .byte.b	$ff
   5215  3006					      repend
   5216  3007		       ff		      .byte.b	$ff
   5215  3007					      repend
   5216  3008		       ff		      .byte.b	$ff
   5215  3008					      repend
   5216  3009		       ff		      .byte.b	$ff
   5215  3009					      repend
   5216  300a		       ff		      .byte.b	$ff
   5215  300a					      repend
   5216  300b		       ff		      .byte.b	$ff
   5215  300b					      repend
   5216  300c		       ff		      .byte.b	$ff
   5215  300c					      repend
   5216  300d		       ff		      .byte.b	$ff
   5215  300d					      repend
   5216  300e		       ff		      .byte.b	$ff
   5215  300e					      repend
   5216  300f		       ff		      .byte.b	$ff
   5215  300f					      repend
   5216  3010		       ff		      .byte.b	$ff
   5215  3010					      repend
   5216  3011		       ff		      .byte.b	$ff
   5215  3011					      repend
   5216  3012		       ff		      .byte.b	$ff
   5215  3012					      repend
   5216  3013		       ff		      .byte.b	$ff
   5215  3013					      repend
   5216  3014		       ff		      .byte.b	$ff
   5215  3014					      repend
   5216  3015		       ff		      .byte.b	$ff
   5215  3015					      repend
   5216  3016		       ff		      .byte.b	$ff
   5215  3016					      repend
   5216  3017		       ff		      .byte.b	$ff
   5215  3017					      repend
   5216  3018		       ff		      .byte.b	$ff
   5215  3018					      repend
   5216  3019		       ff		      .byte.b	$ff
   5215  3019					      repend
   5216  301a		       ff		      .byte.b	$ff
   5215  301a					      repend
   5216  301b		       ff		      .byte.b	$ff
   5215  301b					      repend
   5216  301c		       ff		      .byte.b	$ff
   5215  301c					      repend
   5216  301d		       ff		      .byte.b	$ff
   5215  301d					      repend
   5216  301e		       ff		      .byte.b	$ff
   5215  301e					      repend
   5216  301f		       ff		      .byte.b	$ff
   5215  301f					      repend
   5216  3020		       ff		      .byte.b	$ff
   5215  3020					      repend
   5216  3021		       ff		      .byte.b	$ff
   5215  3021					      repend
   5216  3022		       ff		      .byte.b	$ff
   5215  3022					      repend
   5216  3023		       ff		      .byte.b	$ff
   5215  3023					      repend
   5216  3024		       ff		      .byte.b	$ff
   5215  3024					      repend
   5216  3025		       ff		      .byte.b	$ff
   5215  3025					      repend
   5216  3026		       ff		      .byte.b	$ff
   5215  3026					      repend
   5216  3027		       ff		      .byte.b	$ff
   5215  3027					      repend
   5216  3028		       ff		      .byte.b	$ff
   5215  3028					      repend
   5216  3029		       ff		      .byte.b	$ff
   5215  3029					      repend
   5216  302a		       ff		      .byte.b	$ff
   5215  302a					      repend
   5216  302b		       ff		      .byte.b	$ff
   5215  302b					      repend
   5216  302c		       ff		      .byte.b	$ff
   5215  302c					      repend
   5216  302d		       ff		      .byte.b	$ff
   5215  302d					      repend
   5216  302e		       ff		      .byte.b	$ff
   5215  302e					      repend
   5216  302f		       ff		      .byte.b	$ff
   5215  302f					      repend
   5216  3030		       ff		      .byte.b	$ff
   5215  3030					      repend
   5216  3031		       ff		      .byte.b	$ff
   5215  3031					      repend
   5216  3032		       ff		      .byte.b	$ff
   5215  3032					      repend
   5216  3033		       ff		      .byte.b	$ff
   5215  3033					      repend
   5216  3034		       ff		      .byte.b	$ff
   5215  3034					      repend
   5216  3035		       ff		      .byte.b	$ff
   5215  3035					      repend
   5216  3036		       ff		      .byte.b	$ff
   5215  3036					      repend
   5216  3037		       ff		      .byte.b	$ff
   5215  3037					      repend
   5216  3038		       ff		      .byte.b	$ff
   5215  3038					      repend
   5216  3039		       ff		      .byte.b	$ff
   5215  3039					      repend
   5216  303a		       ff		      .byte.b	$ff
   5215  303a					      repend
   5216  303b		       ff		      .byte.b	$ff
   5215  303b					      repend
   5216  303c		       ff		      .byte.b	$ff
   5215  303c					      repend
   5216  303d		       ff		      .byte.b	$ff
   5215  303d					      repend
   5216  303e		       ff		      .byte.b	$ff
   5215  303e					      repend
   5216  303f		       ff		      .byte.b	$ff
   5215  303f					      repend
   5216  3040		       ff		      .byte.b	$ff
   5215  3040					      repend
   5216  3041		       ff		      .byte.b	$ff
   5215  3041					      repend
   5216  3042		       ff		      .byte.b	$ff
   5215  3042					      repend
   5216  3043		       ff		      .byte.b	$ff
   5215  3043					      repend
   5216  3044		       ff		      .byte.b	$ff
   5215  3044					      repend
   5216  3045		       ff		      .byte.b	$ff
   5215  3045					      repend
   5216  3046		       ff		      .byte.b	$ff
   5215  3046					      repend
   5216  3047		       ff		      .byte.b	$ff
   5215  3047					      repend
   5216  3048		       ff		      .byte.b	$ff
   5215  3048					      repend
   5216  3049		       ff		      .byte.b	$ff
   5215  3049					      repend
   5216  304a		       ff		      .byte.b	$ff
   5215  304a					      repend
   5216  304b		       ff		      .byte.b	$ff
   5215  304b					      repend
   5216  304c		       ff		      .byte.b	$ff
   5215  304c					      repend
   5216  304d		       ff		      .byte.b	$ff
   5215  304d					      repend
   5216  304e		       ff		      .byte.b	$ff
   5215  304e					      repend
   5216  304f		       ff		      .byte.b	$ff
   5215  304f					      repend
   5216  3050		       ff		      .byte.b	$ff
   5215  3050					      repend
   5216  3051		       ff		      .byte.b	$ff
   5215  3051					      repend
   5216  3052		       ff		      .byte.b	$ff
   5215  3052					      repend
   5216  3053		       ff		      .byte.b	$ff
   5215  3053					      repend
   5216  3054		       ff		      .byte.b	$ff
   5215  3054					      repend
   5216  3055		       ff		      .byte.b	$ff
   5215  3055					      repend
   5216  3056		       ff		      .byte.b	$ff
   5215  3056					      repend
   5216  3057		       ff		      .byte.b	$ff
   5215  3057					      repend
   5216  3058		       ff		      .byte.b	$ff
   5215  3058					      repend
   5216  3059		       ff		      .byte.b	$ff
   5215  3059					      repend
   5216  305a		       ff		      .byte.b	$ff
   5215  305a					      repend
   5216  305b		       ff		      .byte.b	$ff
   5215  305b					      repend
   5216  305c		       ff		      .byte.b	$ff
   5215  305c					      repend
   5216  305d		       ff		      .byte.b	$ff
   5215  305d					      repend
   5216  305e		       ff		      .byte.b	$ff
   5215  305e					      repend
   5216  305f		       ff		      .byte.b	$ff
   5215  305f					      repend
   5216  3060		       ff		      .byte.b	$ff
   5215  3060					      repend
   5216  3061		       ff		      .byte.b	$ff
   5215  3061					      repend
   5216  3062		       ff		      .byte.b	$ff
   5215  3062					      repend
   5216  3063		       ff		      .byte.b	$ff
   5215  3063					      repend
   5216  3064		       ff		      .byte.b	$ff
   5215  3064					      repend
   5216  3065		       ff		      .byte.b	$ff
   5215  3065					      repend
   5216  3066		       ff		      .byte.b	$ff
   5215  3066					      repend
   5216  3067		       ff		      .byte.b	$ff
   5215  3067					      repend
   5216  3068		       ff		      .byte.b	$ff
   5215  3068					      repend
   5216  3069		       ff		      .byte.b	$ff
   5215  3069					      repend
   5216  306a		       ff		      .byte.b	$ff
   5215  306a					      repend
   5216  306b		       ff		      .byte.b	$ff
   5215  306b					      repend
   5216  306c		       ff		      .byte.b	$ff
   5215  306c					      repend
   5216  306d		       ff		      .byte.b	$ff
   5215  306d					      repend
   5216  306e		       ff		      .byte.b	$ff
   5215  306e					      repend
   5216  306f		       ff		      .byte.b	$ff
   5215  306f					      repend
   5216  3070		       ff		      .byte.b	$ff
   5215  3070					      repend
   5216  3071		       ff		      .byte.b	$ff
   5215  3071					      repend
   5216  3072		       ff		      .byte.b	$ff
   5215  3072					      repend
   5216  3073		       ff		      .byte.b	$ff
   5215  3073					      repend
   5216  3074		       ff		      .byte.b	$ff
   5215  3074					      repend
   5216  3075		       ff		      .byte.b	$ff
   5215  3075					      repend
   5216  3076		       ff		      .byte.b	$ff
   5215  3076					      repend
   5216  3077		       ff		      .byte.b	$ff
   5215  3077					      repend
   5216  3078		       ff		      .byte.b	$ff
   5215  3078					      repend
   5216  3079		       ff		      .byte.b	$ff
   5215  3079					      repend
   5216  307a		       ff		      .byte.b	$ff
   5215  307a					      repend
   5216  307b		       ff		      .byte.b	$ff
   5215  307b					      repend
   5216  307c		       ff		      .byte.b	$ff
   5215  307c					      repend
   5216  307d		       ff		      .byte.b	$ff
   5215  307d					      repend
   5216  307e		       ff		      .byte.b	$ff
   5215  307e					      repend
   5216  307f		       ff		      .byte.b	$ff
   5215  307f					      repend
   5216  3080		       ff		      .byte.b	$ff
   5215  3080					      repend
   5216  3081		       ff		      .byte.b	$ff
   5215  3081					      repend
   5216  3082		       ff		      .byte.b	$ff
   5215  3082					      repend
   5216  3083		       ff		      .byte.b	$ff
   5215  3083					      repend
   5216  3084		       ff		      .byte.b	$ff
   5215  3084					      repend
   5216  3085		       ff		      .byte.b	$ff
   5215  3085					      repend
   5216  3086		       ff		      .byte.b	$ff
   5215  3086					      repend
   5216  3087		       ff		      .byte.b	$ff
   5215  3087					      repend
   5216  3088		       ff		      .byte.b	$ff
   5215  3088					      repend
   5216  3089		       ff		      .byte.b	$ff
   5215  3089					      repend
   5216  308a		       ff		      .byte.b	$ff
   5215  308a					      repend
   5216  308b		       ff		      .byte.b	$ff
   5215  308b					      repend
   5216  308c		       ff		      .byte.b	$ff
   5215  308c					      repend
   5216  308d		       ff		      .byte.b	$ff
   5215  308d					      repend
   5216  308e		       ff		      .byte.b	$ff
   5215  308e					      repend
   5216  308f		       ff		      .byte.b	$ff
   5215  308f					      repend
   5216  3090		       ff		      .byte.b	$ff
   5215  3090					      repend
   5216  3091		       ff		      .byte.b	$ff
   5215  3091					      repend
   5216  3092		       ff		      .byte.b	$ff
   5215  3092					      repend
   5216  3093		       ff		      .byte.b	$ff
   5215  3093					      repend
   5216  3094		       ff		      .byte.b	$ff
   5215  3094					      repend
   5216  3095		       ff		      .byte.b	$ff
   5215  3095					      repend
   5216  3096		       ff		      .byte.b	$ff
   5215  3096					      repend
   5216  3097		       ff		      .byte.b	$ff
   5215  3097					      repend
   5216  3098		       ff		      .byte.b	$ff
   5215  3098					      repend
   5216  3099		       ff		      .byte.b	$ff
   5215  3099					      repend
   5216  309a		       ff		      .byte.b	$ff
   5215  309a					      repend
   5216  309b		       ff		      .byte.b	$ff
   5215  309b					      repend
   5216  309c		       ff		      .byte.b	$ff
   5215  309c					      repend
   5216  309d		       ff		      .byte.b	$ff
   5215  309d					      repend
   5216  309e		       ff		      .byte.b	$ff
   5215  309e					      repend
   5216  309f		       ff		      .byte.b	$ff
   5215  309f					      repend
   5216  30a0		       ff		      .byte.b	$ff
   5215  30a0					      repend
   5216  30a1		       ff		      .byte.b	$ff
   5215  30a1					      repend
   5216  30a2		       ff		      .byte.b	$ff
   5215  30a2					      repend
   5216  30a3		       ff		      .byte.b	$ff
   5215  30a3					      repend
   5216  30a4		       ff		      .byte.b	$ff
   5215  30a4					      repend
   5216  30a5		       ff		      .byte.b	$ff
   5215  30a5					      repend
   5216  30a6		       ff		      .byte.b	$ff
   5215  30a6					      repend
   5216  30a7		       ff		      .byte.b	$ff
   5215  30a7					      repend
   5216  30a8		       ff		      .byte.b	$ff
   5215  30a8					      repend
   5216  30a9		       ff		      .byte.b	$ff
   5215  30a9					      repend
   5216  30aa		       ff		      .byte.b	$ff
   5215  30aa					      repend
   5216  30ab		       ff		      .byte.b	$ff
   5215  30ab					      repend
   5216  30ac		       ff		      .byte.b	$ff
   5215  30ac					      repend
   5216  30ad		       ff		      .byte.b	$ff
   5215  30ad					      repend
   5216  30ae		       ff		      .byte.b	$ff
   5215  30ae					      repend
   5216  30af		       ff		      .byte.b	$ff
   5215  30af					      repend
   5216  30b0		       ff		      .byte.b	$ff
   5215  30b0					      repend
   5216  30b1		       ff		      .byte.b	$ff
   5215  30b1					      repend
   5216  30b2		       ff		      .byte.b	$ff
   5215  30b2					      repend
   5216  30b3		       ff		      .byte.b	$ff
   5215  30b3					      repend
   5216  30b4		       ff		      .byte.b	$ff
   5215  30b4					      repend
   5216  30b5		       ff		      .byte.b	$ff
   5215  30b5					      repend
   5216  30b6		       ff		      .byte.b	$ff
   5215  30b6					      repend
   5216  30b7		       ff		      .byte.b	$ff
   5215  30b7					      repend
   5216  30b8		       ff		      .byte.b	$ff
   5215  30b8					      repend
   5216  30b9		       ff		      .byte.b	$ff
   5215  30b9					      repend
   5216  30ba		       ff		      .byte.b	$ff
   5215  30ba					      repend
   5216  30bb		       ff		      .byte.b	$ff
   5215  30bb					      repend
   5216  30bc		       ff		      .byte.b	$ff
   5215  30bc					      repend
   5216  30bd		       ff		      .byte.b	$ff
   5215  30bd					      repend
   5216  30be		       ff		      .byte.b	$ff
   5215  30be					      repend
   5216  30bf		       ff		      .byte.b	$ff
   5215  30bf					      repend
   5216  30c0		       ff		      .byte.b	$ff
   5215  30c0					      repend
   5216  30c1		       ff		      .byte.b	$ff
   5215  30c1					      repend
   5216  30c2		       ff		      .byte.b	$ff
   5215  30c2					      repend
   5216  30c3		       ff		      .byte.b	$ff
   5215  30c3					      repend
   5216  30c4		       ff		      .byte.b	$ff
   5215  30c4					      repend
   5216  30c5		       ff		      .byte.b	$ff
   5215  30c5					      repend
   5216  30c6		       ff		      .byte.b	$ff
   5215  30c6					      repend
   5216  30c7		       ff		      .byte.b	$ff
   5215  30c7					      repend
   5216  30c8		       ff		      .byte.b	$ff
   5215  30c8					      repend
   5216  30c9		       ff		      .byte.b	$ff
   5215  30c9					      repend
   5216  30ca		       ff		      .byte.b	$ff
   5215  30ca					      repend
   5216  30cb		       ff		      .byte.b	$ff
   5215  30cb					      repend
   5216  30cc		       ff		      .byte.b	$ff
   5215  30cc					      repend
   5216  30cd		       ff		      .byte.b	$ff
   5215  30cd					      repend
   5216  30ce		       ff		      .byte.b	$ff
   5215  30ce					      repend
   5216  30cf		       ff		      .byte.b	$ff
   5215  30cf					      repend
   5216  30d0		       ff		      .byte.b	$ff
   5215  30d0					      repend
   5216  30d1		       ff		      .byte.b	$ff
   5215  30d1					      repend
   5216  30d2		       ff		      .byte.b	$ff
   5215  30d2					      repend
   5216  30d3		       ff		      .byte.b	$ff
   5215  30d3					      repend
   5216  30d4		       ff		      .byte.b	$ff
   5215  30d4					      repend
   5216  30d5		       ff		      .byte.b	$ff
   5215  30d5					      repend
   5216  30d6		       ff		      .byte.b	$ff
   5215  30d6					      repend
   5216  30d7		       ff		      .byte.b	$ff
   5215  30d7					      repend
   5216  30d8		       ff		      .byte.b	$ff
   5215  30d8					      repend
   5216  30d9		       ff		      .byte.b	$ff
   5215  30d9					      repend
   5216  30da		       ff		      .byte.b	$ff
   5215  30da					      repend
   5216  30db		       ff		      .byte.b	$ff
   5215  30db					      repend
   5216  30dc		       ff		      .byte.b	$ff
   5215  30dc					      repend
   5216  30dd		       ff		      .byte.b	$ff
   5215  30dd					      repend
   5216  30de		       ff		      .byte.b	$ff
   5215  30de					      repend
   5216  30df		       ff		      .byte.b	$ff
   5215  30df					      repend
   5216  30e0		       ff		      .byte.b	$ff
   5215  30e0					      repend
   5216  30e1		       ff		      .byte.b	$ff
   5215  30e1					      repend
   5216  30e2		       ff		      .byte.b	$ff
   5215  30e2					      repend
   5216  30e3		       ff		      .byte.b	$ff
   5215  30e3					      repend
   5216  30e4		       ff		      .byte.b	$ff
   5215  30e4					      repend
   5216  30e5		       ff		      .byte.b	$ff
   5215  30e5					      repend
   5216  30e6		       ff		      .byte.b	$ff
   5215  30e6					      repend
   5216  30e7		       ff		      .byte.b	$ff
   5215  30e7					      repend
   5216  30e8		       ff		      .byte.b	$ff
   5215  30e8					      repend
   5216  30e9		       ff		      .byte.b	$ff
   5215  30e9					      repend
   5216  30ea		       ff		      .byte.b	$ff
   5215  30ea					      repend
   5216  30eb		       ff		      .byte.b	$ff
   5215  30eb					      repend
   5216  30ec		       ff		      .byte.b	$ff
   5215  30ec					      repend
   5216  30ed		       ff		      .byte.b	$ff
   5215  30ed					      repend
   5216  30ee		       ff		      .byte.b	$ff
   5215  30ee					      repend
   5216  30ef		       ff		      .byte.b	$ff
   5215  30ef					      repend
   5216  30f0		       ff		      .byte.b	$ff
   5215  30f0					      repend
   5216  30f1		       ff		      .byte.b	$ff
   5215  30f1					      repend
   5216  30f2		       ff		      .byte.b	$ff
   5215  30f2					      repend
   5216  30f3		       ff		      .byte.b	$ff
   5215  30f3					      repend
   5216  30f4		       ff		      .byte.b	$ff
   5215  30f4					      repend
   5216  30f5		       ff		      .byte.b	$ff
   5215  30f5					      repend
   5216  30f6		       ff		      .byte.b	$ff
   5215  30f6					      repend
   5216  30f7		       ff		      .byte.b	$ff
   5215  30f7					      repend
   5216  30f8		       ff		      .byte.b	$ff
   5215  30f8					      repend
   5216  30f9		       ff		      .byte.b	$ff
   5215  30f9					      repend
   5216  30fa		       ff		      .byte.b	$ff
   5215  30fa					      repend
   5216  30fb		       ff		      .byte.b	$ff
   5215  30fb					      repend
   5216  30fc		       ff		      .byte.b	$ff
   5215  30fc					      repend
   5216  30fd		       ff		      .byte.b	$ff
   5215  30fd					      repend
   5216  30fe		       ff		      .byte.b	$ff
   5215  30fe					      repend
   5216  30ff		       ff		      .byte.b	$ff
   5217  3100					      repend
   5218  3100				   .
   5219  3100							;;line 1011;;
   5220  3100
   5221  3100				   .
   5222  3100							;;line 1012;;
   5223  3100
   5224  3100				   .
   5225  3100							;;line 1013;;
   5226  3100
   5227  3100				   .
   5228  3100							;;line 1014;;
   5229  3100
   5230  3100				   .
   5231  3100							;;line 1015;;
   5232  3100
   5233  3100				   .
   5234  3100							;;line 1016;;
   5235  3100
   5236  3100				   .
   5237  3100							;;line 1017;;
   5238  3100
   5239  3100				   .L0472		;;line 1018;;	data my_world_map
   5240  3100
   5241  3100		       4c 67 d1 	      JMP	.skipL0472
   5242  3103				   my_world_map
   5243  3103		       01 07 07 07*	      .byte.b	1, 7, 7, 7, 7, 7, 7, 7, 7, 4
   5244  310d
   5245  310d		       02 0b 0d 0b*	      .byte.b	2, 11, 13, 11, 12, 13, 13, 12, 11, 5
   5246  3117
   5247  3117		       02 0c 0c 0d*	      .byte.b	2, 12, 12, 13, 11, 12, 11, 13, 13, 5
   5248  3121
   5249  3121		       02 0d 0b 0c*	      .byte.b	2, 13, 11, 12, 13, 11, 12, 11, 12, 5
   5250  312b
   5251  312b		       02 0c 0d 0b*	      .byte.b	2, 12, 13, 11, 11, 13, 12, 11, 13, 5
   5252  3135
   5253  3135		       02 0b 0b 0c*	      .byte.b	2, 11, 11, 12, 10, 12, 13, 12, 11, 5
   5254  313f
   5255  313f		       02 0d 0c 0d*	      .byte.b	2, 13, 12, 13, 13, 11, 11, 13, 12, 5
   5256  3149
   5257  3149		       02 0b 0d 0b*	      .byte.b	2, 11, 13, 11, 12, 13, 12, 11, 13, 5
   5258  3153
   5259  3153		       02 0d 0b 0c*	      .byte.b	2, 13, 11, 12, 11, 12, 13, 12, 11, 5
   5260  315d
   5261  315d		       03 08 08 08*	      .byte.b	3, 8, 8, 8, 9, 8, 8, 8, 8, 6
   5262  3167
   5263  3167				   .skipL0472
   5264  3167				   .
   5265  3167							;;line 1030;;
   5266  3167
   5267  3167				   .__Set_Room_Layout
   5268  3167							;;line 1031;; __Set_Room_Layout
   5269  3167
   5270  3167				   .L0473		;;line 1032;;	_SFX_Vol = trap_sfx[_SFX_Index]
   5271  3167
   5272  3167		       a6 c9		      LDX	_SFX_Index
   5273  3169		       bd 6e b6 	      LDA	trap_sfx,x
   5274  316c		       85 c5		      STA	_SFX_Vol
   5275  316e				   .L0474		;;line 1033;;	_Buster_Room = _Map_Position_y	*  10  +  _Map_Position_x
   5276  316e
   5277  316e							; complex statement detected
   5278  316e		       a5 ac		      LDA	_Map_Position_y
   5279  3170		       0a		      asl
   5280  3171		       0a		      asl
   5281  3172		       18		      clc
   5282  3173		       65 ac		      adc	_Map_Position_y
   5283  3175		       0a		      asl
   5284  3176		       18		      CLC
   5285  3177		       65 ab		      ADC	_Map_Position_x
   5286  3179		       85 a7		      STA	_Buster_Room
   5287  317b				   .L0475		;;line 1034;;	temp2 = my_world_map[_Buster_Room]
   5288  317b
   5289  317b		       a6 a7		      LDX	_Buster_Room
   5290  317d		       bd 03 d1 	      LDA	my_world_map,x
   5291  3180		       85 9d		      STA	temp2
   5292  3182				   .L0476		;;line 1035;;	if temp2 = 1 then goto __Layout_Room_1
   5293  3182
   5294  3182		       a5 9d		      LDA	temp2
   5295  3184		       c9 01		      CMP	#1
   5296  3186		       d0 03		      BNE	.skipL0476
   5297  3188				   .condpart172
   5298  3188		       4c e3 d2 	      jmp	.__Layout_Room_1
   5299  318b
   5300  318b				   .skipL0476
   5301  318b				   .L0477		;;line 1036;;	if temp2 = 2 then goto __Layout_Room_2
   5302  318b
   5303  318b		       a5 9d		      LDA	temp2
   5304  318d		       c9 02		      CMP	#2
   5305  318f		       d0 03		      BNE	.skipL0477
   5306  3191				   .condpart173
   5307  3191		       4c 20 d3 	      jmp	.__Layout_Room_2
   5308  3194
   5309  3194				   .skipL0477
   5310  3194				   .L0478		;;line 1037;;	if temp2 = 3 then goto __Layout_Room_3
   5311  3194
   5312  3194		       a5 9d		      LDA	temp2
   5313  3196		       c9 03		      CMP	#3
   5314  3198		       d0 03		      BNE	.skipL0478
   5315  319a				   .condpart174
   5316  319a		       4c 5d d3 	      jmp	.__Layout_Room_3
   5317  319d
   5318  319d				   .skipL0478
   5319  319d				   .L0479		;;line 1038;;	if temp2 = 4 then goto __Layout_Room_4
   5320  319d
   5321  319d		       a5 9d		      LDA	temp2
   5322  319f		       c9 04		      CMP	#4
   5323  31a1		       d0 03		      BNE	.skipL0479
   5324  31a3				   .condpart175
   5325  31a3		       4c 9a d3 	      jmp	.__Layout_Room_4
   5326  31a6
   5327  31a6				   .skipL0479
   5328  31a6				   .L0480		;;line 1039;;	if temp2 = 5 then goto __Layout_Room_5
   5329  31a6
   5330  31a6		       a5 9d		      LDA	temp2
   5331  31a8		       c9 05		      CMP	#5
   5332  31aa		       d0 03		      BNE	.skipL0480
   5333  31ac				   .condpart176
   5334  31ac		       4c d7 d3 	      jmp	.__Layout_Room_5
   5335  31af
   5336  31af				   .skipL0480
   5337  31af				   .L0481		;;line 1040;;	if temp2 = 6 then goto __Layout_Room_6
   5338  31af
   5339  31af		       a5 9d		      LDA	temp2
   5340  31b1		       c9 06		      CMP	#6
   5341  31b3		       d0 03		      BNE	.skipL0481
   5342  31b5				   .condpart177
   5343  31b5		       4c 14 d4 	      jmp	.__Layout_Room_6
   5344  31b8
   5345  31b8				   .skipL0481
   5346  31b8				   .L0482		;;line 1041;;	if temp2 = 7 then goto __Layout_Room_7
   5347  31b8
   5348  31b8		       a5 9d		      LDA	temp2
   5349  31ba		       c9 07		      CMP	#7
   5350  31bc		       d0 03		      BNE	.skipL0482
   5351  31be				   .condpart178
   5352  31be		       4c 51 d4 	      jmp	.__Layout_Room_7
   5353  31c1
   5354  31c1				   .skipL0482
   5355  31c1				   .L0483		;;line 1042;;	if temp2 = 8 then goto __Layout_Room_8
   5356  31c1
   5357  31c1		       a5 9d		      LDA	temp2
   5358  31c3		       c9 08		      CMP	#8
   5359  31c5		       d0 03		      BNE	.skipL0483
   5360  31c7				   .condpart179
   5361  31c7		       4c 8e d4 	      jmp	.__Layout_Room_8
   5362  31ca
   5363  31ca				   .skipL0483
   5364  31ca				   .L0484		;;line 1043;;	if temp2 = 9 then goto __Layout_Room_9
   5365  31ca
   5366  31ca		       a5 9d		      LDA	temp2
   5367  31cc		       c9 09		      CMP	#9
   5368  31ce		       d0 03		      BNE	.skipL0484
   5369  31d0				   .condpart180
   5370  31d0		       4c cb d4 	      jmp	.__Layout_Room_9
   5371  31d3
   5372  31d3				   .skipL0484
   5373  31d3				   .L0485		;;line 1044;;	if temp2 = 10 then goto __Layout_Room_10
   5374  31d3
   5375  31d3		       a5 9d		      LDA	temp2
   5376  31d5		       c9 0a		      CMP	#10
   5377  31d7		       d0 03		      BNE	.skipL0485
   5378  31d9				   .condpart181
   5379  31d9		       4c 08 d5 	      jmp	.__Layout_Room_10
   5380  31dc
   5381  31dc				   .skipL0485
   5382  31dc				   .L0486		;;line 1045;;	if temp2 = 11 then goto __Layout_Room_11
   5383  31dc
   5384  31dc		       a5 9d		      LDA	temp2
   5385  31de		       c9 0b		      CMP	#11
   5386  31e0		       d0 03		      BNE	.skipL0486
   5387  31e2				   .condpart182
   5388  31e2		       4c 45 d5 	      jmp	.__Layout_Room_11
   5389  31e5
   5390  31e5				   .skipL0486
   5391  31e5				   .L0487		;;line 1046;;	if temp2 = 12 then goto __Layout_Room_12
   5392  31e5
   5393  31e5		       a5 9d		      LDA	temp2
   5394  31e7		       c9 0c		      CMP	#12
   5395  31e9		       d0 03		      BNE	.skipL0487
   5396  31eb				   .condpart183
   5397  31eb		       4c 82 d5 	      jmp	.__Layout_Room_12
   5398  31ee
   5399  31ee				   .skipL0487
   5400  31ee				   .L0488		;;line 1047;;	if temp2 = 13 then goto __Layout_Room_13
   5401  31ee
   5402  31ee		       a5 9d		      LDA	temp2
   5403  31f0		       c9 0d		      CMP	#13
   5404  31f2		       d0 03		      BNE	.skipL0488
   5405  31f4				   .condpart184
   5406  31f4		       4c bf d5 	      jmp	.__Layout_Room_13
   5407  31f7
   5408  31f7				   .skipL0488
   5409  31f7				   .
   5410  31f7							;;line 1048;;
   5411  31f7
   5412  31f7				   .__Check_Room_For_Ghosts
   5413  31f7							;;line 1049;; __Check_Room_For_Ghosts
   5414  31f7
   5415  31f7				   .L0489		;;line 1050;;	player0y = 0
   5416  31f7
   5417  31f7		       a9 00		      LDA	#0
   5418  31f9		       85 85		      STA	player0y
   5419  31fb				   .L0490		;;line 1051;;	if _Ghost1_Room = _Buster_Room then gosub __Draw_Ghost
   5420  31fb
   5421  31fb		       a5 a8		      LDA	_Ghost1_Room
   5422  31fd		       c5 a7		      CMP	_Buster_Room
   5423  31ff		       d0 03		      BNE	.skipL0490
   5424  3201				   .condpart185
   5425  3201		       20 c0 d2 	      jsr	.__Draw_Ghost
   5426  3204
   5427  3204				   .skipL0490
   5428  3204				   .L0491		;;line 1052;;	if _Ghost2_Room = _Buster_Room then gosub __Draw_Ghost
   5429  3204
   5430  3204		       a5 a9		      LDA	_Ghost2_Room
   5431  3206		       c5 a7		      CMP	_Buster_Room
   5432  3208		       d0 03		      BNE	.skipL0491
   5433  320a				   .condpart186
   5434  320a		       20 c0 d2 	      jsr	.__Draw_Ghost
   5435  320d
   5436  320d				   .skipL0491
   5437  320d				   .L0492		;;line 1053;;	if _Ghost3_Room = _Buster_Room then gosub __Draw_Ghost
   5438  320d
   5439  320d		       a5 aa		      LDA	_Ghost3_Room
   5440  320f		       c5 a7		      CMP	_Buster_Room
   5441  3211		       d0 03		      BNE	.skipL0492
   5442  3213				   .condpart187
   5443  3213		       20 c0 d2 	      jsr	.__Draw_Ghost
   5444  3216
   5445  3216				   .skipL0492
   5446  3216				   .
   5447  3216							;;line 1054;;
   5448  3216
   5449  3216				   .L0493		;;line 1055;;	_Distance_to_Ghost = 255
   5450  3216
   5451  3216		       a9 ff		      LDA	#255
   5452  3218		       85 b5		      STA	_Distance_to_Ghost
   5453  321a				   .L0494		;;line 1056;;	temp5 = _Ghost1_Room
   5454  321a
   5455  321a		       a5 a8		      LDA	_Ghost1_Room
   5456  321c		       85 a0		      STA	temp5
   5457  321e				   .L0495		;;line 1057;;	gosub __Calculate_Distance_to_Closest_Ghost
   5458  321e
   5459  321e		       20 5a d2 	      jsr	.__Calculate_Distance_to_Closest_Ghost
   5460  3221
   5461  3221				   .L0496		;;line 1058;;	if temp4  <  _Distance_to_Ghost then _Distance_to_Ghost = temp4
   5462  3221
   5463  3221		       a5 9f		      LDA	temp4
   5464  3223		       c5 b5		      CMP	_Distance_to_Ghost
   5465  3225		       b0 04		      BCS	.skipL0496
   5466  3227				   .condpart188
   5467  3227		       a5 9f		      LDA	temp4
   5468  3229		       85 b5		      STA	_Distance_to_Ghost
   5469  322b				   .skipL0496
   5470  322b				   .
   5471  322b							;;line 1059;;
   5472  322b
   5473  322b				   .L0497		;;line 1060;;	temp5 = _Ghost2_Room
   5474  322b
   5475  322b		       a5 a9		      LDA	_Ghost2_Room
   5476  322d		       85 a0		      STA	temp5
   5477  322f				   .L0498		;;line 1061;;	gosub __Calculate_Distance_to_Closest_Ghost
   5478  322f
   5479  322f		       20 5a d2 	      jsr	.__Calculate_Distance_to_Closest_Ghost
   5480  3232
   5481  3232				   .L0499		;;line 1062;;	if temp4  <  _Distance_to_Ghost then _Distance_to_Ghost = temp4
   5482  3232
   5483  3232		       a5 9f		      LDA	temp4
   5484  3234		       c5 b5		      CMP	_Distance_to_Ghost
   5485  3236		       b0 04		      BCS	.skipL0499
   5486  3238				   .condpart189
   5487  3238		       a5 9f		      LDA	temp4
   5488  323a		       85 b5		      STA	_Distance_to_Ghost
   5489  323c				   .skipL0499
   5490  323c				   .
   5491  323c							;;line 1063;;
   5492  323c
   5493  323c				   .L0500		;;line 1064;;	temp5 = _Ghost3_Room
   5494  323c
   5495  323c		       a5 aa		      LDA	_Ghost3_Room
   5496  323e		       85 a0		      STA	temp5
   5497  3240				   .L0501		;;line 1065;;	gosub __Calculate_Distance_to_Closest_Ghost
   5498  3240
   5499  3240		       20 5a d2 	      jsr	.__Calculate_Distance_to_Closest_Ghost
   5500  3243
   5501  3243				   .L0502		;;line 1066;;	if temp4  <  _Distance_to_Ghost then _Distance_to_Ghost = temp4
   5502  3243
   5503  3243		       a5 9f		      LDA	temp4
   5504  3245		       c5 b5		      CMP	_Distance_to_Ghost
   5505  3247		       b0 04		      BCS	.skipL0502
   5506  3249				   .condpart190
   5507  3249		       a5 9f		      LDA	temp4
   5508  324b		       85 b5		      STA	_Distance_to_Ghost
   5509  324d				   .skipL0502
   5510  324d				   .L0503		;;line 1067;;	return
   5511  324d
   5512  324d		       ba		      tsx
   5513  324e		       b5 02		      lda	2,x	; check return address
   5514  3250		       49 d2		      eor	#(>*)	; vs. current PCH
   5515  3252		       29 e0		      and	#$E0	;  mask off all but top 3 bits
   5516  3254		       f0 03		      beq	*+5	; if equal, do normal return
   5517  3256		       4c dd ff 	      JMP	BS_return
   5518  3259		       60		      RTS
   5519  325a				   .
   5520  325a							;;line 1068;;
   5521  325a
   5522  325a				   .__Calculate_Distance_to_Closest_Ghost
   5523  325a							;;line 1069;; __Calculate_Distance_to_Closest_Ghost
   5524  325a
   5525  325a				   .L0504		;;line 1070;;	temp3 = 0
   5526  325a
   5527  325a		       a9 00		      LDA	#0
   5528  325c		       85 9e		      STA	temp3
   5529  325e				   .L0505		;;line 1071;;	temp2 = temp5
   5530  325e
   5531  325e		       a5 a0		      LDA	temp5
   5532  3260		       85 9d		      STA	temp2
   5533  3262				   .
   5534  3262							;;line 1072;;
   5535  3262
   5536  3262				   .__Extract_Loop
   5537  3262							;;line 1073;; __Extract_Loop
   5538  3262
   5539  3262				   .L0506		;;line 1074;;	if temp2  <  10 then goto __Absolute_Difference
   5540  3262
   5541  3262		       a5 9d		      LDA	temp2
   5542  3264		       c9 0a		      CMP	#10
   5543  3266		       b0 03		      BCS	.skipL0506
   5544  3268				   .condpart191
   5545  3268		       4c 77 d2 	      jmp	.__Absolute_Difference
   5546  326b
   5547  326b				   .skipL0506
   5548  326b				   .L0507		;;line 1075;;	temp2 = temp2  -  10
   5549  326b
   5550  326b		       a5 9d		      LDA	temp2
   5551  326d		       38		      SEC
   5552  326e		       e9 0a		      SBC	#10
   5553  3270		       85 9d		      STA	temp2
   5554  3272				   .L0508		;;line 1076;;	temp3 = temp3  +  1
   5555  3272
   5556  3272		       e6 9e		      INC	temp3
   5557  3274				   .L0509		;;line 1077;;	goto __Extract_Loop
   5558  3274
   5559  3274		       4c 62 d2 	      jmp	.__Extract_Loop
   5560  3277
   5561  3277				   .
   5562  3277							;;line 1078;;
   5563  3277
   5564  3277				   .__Absolute_Difference
   5565  3277							;;line 1079;; __Absolute_Difference
   5566  3277
   5567  3277				   .L0510		;;line 1080;;	if _Map_Position_x  >  temp2 then temp2 = _Map_Position_x  -  temp2 else temp2 = temp2	-  _Map_Position_x
   5568  3277
   5569  3277		       a5 9d		      LDA	temp2
   5570  3279		       c5 ab		      CMP	_Map_Position_x
   5571  327b		       b0 0a		      BCS	.skipL0510
   5572  327d				   .condpart192
   5573  327d		       a5 ab		      LDA	_Map_Position_x
   5574  327f		       38		      SEC
   5575  3280		       e5 9d		      SBC	temp2
   5576  3282		       85 9d		      STA	temp2
   5577  3284		       4c 8e d2 	      jmp	.skipelse12
   5578  3287				   .skipL0510
   5579  3287		       a5 9d		      LDA	temp2
   5580  3289		       38		      SEC
   5581  328a		       e5 ab		      SBC	_Map_Position_x
   5582  328c		       85 9d		      STA	temp2
   5583  328e				   .skipelse12
   5584  328e				   .L0511		;;line 1081;;	if _Map_Position_y  >  temp3 then temp3 = _Map_Position_y  -  temp3 else temp3 = temp3	-  _Map_Position_y
   5585  328e
   5586  328e		       a5 9e		      LDA	temp3
   5587  3290		       c5 ac		      CMP	_Map_Position_y
   5588  3292		       b0 0a		      BCS	.skipL0511
   5589  3294				   .condpart193
   5590  3294		       a5 ac		      LDA	_Map_Position_y
   5591  3296		       38		      SEC
   5592  3297		       e5 9e		      SBC	temp3
   5593  3299		       85 9e		      STA	temp3
   5594  329b		       4c a5 d2 	      jmp	.skipelse13
   5595  329e				   .skipL0511
   5596  329e		       a5 9e		      LDA	temp3
   5597  32a0		       38		      SEC
   5598  32a1		       e5 ac		      SBC	_Map_Position_y
   5599  32a3		       85 9e		      STA	temp3
   5600  32a5				   .skipelse13
   5601  32a5				   .
   5602  32a5							;;line 1082;;
   5603  32a5
   5604  32a5				   .L0512		;;line 1083;;	temp4 = temp2
   5605  32a5
   5606  32a5		       a5 9d		      LDA	temp2
   5607  32a7		       85 9f		      STA	temp4
   5608  32a9				   .L0513		;;line 1084;;	if temp3  >  temp2 then temp4 = temp3
   5609  32a9
   5610  32a9		       a5 9d		      LDA	temp2
   5611  32ab		       c5 9e		      CMP	temp3
   5612  32ad		       b0 04		      BCS	.skipL0513
   5613  32af				   .condpart194
   5614  32af		       a5 9e		      LDA	temp3
   5615  32b1		       85 9f		      STA	temp4
   5616  32b3				   .skipL0513
   5617  32b3				   .L0514		;;line 1085;;	return
   5618  32b3
   5619  32b3		       ba		      tsx
   5620  32b4		       b5 02		      lda	2,x	; check return address
   5621  32b6		       49 d2		      eor	#(>*)	; vs. current PCH
   5622  32b8		       29 e0		      and	#$E0	;  mask off all but top 3 bits
   5623  32ba		       f0 03		      beq	*+5	; if equal, do normal return
   5624  32bc		       4c dd ff 	      JMP	BS_return
   5625  32bf		       60		      RTS
   5626  32c0				   .
   5627  32c0							;;line 1086;;
   5628  32c0
   5629  32c0				   .__Draw_Ghost
   5630  32c0							;;line 1087;; __Draw_Ghost
   5631  32c0
   5632  32c0				   .L0515		;;line 1088;;	if player0y = 0 then _Ghost_x = 80  :  _Ghost_y = 45
   5633  32c0
   5634  32c0		       a5 85		      LDA	player0y
   5635  32c2		       c9 00		      CMP	#0
   5636  32c4		       d0 08		      BNE	.skipL0515
   5637  32c6				   .condpart195
   5638  32c6		       a9 50		      LDA	#80
   5639  32c8		       85 af		      STA	_Ghost_x
   5640  32ca		       a9 2d		      LDA	#45
   5641  32cc		       85 b0		      STA	_Ghost_y
   5642  32ce				   .skipL0515
   5643  32ce				   .L0516		;;line 1089;;	player0x = _Ghost_x  :	player0y = _Ghost_y
   5644  32ce
   5645  32ce		       a5 af		      LDA	_Ghost_x
   5646  32d0		       85 80		      STA	player0x
   5647  32d2		       a5 b0		      LDA	_Ghost_y
   5648  32d4		       85 85		      STA	player0y
   5649  32d6				   .L0517		;;line 1090;;	return
   5650  32d6
   5651  32d6		       ba		      tsx
   5652  32d7		       b5 02		      lda	2,x	; check return address
   5653  32d9		       49 d2		      eor	#(>*)	; vs. current PCH
   5654  32db		       29 e0		      and	#$E0	;  mask off all but top 3 bits
   5655  32dd		       f0 03		      beq	*+5	; if equal, do normal return
   5656  32df		       4c dd ff 	      JMP	BS_return
   5657  32e2		       60		      RTS
   5658  32e3				   .
   5659  32e3							;;line 1091;;
   5660  32e3
   5661  32e3				   .
   5662  32e3							;;line 1092;;
   5663  32e3
   5664  32e3				   .
   5665  32e3							;;line 1093;;
   5666  32e3
   5667  32e3				   .
   5668  32e3							;;line 1094;;
   5669  32e3
   5670  32e3				   .
   5671  32e3							;;line 1095;;
   5672  32e3
   5673  32e3				   .__Layout_Room_1
   5674  32e3							;;line 1096;; __Layout_Room_1
   5675  32e3
   5676  32e3				   .L0518		;;line 1097;;	playfield:
   5677  32e3
   5678  32e3				  -	      ifconst	pfres
   5679  32e3				  -	      ldx	#(11>pfres)*(pfres*pfwidth-1)+(11<=pfres)*43
   5680  32e3					      else
   5681  32e3		       a2 2b		      ldx	#((11*pfwidth-1)*((11*pfwidth-1)<47))+(47*((11*pfwidth-1)>=47))
   5682  32e5					      endif
   5683  32e5		       4c 14 d3 	      jmp	pflabel0
   5684  32e8				   PF_data0
   5685  32e8		       ff ff		      .byte.b	%11111111, %11111111
   5686  32ea					      if	(pfwidth>2)
   5687  32ea		       ff ff		      .byte.b	%11111111, %11111111
   5688  32ec					      endif
   5689  32ec		       80 00		      .byte.b	%10000000, %00000000
   5690  32ee					      if	(pfwidth>2)
   5691  32ee		       00 00		      .byte.b	%00000000, %00000000
   5692  32f0					      endif
   5693  32f0		       80 00		      .byte.b	%10000000, %00000000
   5694  32f2					      if	(pfwidth>2)
   5695  32f2		       00 00		      .byte.b	%00000000, %00000000
   5696  32f4					      endif
   5697  32f4		       ff 3f		      .byte.b	%11111111, %00111111
   5698  32f6					      if	(pfwidth>2)
   5699  32f6		       3f ff		      .byte.b	%00111111, %11111111
   5700  32f8					      endif
   5701  32f8		       80 00		      .byte.b	%10000000, %00000000
   5702  32fa					      if	(pfwidth>2)
   5703  32fa		       00 00		      .byte.b	%00000000, %00000000
   5704  32fc					      endif
   5705  32fc		       ff 3f		      .byte.b	%11111111, %00111111
   5706  32fe					      if	(pfwidth>2)
   5707  32fe		       3f ff		      .byte.b	%00111111, %11111111
   5708  3300					      endif
   5709  3300		       80 00		      .byte.b	%10000000, %00000000
   5710  3302					      if	(pfwidth>2)
   5711  3302		       00 00		      .byte.b	%00000000, %00000000
   5712  3304					      endif
   5713  3304		       ff 3f		      .byte.b	%11111111, %00111111
   5714  3306					      if	(pfwidth>2)
   5715  3306		       3f ff		      .byte.b	%00111111, %11111111
   5716  3308					      endif
   5717  3308		       80 00		      .byte.b	%10000000, %00000000
   5718  330a					      if	(pfwidth>2)
   5719  330a		       00 00		      .byte.b	%00000000, %00000000
   5720  330c					      endif
   5721  330c		       80 00		      .byte.b	%10000000, %00000000
   5722  330e					      if	(pfwidth>2)
   5723  330e		       00 00		      .byte.b	%00000000, %00000000
   5724  3310					      endif
   5725  3310		       ff 3f		      .byte.b	%11111111, %00111111
   5726  3312					      if	(pfwidth>2)
   5727  3312		       3f ff		      .byte.b	%00111111, %11111111
   5728  3314					      endif
   5729  3314				   pflabel0
   5730  3314		       bd e8 d2 	      lda	PF_data0,x
   5731  3317		       9d 50 10 	      sta	playfield-128,x
   5732  331a		       ca		      dex
   5733  331b		       10 f7		      bpl	pflabel0
   5734  331d				   .L0519		;;line 1110;;	goto __Check_Room_For_Ghosts
   5735  331d
   5736  331d		       4c f7 d1 	      jmp	.__Check_Room_For_Ghosts
   5737  3320
   5738  3320				   .
   5739  3320							;;line 1111;;
   5740  3320
   5741  3320				   .__Layout_Room_2
   5742  3320							;;line 1112;; __Layout_Room_2
   5743  3320
   5744  3320				   .L0520		;;line 1113;;	playfield:
   5745  3320
   5746  3320				  -	      ifconst	pfres
   5747  3320				  -	      ldx	#(11>pfres)*(pfres*pfwidth-1)+(11<=pfres)*43
   5748  3320					      else
   5749  3320		       a2 2b		      ldx	#((11*pfwidth-1)*((11*pfwidth-1)<47))+(47*((11*pfwidth-1)>=47))
   5750  3322					      endif
   5751  3322		       4c 51 d3 	      jmp	pflabel1
   5752  3325				   PF_data1
   5753  3325		       ff 3f		      .byte.b	%11111111, %00111111
   5754  3327					      if	(pfwidth>2)
   5755  3327		       3f ff		      .byte.b	%00111111, %11111111
   5756  3329					      endif
   5757  3329		       80 00		      .byte.b	%10000000, %00000000
   5758  332b					      if	(pfwidth>2)
   5759  332b		       00 00		      .byte.b	%00000000, %00000000
   5760  332d					      endif
   5761  332d		       80 00		      .byte.b	%10000000, %00000000
   5762  332f					      if	(pfwidth>2)
   5763  332f		       00 00		      .byte.b	%00000000, %00000000
   5764  3331					      endif
   5765  3331		       ff 3f		      .byte.b	%11111111, %00111111
   5766  3333					      if	(pfwidth>2)
   5767  3333		       3f ff		      .byte.b	%00111111, %11111111
   5768  3335					      endif
   5769  3335		       80 00		      .byte.b	%10000000, %00000000
   5770  3337					      if	(pfwidth>2)
   5771  3337		       00 00		      .byte.b	%00000000, %00000000
   5772  3339					      endif
   5773  3339		       ff 3f		      .byte.b	%11111111, %00111111
   5774  333b					      if	(pfwidth>2)
   5775  333b		       3f ff		      .byte.b	%00111111, %11111111
   5776  333d					      endif
   5777  333d		       80 00		      .byte.b	%10000000, %00000000
   5778  333f					      if	(pfwidth>2)
   5779  333f		       00 00		      .byte.b	%00000000, %00000000
   5780  3341					      endif
   5781  3341		       ff 3f		      .byte.b	%11111111, %00111111
   5782  3343					      if	(pfwidth>2)
   5783  3343		       3f ff		      .byte.b	%00111111, %11111111
   5784  3345					      endif
   5785  3345		       80 00		      .byte.b	%10000000, %00000000
   5786  3347					      if	(pfwidth>2)
   5787  3347		       00 00		      .byte.b	%00000000, %00000000
   5788  3349					      endif
   5789  3349		       80 00		      .byte.b	%10000000, %00000000
   5790  334b					      if	(pfwidth>2)
   5791  334b		       00 00		      .byte.b	%00000000, %00000000
   5792  334d					      endif
   5793  334d		       ff 3f		      .byte.b	%11111111, %00111111
   5794  334f					      if	(pfwidth>2)
   5795  334f		       3f ff		      .byte.b	%00111111, %11111111
   5796  3351					      endif
   5797  3351				   pflabel1
   5798  3351		       bd 25 d3 	      lda	PF_data1,x
   5799  3354		       9d 50 10 	      sta	playfield-128,x
   5800  3357		       ca		      dex
   5801  3358		       10 f7		      bpl	pflabel1
   5802  335a				   .L0521		;;line 1126;;	goto __Check_Room_For_Ghosts
   5803  335a
   5804  335a		       4c f7 d1 	      jmp	.__Check_Room_For_Ghosts
   5805  335d
   5806  335d				   .
   5807  335d							;;line 1127;;
   5808  335d
   5809  335d				   .__Layout_Room_3
   5810  335d							;;line 1128;; __Layout_Room_3
   5811  335d
   5812  335d				   .L0522		;;line 1129;;	playfield:
   5813  335d
   5814  335d				  -	      ifconst	pfres
   5815  335d				  -	      ldx	#(11>pfres)*(pfres*pfwidth-1)+(11<=pfres)*43
   5816  335d					      else
   5817  335d		       a2 2b		      ldx	#((11*pfwidth-1)*((11*pfwidth-1)<47))+(47*((11*pfwidth-1)>=47))
   5818  335f					      endif
   5819  335f		       4c 8e d3 	      jmp	pflabel2
   5820  3362				   PF_data2
   5821  3362		       ff 3f		      .byte.b	%11111111, %00111111
   5822  3364					      if	(pfwidth>2)
   5823  3364		       3f ff		      .byte.b	%00111111, %11111111
   5824  3366					      endif
   5825  3366		       80 00		      .byte.b	%10000000, %00000000
   5826  3368					      if	(pfwidth>2)
   5827  3368		       00 00		      .byte.b	%00000000, %00000000
   5828  336a					      endif
   5829  336a		       80 00		      .byte.b	%10000000, %00000000
   5830  336c					      if	(pfwidth>2)
   5831  336c		       00 00		      .byte.b	%00000000, %00000000
   5832  336e					      endif
   5833  336e		       80 00		      .byte.b	%10000000, %00000000
   5834  3370					      if	(pfwidth>2)
   5835  3370		       3f ff		      .byte.b	%00111111, %11111111
   5836  3372					      endif
   5837  3372		       80 00		      .byte.b	%10000000, %00000000
   5838  3374					      if	(pfwidth>2)
   5839  3374		       00 00		      .byte.b	%00000000, %00000000
   5840  3376					      endif
   5841  3376		       80 00		      .byte.b	%10000000, %00000000
   5842  3378					      if	(pfwidth>2)
   5843  3378		       3f ff		      .byte.b	%00111111, %11111111
   5844  337a					      endif
   5845  337a		       80 00		      .byte.b	%10000000, %00000000
   5846  337c					      if	(pfwidth>2)
   5847  337c		       00 00		      .byte.b	%00000000, %00000000
   5848  337e					      endif
   5849  337e		       80 00		      .byte.b	%10000000, %00000000
   5850  3380					      if	(pfwidth>2)
   5851  3380		       3f ff		      .byte.b	%00111111, %11111111
   5852  3382					      endif
   5853  3382		       80 00		      .byte.b	%10000000, %00000000
   5854  3384					      if	(pfwidth>2)
   5855  3384		       00 00		      .byte.b	%00000000, %00000000
   5856  3386					      endif
   5857  3386		       80 00		      .byte.b	%10000000, %00000000
   5858  3388					      if	(pfwidth>2)
   5859  3388		       00 00		      .byte.b	%00000000, %00000000
   5860  338a					      endif
   5861  338a		       ff ff		      .byte.b	%11111111, %11111111
   5862  338c					      if	(pfwidth>2)
   5863  338c		       ff ff		      .byte.b	%11111111, %11111111
   5864  338e					      endif
   5865  338e				   pflabel2
   5866  338e		       bd 62 d3 	      lda	PF_data2,x
   5867  3391		       9d 50 10 	      sta	playfield-128,x
   5868  3394		       ca		      dex
   5869  3395		       10 f7		      bpl	pflabel2
   5870  3397				   .L0523		;;line 1142;;	goto __Check_Room_For_Ghosts
   5871  3397
   5872  3397		       4c f7 d1 	      jmp	.__Check_Room_For_Ghosts
   5873  339a
   5874  339a				   .
   5875  339a							;;line 1143;;
   5876  339a
   5877  339a				   .__Layout_Room_4
   5878  339a							;;line 1144;; __Layout_Room_4
   5879  339a
   5880  339a				   .L0524		;;line 1145;;	playfield:
   5881  339a
   5882  339a				  -	      ifconst	pfres
   5883  339a				  -	      ldx	#(11>pfres)*(pfres*pfwidth-1)+(11<=pfres)*43
   5884  339a					      else
   5885  339a		       a2 2b		      ldx	#((11*pfwidth-1)*((11*pfwidth-1)<47))+(47*((11*pfwidth-1)>=47))
   5886  339c					      endif
   5887  339c		       4c cb d3 	      jmp	pflabel3
   5888  339f				   PF_data3
   5889  339f		       ff ff		      .byte.b	%11111111, %11111111
   5890  33a1					      if	(pfwidth>2)
   5891  33a1		       ff ff		      .byte.b	%11111111, %11111111
   5892  33a3					      endif
   5893  33a3		       00 00		      .byte.b	%00000000, %00000000
   5894  33a5					      if	(pfwidth>2)
   5895  33a5		       00 80		      .byte.b	%00000000, %10000000
   5896  33a7					      endif
   5897  33a7		       00 00		      .byte.b	%00000000, %00000000
   5898  33a9					      if	(pfwidth>2)
   5899  33a9		       00 80		      .byte.b	%00000000, %10000000
   5900  33ab					      endif
   5901  33ab		       ff 3f		      .byte.b	%11111111, %00111111
   5902  33ad					      if	(pfwidth>2)
   5903  33ad		       3f ff		      .byte.b	%00111111, %11111111
   5904  33af					      endif
   5905  33af		       00 00		      .byte.b	%00000000, %00000000
   5906  33b1					      if	(pfwidth>2)
   5907  33b1		       00 80		      .byte.b	%00000000, %10000000
   5908  33b3					      endif
   5909  33b3		       ff 3f		      .byte.b	%11111111, %00111111
   5910  33b5					      if	(pfwidth>2)
   5911  33b5		       3f ff		      .byte.b	%00111111, %11111111
   5912  33b7					      endif
   5913  33b7		       00 00		      .byte.b	%00000000, %00000000
   5914  33b9					      if	(pfwidth>2)
   5915  33b9		       00 80		      .byte.b	%00000000, %10000000
   5916  33bb					      endif
   5917  33bb		       ff 3f		      .byte.b	%11111111, %00111111
   5918  33bd					      if	(pfwidth>2)
   5919  33bd		       3f ff		      .byte.b	%00111111, %11111111
   5920  33bf					      endif
   5921  33bf		       00 00		      .byte.b	%00000000, %00000000
   5922  33c1					      if	(pfwidth>2)
   5923  33c1		       00 80		      .byte.b	%00000000, %10000000
   5924  33c3					      endif
   5925  33c3		       00 00		      .byte.b	%00000000, %00000000
   5926  33c5					      if	(pfwidth>2)
   5927  33c5		       00 80		      .byte.b	%00000000, %10000000
   5928  33c7					      endif
   5929  33c7		       ff 3f		      .byte.b	%11111111, %00111111
   5930  33c9					      if	(pfwidth>2)
   5931  33c9		       3f ff		      .byte.b	%00111111, %11111111
   5932  33cb					      endif
   5933  33cb				   pflabel3
   5934  33cb		       bd 9f d3 	      lda	PF_data3,x
   5935  33ce		       9d 50 10 	      sta	playfield-128,x
   5936  33d1		       ca		      dex
   5937  33d2		       10 f7		      bpl	pflabel3
   5938  33d4				   .L0525		;;line 1158;;	goto __Check_Room_For_Ghosts
   5939  33d4
   5940  33d4		       4c f7 d1 	      jmp	.__Check_Room_For_Ghosts
   5941  33d7
   5942  33d7				   .
   5943  33d7							;;line 1159;;
   5944  33d7
   5945  33d7				   .__Layout_Room_5
   5946  33d7							;;line 1160;; __Layout_Room_5
   5947  33d7
   5948  33d7				   .L0526		;;line 1161;;	playfield:
   5949  33d7
   5950  33d7				  -	      ifconst	pfres
   5951  33d7				  -	      ldx	#(11>pfres)*(pfres*pfwidth-1)+(11<=pfres)*43
   5952  33d7					      else
   5953  33d7		       a2 2b		      ldx	#((11*pfwidth-1)*((11*pfwidth-1)<47))+(47*((11*pfwidth-1)>=47))
   5954  33d9					      endif
   5955  33d9		       4c 08 d4 	      jmp	pflabel4
   5956  33dc				   PF_data4
   5957  33dc		       ff 3f		      .byte.b	%11111111, %00111111
   5958  33de					      if	(pfwidth>2)
   5959  33de		       3f ff		      .byte.b	%00111111, %11111111
   5960  33e0					      endif
   5961  33e0		       00 00		      .byte.b	%00000000, %00000000
   5962  33e2					      if	(pfwidth>2)
   5963  33e2		       00 80		      .byte.b	%00000000, %10000000
   5964  33e4					      endif
   5965  33e4		       00 00		      .byte.b	%00000000, %00000000
   5966  33e6					      if	(pfwidth>2)
   5967  33e6		       00 80		      .byte.b	%00000000, %10000000
   5968  33e8					      endif
   5969  33e8		       ff 3f		      .byte.b	%11111111, %00111111
   5970  33ea					      if	(pfwidth>2)
   5971  33ea		       3f ff		      .byte.b	%00111111, %11111111
   5972  33ec					      endif
   5973  33ec		       00 00		      .byte.b	%00000000, %00000000
   5974  33ee					      if	(pfwidth>2)
   5975  33ee		       00 80		      .byte.b	%00000000, %10000000
   5976  33f0					      endif
   5977  33f0		       ff 3f		      .byte.b	%11111111, %00111111
   5978  33f2					      if	(pfwidth>2)
   5979  33f2		       3f ff		      .byte.b	%00111111, %11111111
   5980  33f4					      endif
   5981  33f4		       00 00		      .byte.b	%00000000, %00000000
   5982  33f6					      if	(pfwidth>2)
   5983  33f6		       00 80		      .byte.b	%00000000, %10000000
   5984  33f8					      endif
   5985  33f8		       ff 3f		      .byte.b	%11111111, %00111111
   5986  33fa					      if	(pfwidth>2)
   5987  33fa		       3f ff		      .byte.b	%00111111, %11111111
   5988  33fc					      endif
   5989  33fc		       00 00		      .byte.b	%00000000, %00000000
   5990  33fe					      if	(pfwidth>2)
   5991  33fe		       00 80		      .byte.b	%00000000, %10000000
   5992  3400					      endif
   5993  3400		       00 00		      .byte.b	%00000000, %00000000
   5994  3402					      if	(pfwidth>2)
   5995  3402		       00 80		      .byte.b	%00000000, %10000000
   5996  3404					      endif
   5997  3404		       ff 3f		      .byte.b	%11111111, %00111111
   5998  3406					      if	(pfwidth>2)
   5999  3406		       3f ff		      .byte.b	%00111111, %11111111
   6000  3408					      endif
   6001  3408				   pflabel4
   6002  3408		       bd dc d3 	      lda	PF_data4,x
   6003  340b		       9d 50 10 	      sta	playfield-128,x
   6004  340e		       ca		      dex
   6005  340f		       10 f7		      bpl	pflabel4
   6006  3411				   .L0527		;;line 1174;;	goto __Check_Room_For_Ghosts
   6007  3411
   6008  3411		       4c f7 d1 	      jmp	.__Check_Room_For_Ghosts
   6009  3414
   6010  3414				   .
   6011  3414							;;line 1175;;
   6012  3414
   6013  3414				   .__Layout_Room_6
   6014  3414							;;line 1176;; __Layout_Room_6
   6015  3414
   6016  3414				   .L0528		;;line 1177;;	playfield:
   6017  3414
   6018  3414				  -	      ifconst	pfres
   6019  3414				  -	      ldx	#(11>pfres)*(pfres*pfwidth-1)+(11<=pfres)*43
   6020  3414					      else
   6021  3414		       a2 2b		      ldx	#((11*pfwidth-1)*((11*pfwidth-1)<47))+(47*((11*pfwidth-1)>=47))
   6022  3416					      endif
   6023  3416		       4c 45 d4 	      jmp	pflabel5
   6024  3419				   PF_data5
   6025  3419		       ff 3f		      .byte.b	%11111111, %00111111
   6026  341b					      if	(pfwidth>2)
   6027  341b		       3f ff		      .byte.b	%00111111, %11111111
   6028  341d					      endif
   6029  341d		       00 00		      .byte.b	%00000000, %00000000
   6030  341f					      if	(pfwidth>2)
   6031  341f		       00 80		      .byte.b	%00000000, %10000000
   6032  3421					      endif
   6033  3421		       00 00		      .byte.b	%00000000, %00000000
   6034  3423					      if	(pfwidth>2)
   6035  3423		       00 80		      .byte.b	%00000000, %10000000
   6036  3425					      endif
   6037  3425		       ff 3f		      .byte.b	%11111111, %00111111
   6038  3427					      if	(pfwidth>2)
   6039  3427		       00 80		      .byte.b	%00000000, %10000000
   6040  3429					      endif
   6041  3429		       00 00		      .byte.b	%00000000, %00000000
   6042  342b					      if	(pfwidth>2)
   6043  342b		       00 80		      .byte.b	%00000000, %10000000
   6044  342d					      endif
   6045  342d		       ff 3f		      .byte.b	%11111111, %00111111
   6046  342f					      if	(pfwidth>2)
   6047  342f		       00 80		      .byte.b	%00000000, %10000000
   6048  3431					      endif
   6049  3431		       00 00		      .byte.b	%00000000, %00000000
   6050  3433					      if	(pfwidth>2)
   6051  3433		       00 80		      .byte.b	%00000000, %10000000
   6052  3435					      endif
   6053  3435		       ff 3f		      .byte.b	%11111111, %00111111
   6054  3437					      if	(pfwidth>2)
   6055  3437		       00 80		      .byte.b	%00000000, %10000000
   6056  3439					      endif
   6057  3439		       00 00		      .byte.b	%00000000, %00000000
   6058  343b					      if	(pfwidth>2)
   6059  343b		       00 80		      .byte.b	%00000000, %10000000
   6060  343d					      endif
   6061  343d		       00 00		      .byte.b	%00000000, %00000000
   6062  343f					      if	(pfwidth>2)
   6063  343f		       00 80		      .byte.b	%00000000, %10000000
   6064  3441					      endif
   6065  3441		       ff ff		      .byte.b	%11111111, %11111111
   6066  3443					      if	(pfwidth>2)
   6067  3443		       ff ff		      .byte.b	%11111111, %11111111
   6068  3445					      endif
   6069  3445				   pflabel5
   6070  3445		       bd 19 d4 	      lda	PF_data5,x
   6071  3448		       9d 50 10 	      sta	playfield-128,x
   6072  344b		       ca		      dex
   6073  344c		       10 f7		      bpl	pflabel5
   6074  344e				   .L0529		;;line 1190;;	goto __Check_Room_For_Ghosts
   6075  344e
   6076  344e		       4c f7 d1 	      jmp	.__Check_Room_For_Ghosts
   6077  3451
   6078  3451				   .
   6079  3451							;;line 1191;;
   6080  3451
   6081  3451				   .__Layout_Room_7
   6082  3451							;;line 1192;; __Layout_Room_7
   6083  3451
   6084  3451				   .L0530		;;line 1193;;	playfield:
   6085  3451
   6086  3451				  -	      ifconst	pfres
   6087  3451				  -	      ldx	#(11>pfres)*(pfres*pfwidth-1)+(11<=pfres)*43
   6088  3451					      else
   6089  3451		       a2 2b		      ldx	#((11*pfwidth-1)*((11*pfwidth-1)<47))+(47*((11*pfwidth-1)>=47))
   6090  3453					      endif
   6091  3453		       4c 82 d4 	      jmp	pflabel6
   6092  3456				   PF_data6
   6093  3456		       ff ff		      .byte.b	%11111111, %11111111
   6094  3458					      if	(pfwidth>2)
   6095  3458		       ff ff		      .byte.b	%11111111, %11111111
   6096  345a					      endif
   6097  345a		       00 00		      .byte.b	%00000000, %00000000
   6098  345c					      if	(pfwidth>2)
   6099  345c		       00 00		      .byte.b	%00000000, %00000000
   6100  345e					      endif
   6101  345e		       00 00		      .byte.b	%00000000, %00000000
   6102  3460					      if	(pfwidth>2)
   6103  3460		       00 00		      .byte.b	%00000000, %00000000
   6104  3462					      endif
   6105  3462		       ff 3f		      .byte.b	%11111111, %00111111
   6106  3464					      if	(pfwidth>2)
   6107  3464		       3f ff		      .byte.b	%00111111, %11111111
   6108  3466					      endif
   6109  3466		       00 00		      .byte.b	%00000000, %00000000
   6110  3468					      if	(pfwidth>2)
   6111  3468		       00 00		      .byte.b	%00000000, %00000000
   6112  346a					      endif
   6113  346a		       ff 3f		      .byte.b	%11111111, %00111111
   6114  346c					      if	(pfwidth>2)
   6115  346c		       3f ff		      .byte.b	%00111111, %11111111
   6116  346e					      endif
   6117  346e		       00 00		      .byte.b	%00000000, %00000000
   6118  3470					      if	(pfwidth>2)
   6119  3470		       00 00		      .byte.b	%00000000, %00000000
   6120  3472					      endif
   6121  3472		       ff 3f		      .byte.b	%11111111, %00111111
   6122  3474					      if	(pfwidth>2)
   6123  3474		       3f ff		      .byte.b	%00111111, %11111111
   6124  3476					      endif
   6125  3476		       00 00		      .byte.b	%00000000, %00000000
   6126  3478					      if	(pfwidth>2)
   6127  3478		       00 00		      .byte.b	%00000000, %00000000
   6128  347a					      endif
   6129  347a		       00 00		      .byte.b	%00000000, %00000000
   6130  347c					      if	(pfwidth>2)
   6131  347c		       00 00		      .byte.b	%00000000, %00000000
   6132  347e					      endif
   6133  347e		       ff 3f		      .byte.b	%11111111, %00111111
   6134  3480					      if	(pfwidth>2)
   6135  3480		       3f ff		      .byte.b	%00111111, %11111111
   6136  3482					      endif
   6137  3482				   pflabel6
   6138  3482		       bd 56 d4 	      lda	PF_data6,x
   6139  3485		       9d 50 10 	      sta	playfield-128,x
   6140  3488		       ca		      dex
   6141  3489		       10 f7		      bpl	pflabel6
   6142  348b				   .L0531		;;line 1206;;	goto __Check_Room_For_Ghosts
   6143  348b
   6144  348b		       4c f7 d1 	      jmp	.__Check_Room_For_Ghosts
   6145  348e
   6146  348e				   .
   6147  348e							;;line 1207;;
   6148  348e
   6149  348e				   .__Layout_Room_8
   6150  348e							;;line 1208;; __Layout_Room_8
   6151  348e
   6152  348e				   .L0532		;;line 1209;;	playfield:
   6153  348e
   6154  348e				  -	      ifconst	pfres
   6155  348e				  -	      ldx	#(11>pfres)*(pfres*pfwidth-1)+(11<=pfres)*43
   6156  348e					      else
   6157  348e		       a2 2b		      ldx	#((11*pfwidth-1)*((11*pfwidth-1)<47))+(47*((11*pfwidth-1)>=47))
   6158  3490					      endif
   6159  3490		       4c bf d4 	      jmp	pflabel7
   6160  3493				   PF_data7
   6161  3493		       ff 3f		      .byte.b	%11111111, %00111111
   6162  3495					      if	(pfwidth>2)
   6163  3495		       3f ff		      .byte.b	%00111111, %11111111
   6164  3497					      endif
   6165  3497		       00 00		      .byte.b	%00000000, %00000000
   6166  3499					      if	(pfwidth>2)
   6167  3499		       00 00		      .byte.b	%00000000, %00000000
   6168  349b					      endif
   6169  349b		       00 00		      .byte.b	%00000000, %00000000
   6170  349d					      if	(pfwidth>2)
   6171  349d		       00 00		      .byte.b	%00000000, %00000000
   6172  349f					      endif
   6173  349f		       ff 3f		      .byte.b	%11111111, %00111111
   6174  34a1					      if	(pfwidth>2)
   6175  34a1		       3f ff		      .byte.b	%00111111, %11111111
   6176  34a3					      endif
   6177  34a3		       00 00		      .byte.b	%00000000, %00000000
   6178  34a5					      if	(pfwidth>2)
   6179  34a5		       00 00		      .byte.b	%00000000, %00000000
   6180  34a7					      endif
   6181  34a7		       ff 3f		      .byte.b	%11111111, %00111111
   6182  34a9					      if	(pfwidth>2)
   6183  34a9		       3f ff		      .byte.b	%00111111, %11111111
   6184  34ab					      endif
   6185  34ab		       00 00		      .byte.b	%00000000, %00000000
   6186  34ad					      if	(pfwidth>2)
   6187  34ad		       00 00		      .byte.b	%00000000, %00000000
   6188  34af					      endif
   6189  34af		       ff 3f		      .byte.b	%11111111, %00111111
   6190  34b1					      if	(pfwidth>2)
   6191  34b1		       3f ff		      .byte.b	%00111111, %11111111
   6192  34b3					      endif
   6193  34b3		       00 00		      .byte.b	%00000000, %00000000
   6194  34b5					      if	(pfwidth>2)
   6195  34b5		       00 00		      .byte.b	%00000000, %00000000
   6196  34b7					      endif
   6197  34b7		       00 00		      .byte.b	%00000000, %00000000
   6198  34b9					      if	(pfwidth>2)
   6199  34b9		       00 00		      .byte.b	%00000000, %00000000
   6200  34bb					      endif
   6201  34bb		       ff ff		      .byte.b	%11111111, %11111111
   6202  34bd					      if	(pfwidth>2)
   6203  34bd		       ff ff		      .byte.b	%11111111, %11111111
   6204  34bf					      endif
   6205  34bf				   pflabel7
   6206  34bf		       bd 93 d4 	      lda	PF_data7,x
   6207  34c2		       9d 50 10 	      sta	playfield-128,x
   6208  34c5		       ca		      dex
   6209  34c6		       10 f7		      bpl	pflabel7
   6210  34c8				   .L0533		;;line 1222;;	goto __Check_Room_For_Ghosts
   6211  34c8
   6212  34c8		       4c f7 d1 	      jmp	.__Check_Room_For_Ghosts
   6213  34cb
   6214  34cb				   .
   6215  34cb							;;line 1223;;
   6216  34cb
   6217  34cb				   .__Layout_Room_9
   6218  34cb							;;line 1224;; __Layout_Room_9
   6219  34cb
   6220  34cb				   .L0534		;;line 1225;;	playfield:
   6221  34cb
   6222  34cb				  -	      ifconst	pfres
   6223  34cb				  -	      ldx	#(11>pfres)*(pfres*pfwidth-1)+(11<=pfres)*43
   6224  34cb					      else
   6225  34cb		       a2 2b		      ldx	#((11*pfwidth-1)*((11*pfwidth-1)<47))+(47*((11*pfwidth-1)>=47))
   6226  34cd					      endif
   6227  34cd		       4c fc d4 	      jmp	pflabel8
   6228  34d0				   PF_data8
   6229  34d0		       ff 3f		      .byte.b	%11111111, %00111111
   6230  34d2					      if	(pfwidth>2)
   6231  34d2		       3f ff		      .byte.b	%00111111, %11111111
   6232  34d4					      endif
   6233  34d4		       08 00		      .byte.b	%00001000, %00000000
   6234  34d6					      if	(pfwidth>2)
   6235  34d6		       00 08		      .byte.b	%00000000, %00001000
   6236  34d8					      endif
   6237  34d8		       08 00		      .byte.b	%00001000, %00000000
   6238  34da					      if	(pfwidth>2)
   6239  34da		       00 08		      .byte.b	%00000000, %00001000
   6240  34dc					      endif
   6241  34dc		       f8 00		      .byte.b	%11111000, %00000000
   6242  34de					      if	(pfwidth>2)
   6243  34de		       00 f8		      .byte.b	%00000000, %11111000
   6244  34e0					      endif
   6245  34e0		       08 02		      .byte.b	%00001000, %00000010
   6246  34e2					      if	(pfwidth>2)
   6247  34e2		       02 08		      .byte.b	%00000010, %00001000
   6248  34e4					      endif
   6249  34e4		       f8 fc		      .byte.b	%11111000, %11111100
   6250  34e6					      if	(pfwidth>2)
   6251  34e6		       fc f8		      .byte.b	%11111100, %11111000
   6252  34e8					      endif
   6253  34e8		       08 00		      .byte.b	%00001000, %00000000
   6254  34ea					      if	(pfwidth>2)
   6255  34ea		       00 08		      .byte.b	%00000000, %00001000
   6256  34ec					      endif
   6257  34ec		       f8 00		      .byte.b	%11111000, %00000000
   6258  34ee					      if	(pfwidth>2)
   6259  34ee		       00 f8		      .byte.b	%00000000, %11111000
   6260  34f0					      endif
   6261  34f0		       08 00		      .byte.b	%00001000, %00000000
   6262  34f2					      if	(pfwidth>2)
   6263  34f2		       00 08		      .byte.b	%00000000, %00001000
   6264  34f4					      endif
   6265  34f4		       08 00		      .byte.b	%00001000, %00000000
   6266  34f6					      if	(pfwidth>2)
   6267  34f6		       00 08		      .byte.b	%00000000, %00001000
   6268  34f8					      endif
   6269  34f8		       ff ff		      .byte.b	%11111111, %11111111
   6270  34fa					      if	(pfwidth>2)
   6271  34fa		       ff ff		      .byte.b	%11111111, %11111111
   6272  34fc					      endif
   6273  34fc				   pflabel8
   6274  34fc		       bd d0 d4 	      lda	PF_data8,x
   6275  34ff		       9d 50 10 	      sta	playfield-128,x
   6276  3502		       ca		      dex
   6277  3503		       10 f7		      bpl	pflabel8
   6278  3505				   .L0535		;;line 1238;;	goto __Check_Room_For_Ghosts
   6279  3505
   6280  3505		       4c f7 d1 	      jmp	.__Check_Room_For_Ghosts
   6281  3508
   6282  3508				   .
   6283  3508							;;line 1239;;
   6284  3508
   6285  3508				   .__Layout_Room_10
   6286  3508							;;line 1240;; __Layout_Room_10
   6287  3508
   6288  3508				   .L0536		;;line 1241;;	playfield:
   6289  3508
   6290  3508				  -	      ifconst	pfres
   6291  3508				  -	      ldx	#(11>pfres)*(pfres*pfwidth-1)+(11<=pfres)*43
   6292  3508					      else
   6293  3508		       a2 2b		      ldx	#((11*pfwidth-1)*((11*pfwidth-1)<47))+(47*((11*pfwidth-1)>=47))
   6294  350a					      endif
   6295  350a		       4c 39 d5 	      jmp	pflabel9
   6296  350d				   PF_data9
   6297  350d		       ff 3f		      .byte.b	%11111111, %00111111
   6298  350f					      if	(pfwidth>2)
   6299  350f		       3f ff		      .byte.b	%00111111, %11111111
   6300  3511					      endif
   6301  3511		       00 00		      .byte.b	%00000000, %00000000
   6302  3513					      if	(pfwidth>2)
   6303  3513		       00 00		      .byte.b	%00000000, %00000000
   6304  3515					      endif
   6305  3515		       00 00		      .byte.b	%00000000, %00000000
   6306  3517					      if	(pfwidth>2)
   6307  3517		       00 00		      .byte.b	%00000000, %00000000
   6308  3519					      endif
   6309  3519		       80 00		      .byte.b	%10000000, %00000000
   6310  351b					      if	(pfwidth>2)
   6311  351b		       00 80		      .byte.b	%00000000, %10000000
   6312  351d					      endif
   6313  351d		       00 00		      .byte.b	%00000000, %00000000
   6314  351f					      if	(pfwidth>2)
   6315  351f		       00 00		      .byte.b	%00000000, %00000000
   6316  3521					      endif
   6317  3521		       80 00		      .byte.b	%10000000, %00000000
   6318  3523					      if	(pfwidth>2)
   6319  3523		       00 80		      .byte.b	%00000000, %10000000
   6320  3525					      endif
   6321  3525		       00 00		      .byte.b	%00000000, %00000000
   6322  3527					      if	(pfwidth>2)
   6323  3527		       00 00		      .byte.b	%00000000, %00000000
   6324  3529					      endif
   6325  3529		       80 00		      .byte.b	%10000000, %00000000
   6326  352b					      if	(pfwidth>2)
   6327  352b		       00 80		      .byte.b	%00000000, %10000000
   6328  352d					      endif
   6329  352d		       00 00		      .byte.b	%00000000, %00000000
   6330  352f					      if	(pfwidth>2)
   6331  352f		       00 00		      .byte.b	%00000000, %00000000
   6332  3531					      endif
   6333  3531		       00 00		      .byte.b	%00000000, %00000000
   6334  3533					      if	(pfwidth>2)
   6335  3533		       00 00		      .byte.b	%00000000, %00000000
   6336  3535					      endif
   6337  3535		       ff 3f		      .byte.b	%11111111, %00111111
   6338  3537					      if	(pfwidth>2)
   6339  3537		       3f ff		      .byte.b	%00111111, %11111111
   6340  3539					      endif
   6341  3539				   pflabel9
   6342  3539		       bd 0d d5 	      lda	PF_data9,x
   6343  353c		       9d 50 10 	      sta	playfield-128,x
   6344  353f		       ca		      dex
   6345  3540		       10 f7		      bpl	pflabel9
   6346  3542				   .L0537		;;line 1254;;	goto __Check_Room_For_Ghosts
   6347  3542
   6348  3542		       4c f7 d1 	      jmp	.__Check_Room_For_Ghosts
   6349  3545
   6350  3545				   .
   6351  3545							;;line 1255;;
   6352  3545
   6353  3545				   .__Layout_Room_11
   6354  3545							;;line 1256;; __Layout_Room_11
   6355  3545
   6356  3545				   .L0538		;;line 1257;;	playfield:
   6357  3545
   6358  3545				  -	      ifconst	pfres
   6359  3545				  -	      ldx	#(11>pfres)*(pfres*pfwidth-1)+(11<=pfres)*43
   6360  3545					      else
   6361  3545		       a2 2b		      ldx	#((11*pfwidth-1)*((11*pfwidth-1)<47))+(47*((11*pfwidth-1)>=47))
   6362  3547					      endif
   6363  3547		       4c 76 d5 	      jmp	pflabel10
   6364  354a				   PF_data10
   6365  354a		       ff 3f		      .byte.b	%11111111, %00111111
   6366  354c					      if	(pfwidth>2)
   6367  354c		       3f ff		      .byte.b	%00111111, %11111111
   6368  354e					      endif
   6369  354e		       00 00		      .byte.b	%00000000, %00000000
   6370  3550					      if	(pfwidth>2)
   6371  3550		       00 00		      .byte.b	%00000000, %00000000
   6372  3552					      endif
   6373  3552		       00 00		      .byte.b	%00000000, %00000000
   6374  3554					      if	(pfwidth>2)
   6375  3554		       00 00		      .byte.b	%00000000, %00000000
   6376  3556					      endif
   6377  3556		       ff ff		      .byte.b	%11111111, %11111111
   6378  3558					      if	(pfwidth>2)
   6379  3558		       ff f0		      .byte.b	%11111111, %11110000
   6380  355a					      endif
   6381  355a		       00 00		      .byte.b	%00000000, %00000000
   6382  355c					      if	(pfwidth>2)
   6383  355c		       00 00		      .byte.b	%00000000, %00000000
   6384  355e					      endif
   6385  355e		       ff 3f		      .byte.b	%11111111, %00111111
   6386  3560					      if	(pfwidth>2)
   6387  3560		       3f ff		      .byte.b	%00111111, %11111111
   6388  3562					      endif
   6389  3562		       00 00		      .byte.b	%00000000, %00000000
   6390  3564					      if	(pfwidth>2)
   6391  3564		       00 00		      .byte.b	%00000000, %00000000
   6392  3566					      endif
   6393  3566		       f0 ff		      .byte.b	%11110000, %11111111
   6394  3568					      if	(pfwidth>2)
   6395  3568		       ff ff		      .byte.b	%11111111, %11111111
   6396  356a					      endif
   6397  356a		       00 00		      .byte.b	%00000000, %00000000
   6398  356c					      if	(pfwidth>2)
   6399  356c		       00 00		      .byte.b	%00000000, %00000000
   6400  356e					      endif
   6401  356e		       00 00		      .byte.b	%00000000, %00000000
   6402  3570					      if	(pfwidth>2)
   6403  3570		       00 00		      .byte.b	%00000000, %00000000
   6404  3572					      endif
   6405  3572		       ff 3f		      .byte.b	%11111111, %00111111
   6406  3574					      if	(pfwidth>2)
   6407  3574		       3f ff		      .byte.b	%00111111, %11111111
   6408  3576					      endif
   6409  3576				   pflabel10
   6410  3576		       bd 4a d5 	      lda	PF_data10,x
   6411  3579		       9d 50 10 	      sta	playfield-128,x
   6412  357c		       ca		      dex
   6413  357d		       10 f7		      bpl	pflabel10
   6414  357f				   .L0539		;;line 1270;;	goto __Check_Room_For_Ghosts
   6415  357f
   6416  357f		       4c f7 d1 	      jmp	.__Check_Room_For_Ghosts
   6417  3582
   6418  3582				   .
   6419  3582							;;line 1271;;
   6420  3582
   6421  3582				   .__Layout_Room_12
   6422  3582							;;line 1272;; __Layout_Room_12
   6423  3582
   6424  3582				   .L0540		;;line 1273;;	playfield:
   6425  3582
   6426  3582				  -	      ifconst	pfres
   6427  3582				  -	      ldx	#(11>pfres)*(pfres*pfwidth-1)+(11<=pfres)*43
   6428  3582					      else
   6429  3582		       a2 2b		      ldx	#((11*pfwidth-1)*((11*pfwidth-1)<47))+(47*((11*pfwidth-1)>=47))
   6430  3584					      endif
   6431  3584		       4c b3 d5 	      jmp	pflabel11
   6432  3587				   PF_data11
   6433  3587		       ff 3f		      .byte.b	%11111111, %00111111
   6434  3589					      if	(pfwidth>2)
   6435  3589		       3f ff		      .byte.b	%00111111, %11111111
   6436  358b					      endif
   6437  358b		       00 00		      .byte.b	%00000000, %00000000
   6438  358d					      if	(pfwidth>2)
   6439  358d		       00 00		      .byte.b	%00000000, %00000000
   6440  358f					      endif
   6441  358f		       00 00		      .byte.b	%00000000, %00000000
   6442  3591					      if	(pfwidth>2)
   6443  3591		       00 00		      .byte.b	%00000000, %00000000
   6444  3593					      endif
   6445  3593		       f0 ff		      .byte.b	%11110000, %11111111
   6446  3595					      if	(pfwidth>2)
   6447  3595		       ff ff		      .byte.b	%11111111, %11111111
   6448  3597					      endif
   6449  3597		       00 00		      .byte.b	%00000000, %00000000
   6450  3599					      if	(pfwidth>2)
   6451  3599		       00 00		      .byte.b	%00000000, %00000000
   6452  359b					      endif
   6453  359b		       ff 3f		      .byte.b	%11111111, %00111111
   6454  359d					      if	(pfwidth>2)
   6455  359d		       3f ff		      .byte.b	%00111111, %11111111
   6456  359f					      endif
   6457  359f		       00 00		      .byte.b	%00000000, %00000000
   6458  35a1					      if	(pfwidth>2)
   6459  35a1		       00 00		      .byte.b	%00000000, %00000000
   6460  35a3					      endif
   6461  35a3		       ff ff		      .byte.b	%11111111, %11111111
   6462  35a5					      if	(pfwidth>2)
   6463  35a5		       ff f0		      .byte.b	%11111111, %11110000
   6464  35a7					      endif
   6465  35a7		       00 00		      .byte.b	%00000000, %00000000
   6466  35a9					      if	(pfwidth>2)
   6467  35a9		       00 00		      .byte.b	%00000000, %00000000
   6468  35ab					      endif
   6469  35ab		       00 00		      .byte.b	%00000000, %00000000
   6470  35ad					      if	(pfwidth>2)
   6471  35ad		       00 00		      .byte.b	%00000000, %00000000
   6472  35af					      endif
   6473  35af		       ff 3f		      .byte.b	%11111111, %00111111
   6474  35b1					      if	(pfwidth>2)
   6475  35b1		       3f ff		      .byte.b	%00111111, %11111111
   6476  35b3					      endif
   6477  35b3				   pflabel11
   6478  35b3		       bd 87 d5 	      lda	PF_data11,x
   6479  35b6		       9d 50 10 	      sta	playfield-128,x
   6480  35b9		       ca		      dex
   6481  35ba		       10 f7		      bpl	pflabel11
   6482  35bc				   .L0541		;;line 1286;;	goto __Check_Room_For_Ghosts
   6483  35bc
   6484  35bc		       4c f7 d1 	      jmp	.__Check_Room_For_Ghosts
   6485  35bf
   6486  35bf				   .
   6487  35bf							;;line 1287;;
   6488  35bf
   6489  35bf				   .__Layout_Room_13
   6490  35bf							;;line 1288;; __Layout_Room_13
   6491  35bf
   6492  35bf				   .L0542		;;line 1289;;	playfield:
   6493  35bf
   6494  35bf				  -	      ifconst	pfres
   6495  35bf				  -	      ldx	#(11>pfres)*(pfres*pfwidth-1)+(11<=pfres)*43
   6496  35bf					      else
   6497  35bf		       a2 2b		      ldx	#((11*pfwidth-1)*((11*pfwidth-1)<47))+(47*((11*pfwidth-1)>=47))
   6498  35c1					      endif
   6499  35c1		       4c f0 d5 	      jmp	pflabel12
   6500  35c4				   PF_data12
   6501  35c4		       ff 3f		      .byte.b	%11111111, %00111111
   6502  35c6					      if	(pfwidth>2)
   6503  35c6		       3f ff		      .byte.b	%00111111, %11111111
   6504  35c8					      endif
   6505  35c8		       00 00		      .byte.b	%00000000, %00000000
   6506  35ca					      if	(pfwidth>2)
   6507  35ca		       00 00		      .byte.b	%00000000, %00000000
   6508  35cc					      endif
   6509  35cc		       00 00		      .byte.b	%00000000, %00000000
   6510  35ce					      if	(pfwidth>2)
   6511  35ce		       00 00		      .byte.b	%00000000, %00000000
   6512  35d0					      endif
   6513  35d0		       ff 3f		      .byte.b	%11111111, %00111111
   6514  35d2					      if	(pfwidth>2)
   6515  35d2		       3f ff		      .byte.b	%00111111, %11111111
   6516  35d4					      endif
   6517  35d4		       00 00		      .byte.b	%00000000, %00000000
   6518  35d6					      if	(pfwidth>2)
   6519  35d6		       00 00		      .byte.b	%00000000, %00000000
   6520  35d8					      endif
   6521  35d8		       ff 3f		      .byte.b	%11111111, %00111111
   6522  35da					      if	(pfwidth>2)
   6523  35da		       3f ff		      .byte.b	%00111111, %11111111
   6524  35dc					      endif
   6525  35dc		       00 00		      .byte.b	%00000000, %00000000
   6526  35de					      if	(pfwidth>2)
   6527  35de		       00 00		      .byte.b	%00000000, %00000000
   6528  35e0					      endif
   6529  35e0		       ff 3f		      .byte.b	%11111111, %00111111
   6530  35e2					      if	(pfwidth>2)
   6531  35e2		       3f ff		      .byte.b	%00111111, %11111111
   6532  35e4					      endif
   6533  35e4		       00 00		      .byte.b	%00000000, %00000000
   6534  35e6					      if	(pfwidth>2)
   6535  35e6		       00 00		      .byte.b	%00000000, %00000000
   6536  35e8					      endif
   6537  35e8		       00 00		      .byte.b	%00000000, %00000000
   6538  35ea					      if	(pfwidth>2)
   6539  35ea		       00 00		      .byte.b	%00000000, %00000000
   6540  35ec					      endif
   6541  35ec		       ff 3f		      .byte.b	%11111111, %00111111
   6542  35ee					      if	(pfwidth>2)
   6543  35ee		       3f ff		      .byte.b	%00111111, %11111111
   6544  35f0					      endif
   6545  35f0				   pflabel12
   6546  35f0		       bd c4 d5 	      lda	PF_data12,x
   6547  35f3		       9d 50 10 	      sta	playfield-128,x
   6548  35f6		       ca		      dex
   6549  35f7		       10 f7		      bpl	pflabel12
   6550  35f9				   .L0543		;;line 1302;;	goto __Check_Room_For_Ghosts
   6551  35f9
   6552  35f9		       4c f7 d1 	      jmp	.__Check_Room_For_Ghosts
   6553  35fc
   6554  35fc				   .
   6555  35fc							;;line 1303;;
   6556  35fc
   6557  35fc				   .
   6558  35fc							;;line 1304;;
   6559  35fc
   6560  35fc				   .
   6561  35fc							;;line 1305;;
   6562  35fc
   6563  35fc				   .
   6564  35fc							;;line 1306;;
   6565  35fc
   6566  35fc				   .L0544		;;line 1307;;	bank 4
   6567  35fc
   6568  35fc					      if	ECHO3
      2520 bytes of ROM space left in bank 3
   6569  35fc					      echo	"    ",[(start_bank3 - *)]d , "bytes of ROM space left in bank 3")
   6570  35fc					      endif
   6571  35fc		       00 01	   ECHO3      =	1
   6572  3fd4					      ORG	$3FF4-bscode_length
   6573  3fd4					      RORG	$DFF4-bscode_length
   6574  3fd4		       a2 ff	   start_bank3 ldx	#$ff
   6575  3fd6				  -	      ifconst	FASTFETCH	; using DPC+
   6576  3fd6				  -	      stx	FASTFETCH
   6577  3fd6					      endif
   6578  3fd6		       9a		      txs
   6579  3fd7				  -	      if	bankswitch == 64
   6580  3fd7				  -	      lda	#(((>(start-1)) & $0F) | $F0)
   6581  3fd7					      else
   6582  3fd7		       a9 f3		      lda	#>(start-1)
   6583  3fd9					      endif
   6584  3fd9		       48		      pha
   6585  3fda		       a9 51		      lda	#<(start-1)
   6586  3fdc		       48		      pha
   6587  3fdd		       48		      pha
   6588  3fde		       8a		      txa
   6589  3fdf		       48		      pha
   6590  3fe0		       ba		      tsx
   6591  3fe1					      if	bankswitch != 64
   6592  3fe1		       b5 04		      lda	4,x	; get high byte of return address
   6593  3fe3		       2a		      rol
   6594  3fe4		       2a		      rol
   6595  3fe5		       2a		      rol
   6596  3fe6		       2a		      rol
   6597  3fe7		       29 03		      and	#bs_mask	;1 3 or 7 for F8/F6/F4
   6598  3fe9		       aa		      tax
   6599  3fea		       e8		      inx
   6600  3feb				  -	      else
   6601  3feb				  -	      lda	4,x	; get high byte of return address
   6602  3feb				  -	      tay
   6603  3feb				  -	      ora	#$10	; change our bank nibble into a valid rom mirror
   6604  3feb				  -	      sta	4,x
   6605  3feb				  -	      tya
   6606  3feb				  -	      lsr
   6607  3feb				  -	      lsr
   6608  3feb				  -	      lsr
   6609  3feb				  -	      lsr
   6610  3feb				  -	      tax
   6611  3feb				  -	      inx
   6612  3feb					      endif
   6613  3feb		       bd f5 1f 	      lda	bankswitch_hotspot-1,x
   6614  3fee		       68		      pla
   6615  3fef		       aa		      tax
   6616  3ff0		       68		      pla
   6617  3ff1		       60		      rts
   6618  3ff2				  -	      if	((* & $1FFF) > ((bankswitch_hotspot & $1FFF) - 1))
   6619  3ff2				  -	      echo	"WARNING: size parameter in banksw.asm too small - the program probably will not work."
   6620  3ff2				  -	      echo	"Change to",[(*-begin_bscode+1)&$FF]d,"and try again."
   6621  3ff2					      endif
   6622  3ffc					      ORG	$3FFC
   6623  3ffc					      RORG	$DFFC
   6624  3ffc		       d4 df		      .word.w	(start_bank3 & $ffff)
   6625  3ffe		       d4 df		      .word.w	(start_bank3 & $ffff)
   6626  4000					      ORG	$4000
   6627  4000					      RORG	$F000
   6628  4000					      repeat	256
   6629  4000		       ff		      .byte.b	$ff
   6628  4000					      repend
   6629  4001		       ff		      .byte.b	$ff
   6628  4001					      repend
   6629  4002		       ff		      .byte.b	$ff
   6628  4002					      repend
   6629  4003		       ff		      .byte.b	$ff
   6628  4003					      repend
   6629  4004		       ff		      .byte.b	$ff
   6628  4004					      repend
   6629  4005		       ff		      .byte.b	$ff
   6628  4005					      repend
   6629  4006		       ff		      .byte.b	$ff
   6628  4006					      repend
   6629  4007		       ff		      .byte.b	$ff
   6628  4007					      repend
   6629  4008		       ff		      .byte.b	$ff
   6628  4008					      repend
   6629  4009		       ff		      .byte.b	$ff
   6628  4009					      repend
   6629  400a		       ff		      .byte.b	$ff
   6628  400a					      repend
   6629  400b		       ff		      .byte.b	$ff
   6628  400b					      repend
   6629  400c		       ff		      .byte.b	$ff
   6628  400c					      repend
   6629  400d		       ff		      .byte.b	$ff
   6628  400d					      repend
   6629  400e		       ff		      .byte.b	$ff
   6628  400e					      repend
   6629  400f		       ff		      .byte.b	$ff
   6628  400f					      repend
   6629  4010		       ff		      .byte.b	$ff
   6628  4010					      repend
   6629  4011		       ff		      .byte.b	$ff
   6628  4011					      repend
   6629  4012		       ff		      .byte.b	$ff
   6628  4012					      repend
   6629  4013		       ff		      .byte.b	$ff
   6628  4013					      repend
   6629  4014		       ff		      .byte.b	$ff
   6628  4014					      repend
   6629  4015		       ff		      .byte.b	$ff
   6628  4015					      repend
   6629  4016		       ff		      .byte.b	$ff
   6628  4016					      repend
   6629  4017		       ff		      .byte.b	$ff
   6628  4017					      repend
   6629  4018		       ff		      .byte.b	$ff
   6628  4018					      repend
   6629  4019		       ff		      .byte.b	$ff
   6628  4019					      repend
   6629  401a		       ff		      .byte.b	$ff
   6628  401a					      repend
   6629  401b		       ff		      .byte.b	$ff
   6628  401b					      repend
   6629  401c		       ff		      .byte.b	$ff
   6628  401c					      repend
   6629  401d		       ff		      .byte.b	$ff
   6628  401d					      repend
   6629  401e		       ff		      .byte.b	$ff
   6628  401e					      repend
   6629  401f		       ff		      .byte.b	$ff
   6628  401f					      repend
   6629  4020		       ff		      .byte.b	$ff
   6628  4020					      repend
   6629  4021		       ff		      .byte.b	$ff
   6628  4021					      repend
   6629  4022		       ff		      .byte.b	$ff
   6628  4022					      repend
   6629  4023		       ff		      .byte.b	$ff
   6628  4023					      repend
   6629  4024		       ff		      .byte.b	$ff
   6628  4024					      repend
   6629  4025		       ff		      .byte.b	$ff
   6628  4025					      repend
   6629  4026		       ff		      .byte.b	$ff
   6628  4026					      repend
   6629  4027		       ff		      .byte.b	$ff
   6628  4027					      repend
   6629  4028		       ff		      .byte.b	$ff
   6628  4028					      repend
   6629  4029		       ff		      .byte.b	$ff
   6628  4029					      repend
   6629  402a		       ff		      .byte.b	$ff
   6628  402a					      repend
   6629  402b		       ff		      .byte.b	$ff
   6628  402b					      repend
   6629  402c		       ff		      .byte.b	$ff
   6628  402c					      repend
   6629  402d		       ff		      .byte.b	$ff
   6628  402d					      repend
   6629  402e		       ff		      .byte.b	$ff
   6628  402e					      repend
   6629  402f		       ff		      .byte.b	$ff
   6628  402f					      repend
   6629  4030		       ff		      .byte.b	$ff
   6628  4030					      repend
   6629  4031		       ff		      .byte.b	$ff
   6628  4031					      repend
   6629  4032		       ff		      .byte.b	$ff
   6628  4032					      repend
   6629  4033		       ff		      .byte.b	$ff
   6628  4033					      repend
   6629  4034		       ff		      .byte.b	$ff
   6628  4034					      repend
   6629  4035		       ff		      .byte.b	$ff
   6628  4035					      repend
   6629  4036		       ff		      .byte.b	$ff
   6628  4036					      repend
   6629  4037		       ff		      .byte.b	$ff
   6628  4037					      repend
   6629  4038		       ff		      .byte.b	$ff
   6628  4038					      repend
   6629  4039		       ff		      .byte.b	$ff
   6628  4039					      repend
   6629  403a		       ff		      .byte.b	$ff
   6628  403a					      repend
   6629  403b		       ff		      .byte.b	$ff
   6628  403b					      repend
   6629  403c		       ff		      .byte.b	$ff
   6628  403c					      repend
   6629  403d		       ff		      .byte.b	$ff
   6628  403d					      repend
   6629  403e		       ff		      .byte.b	$ff
   6628  403e					      repend
   6629  403f		       ff		      .byte.b	$ff
   6628  403f					      repend
   6629  4040		       ff		      .byte.b	$ff
   6628  4040					      repend
   6629  4041		       ff		      .byte.b	$ff
   6628  4041					      repend
   6629  4042		       ff		      .byte.b	$ff
   6628  4042					      repend
   6629  4043		       ff		      .byte.b	$ff
   6628  4043					      repend
   6629  4044		       ff		      .byte.b	$ff
   6628  4044					      repend
   6629  4045		       ff		      .byte.b	$ff
   6628  4045					      repend
   6629  4046		       ff		      .byte.b	$ff
   6628  4046					      repend
   6629  4047		       ff		      .byte.b	$ff
   6628  4047					      repend
   6629  4048		       ff		      .byte.b	$ff
   6628  4048					      repend
   6629  4049		       ff		      .byte.b	$ff
   6628  4049					      repend
   6629  404a		       ff		      .byte.b	$ff
   6628  404a					      repend
   6629  404b		       ff		      .byte.b	$ff
   6628  404b					      repend
   6629  404c		       ff		      .byte.b	$ff
   6628  404c					      repend
   6629  404d		       ff		      .byte.b	$ff
   6628  404d					      repend
   6629  404e		       ff		      .byte.b	$ff
   6628  404e					      repend
   6629  404f		       ff		      .byte.b	$ff
   6628  404f					      repend
   6629  4050		       ff		      .byte.b	$ff
   6628  4050					      repend
   6629  4051		       ff		      .byte.b	$ff
   6628  4051					      repend
   6629  4052		       ff		      .byte.b	$ff
   6628  4052					      repend
   6629  4053		       ff		      .byte.b	$ff
   6628  4053					      repend
   6629  4054		       ff		      .byte.b	$ff
   6628  4054					      repend
   6629  4055		       ff		      .byte.b	$ff
   6628  4055					      repend
   6629  4056		       ff		      .byte.b	$ff
   6628  4056					      repend
   6629  4057		       ff		      .byte.b	$ff
   6628  4057					      repend
   6629  4058		       ff		      .byte.b	$ff
   6628  4058					      repend
   6629  4059		       ff		      .byte.b	$ff
   6628  4059					      repend
   6629  405a		       ff		      .byte.b	$ff
   6628  405a					      repend
   6629  405b		       ff		      .byte.b	$ff
   6628  405b					      repend
   6629  405c		       ff		      .byte.b	$ff
   6628  405c					      repend
   6629  405d		       ff		      .byte.b	$ff
   6628  405d					      repend
   6629  405e		       ff		      .byte.b	$ff
   6628  405e					      repend
   6629  405f		       ff		      .byte.b	$ff
   6628  405f					      repend
   6629  4060		       ff		      .byte.b	$ff
   6628  4060					      repend
   6629  4061		       ff		      .byte.b	$ff
   6628  4061					      repend
   6629  4062		       ff		      .byte.b	$ff
   6628  4062					      repend
   6629  4063		       ff		      .byte.b	$ff
   6628  4063					      repend
   6629  4064		       ff		      .byte.b	$ff
   6628  4064					      repend
   6629  4065		       ff		      .byte.b	$ff
   6628  4065					      repend
   6629  4066		       ff		      .byte.b	$ff
   6628  4066					      repend
   6629  4067		       ff		      .byte.b	$ff
   6628  4067					      repend
   6629  4068		       ff		      .byte.b	$ff
   6628  4068					      repend
   6629  4069		       ff		      .byte.b	$ff
   6628  4069					      repend
   6629  406a		       ff		      .byte.b	$ff
   6628  406a					      repend
   6629  406b		       ff		      .byte.b	$ff
   6628  406b					      repend
   6629  406c		       ff		      .byte.b	$ff
   6628  406c					      repend
   6629  406d		       ff		      .byte.b	$ff
   6628  406d					      repend
   6629  406e		       ff		      .byte.b	$ff
   6628  406e					      repend
   6629  406f		       ff		      .byte.b	$ff
   6628  406f					      repend
   6629  4070		       ff		      .byte.b	$ff
   6628  4070					      repend
   6629  4071		       ff		      .byte.b	$ff
   6628  4071					      repend
   6629  4072		       ff		      .byte.b	$ff
   6628  4072					      repend
   6629  4073		       ff		      .byte.b	$ff
   6628  4073					      repend
   6629  4074		       ff		      .byte.b	$ff
   6628  4074					      repend
   6629  4075		       ff		      .byte.b	$ff
   6628  4075					      repend
   6629  4076		       ff		      .byte.b	$ff
   6628  4076					      repend
   6629  4077		       ff		      .byte.b	$ff
   6628  4077					      repend
   6629  4078		       ff		      .byte.b	$ff
   6628  4078					      repend
   6629  4079		       ff		      .byte.b	$ff
   6628  4079					      repend
   6629  407a		       ff		      .byte.b	$ff
   6628  407a					      repend
   6629  407b		       ff		      .byte.b	$ff
   6628  407b					      repend
   6629  407c		       ff		      .byte.b	$ff
   6628  407c					      repend
   6629  407d		       ff		      .byte.b	$ff
   6628  407d					      repend
   6629  407e		       ff		      .byte.b	$ff
   6628  407e					      repend
   6629  407f		       ff		      .byte.b	$ff
   6628  407f					      repend
   6629  4080		       ff		      .byte.b	$ff
   6628  4080					      repend
   6629  4081		       ff		      .byte.b	$ff
   6628  4081					      repend
   6629  4082		       ff		      .byte.b	$ff
   6628  4082					      repend
   6629  4083		       ff		      .byte.b	$ff
   6628  4083					      repend
   6629  4084		       ff		      .byte.b	$ff
   6628  4084					      repend
   6629  4085		       ff		      .byte.b	$ff
   6628  4085					      repend
   6629  4086		       ff		      .byte.b	$ff
   6628  4086					      repend
   6629  4087		       ff		      .byte.b	$ff
   6628  4087					      repend
   6629  4088		       ff		      .byte.b	$ff
   6628  4088					      repend
   6629  4089		       ff		      .byte.b	$ff
   6628  4089					      repend
   6629  408a		       ff		      .byte.b	$ff
   6628  408a					      repend
   6629  408b		       ff		      .byte.b	$ff
   6628  408b					      repend
   6629  408c		       ff		      .byte.b	$ff
   6628  408c					      repend
   6629  408d		       ff		      .byte.b	$ff
   6628  408d					      repend
   6629  408e		       ff		      .byte.b	$ff
   6628  408e					      repend
   6629  408f		       ff		      .byte.b	$ff
   6628  408f					      repend
   6629  4090		       ff		      .byte.b	$ff
   6628  4090					      repend
   6629  4091		       ff		      .byte.b	$ff
   6628  4091					      repend
   6629  4092		       ff		      .byte.b	$ff
   6628  4092					      repend
   6629  4093		       ff		      .byte.b	$ff
   6628  4093					      repend
   6629  4094		       ff		      .byte.b	$ff
   6628  4094					      repend
   6629  4095		       ff		      .byte.b	$ff
   6628  4095					      repend
   6629  4096		       ff		      .byte.b	$ff
   6628  4096					      repend
   6629  4097		       ff		      .byte.b	$ff
   6628  4097					      repend
   6629  4098		       ff		      .byte.b	$ff
   6628  4098					      repend
   6629  4099		       ff		      .byte.b	$ff
   6628  4099					      repend
   6629  409a		       ff		      .byte.b	$ff
   6628  409a					      repend
   6629  409b		       ff		      .byte.b	$ff
   6628  409b					      repend
   6629  409c		       ff		      .byte.b	$ff
   6628  409c					      repend
   6629  409d		       ff		      .byte.b	$ff
   6628  409d					      repend
   6629  409e		       ff		      .byte.b	$ff
   6628  409e					      repend
   6629  409f		       ff		      .byte.b	$ff
   6628  409f					      repend
   6629  40a0		       ff		      .byte.b	$ff
   6628  40a0					      repend
   6629  40a1		       ff		      .byte.b	$ff
   6628  40a1					      repend
   6629  40a2		       ff		      .byte.b	$ff
   6628  40a2					      repend
   6629  40a3		       ff		      .byte.b	$ff
   6628  40a3					      repend
   6629  40a4		       ff		      .byte.b	$ff
   6628  40a4					      repend
   6629  40a5		       ff		      .byte.b	$ff
   6628  40a5					      repend
   6629  40a6		       ff		      .byte.b	$ff
   6628  40a6					      repend
   6629  40a7		       ff		      .byte.b	$ff
   6628  40a7					      repend
   6629  40a8		       ff		      .byte.b	$ff
   6628  40a8					      repend
   6629  40a9		       ff		      .byte.b	$ff
   6628  40a9					      repend
   6629  40aa		       ff		      .byte.b	$ff
   6628  40aa					      repend
   6629  40ab		       ff		      .byte.b	$ff
   6628  40ab					      repend
   6629  40ac		       ff		      .byte.b	$ff
   6628  40ac					      repend
   6629  40ad		       ff		      .byte.b	$ff
   6628  40ad					      repend
   6629  40ae		       ff		      .byte.b	$ff
   6628  40ae					      repend
   6629  40af		       ff		      .byte.b	$ff
   6628  40af					      repend
   6629  40b0		       ff		      .byte.b	$ff
   6628  40b0					      repend
   6629  40b1		       ff		      .byte.b	$ff
   6628  40b1					      repend
   6629  40b2		       ff		      .byte.b	$ff
   6628  40b2					      repend
   6629  40b3		       ff		      .byte.b	$ff
   6628  40b3					      repend
   6629  40b4		       ff		      .byte.b	$ff
   6628  40b4					      repend
   6629  40b5		       ff		      .byte.b	$ff
   6628  40b5					      repend
   6629  40b6		       ff		      .byte.b	$ff
   6628  40b6					      repend
   6629  40b7		       ff		      .byte.b	$ff
   6628  40b7					      repend
   6629  40b8		       ff		      .byte.b	$ff
   6628  40b8					      repend
   6629  40b9		       ff		      .byte.b	$ff
   6628  40b9					      repend
   6629  40ba		       ff		      .byte.b	$ff
   6628  40ba					      repend
   6629  40bb		       ff		      .byte.b	$ff
   6628  40bb					      repend
   6629  40bc		       ff		      .byte.b	$ff
   6628  40bc					      repend
   6629  40bd		       ff		      .byte.b	$ff
   6628  40bd					      repend
   6629  40be		       ff		      .byte.b	$ff
   6628  40be					      repend
   6629  40bf		       ff		      .byte.b	$ff
   6628  40bf					      repend
   6629  40c0		       ff		      .byte.b	$ff
   6628  40c0					      repend
   6629  40c1		       ff		      .byte.b	$ff
   6628  40c1					      repend
   6629  40c2		       ff		      .byte.b	$ff
   6628  40c2					      repend
   6629  40c3		       ff		      .byte.b	$ff
   6628  40c3					      repend
   6629  40c4		       ff		      .byte.b	$ff
   6628  40c4					      repend
   6629  40c5		       ff		      .byte.b	$ff
   6628  40c5					      repend
   6629  40c6		       ff		      .byte.b	$ff
   6628  40c6					      repend
   6629  40c7		       ff		      .byte.b	$ff
   6628  40c7					      repend
   6629  40c8		       ff		      .byte.b	$ff
   6628  40c8					      repend
   6629  40c9		       ff		      .byte.b	$ff
   6628  40c9					      repend
   6629  40ca		       ff		      .byte.b	$ff
   6628  40ca					      repend
   6629  40cb		       ff		      .byte.b	$ff
   6628  40cb					      repend
   6629  40cc		       ff		      .byte.b	$ff
   6628  40cc					      repend
   6629  40cd		       ff		      .byte.b	$ff
   6628  40cd					      repend
   6629  40ce		       ff		      .byte.b	$ff
   6628  40ce					      repend
   6629  40cf		       ff		      .byte.b	$ff
   6628  40cf					      repend
   6629  40d0		       ff		      .byte.b	$ff
   6628  40d0					      repend
   6629  40d1		       ff		      .byte.b	$ff
   6628  40d1					      repend
   6629  40d2		       ff		      .byte.b	$ff
   6628  40d2					      repend
   6629  40d3		       ff		      .byte.b	$ff
   6628  40d3					      repend
   6629  40d4		       ff		      .byte.b	$ff
   6628  40d4					      repend
   6629  40d5		       ff		      .byte.b	$ff
   6628  40d5					      repend
   6629  40d6		       ff		      .byte.b	$ff
   6628  40d6					      repend
   6629  40d7		       ff		      .byte.b	$ff
   6628  40d7					      repend
   6629  40d8		       ff		      .byte.b	$ff
   6628  40d8					      repend
   6629  40d9		       ff		      .byte.b	$ff
   6628  40d9					      repend
   6629  40da		       ff		      .byte.b	$ff
   6628  40da					      repend
   6629  40db		       ff		      .byte.b	$ff
   6628  40db					      repend
   6629  40dc		       ff		      .byte.b	$ff
   6628  40dc					      repend
   6629  40dd		       ff		      .byte.b	$ff
   6628  40dd					      repend
   6629  40de		       ff		      .byte.b	$ff
   6628  40de					      repend
   6629  40df		       ff		      .byte.b	$ff
   6628  40df					      repend
   6629  40e0		       ff		      .byte.b	$ff
   6628  40e0					      repend
   6629  40e1		       ff		      .byte.b	$ff
   6628  40e1					      repend
   6629  40e2		       ff		      .byte.b	$ff
   6628  40e2					      repend
   6629  40e3		       ff		      .byte.b	$ff
   6628  40e3					      repend
   6629  40e4		       ff		      .byte.b	$ff
   6628  40e4					      repend
   6629  40e5		       ff		      .byte.b	$ff
   6628  40e5					      repend
   6629  40e6		       ff		      .byte.b	$ff
   6628  40e6					      repend
   6629  40e7		       ff		      .byte.b	$ff
   6628  40e7					      repend
   6629  40e8		       ff		      .byte.b	$ff
   6628  40e8					      repend
   6629  40e9		       ff		      .byte.b	$ff
   6628  40e9					      repend
   6629  40ea		       ff		      .byte.b	$ff
   6628  40ea					      repend
   6629  40eb		       ff		      .byte.b	$ff
   6628  40eb					      repend
   6629  40ec		       ff		      .byte.b	$ff
   6628  40ec					      repend
   6629  40ed		       ff		      .byte.b	$ff
   6628  40ed					      repend
   6629  40ee		       ff		      .byte.b	$ff
   6628  40ee					      repend
   6629  40ef		       ff		      .byte.b	$ff
   6628  40ef					      repend
   6629  40f0		       ff		      .byte.b	$ff
   6628  40f0					      repend
   6629  40f1		       ff		      .byte.b	$ff
   6628  40f1					      repend
   6629  40f2		       ff		      .byte.b	$ff
   6628  40f2					      repend
   6629  40f3		       ff		      .byte.b	$ff
   6628  40f3					      repend
   6629  40f4		       ff		      .byte.b	$ff
   6628  40f4					      repend
   6629  40f5		       ff		      .byte.b	$ff
   6628  40f5					      repend
   6629  40f6		       ff		      .byte.b	$ff
   6628  40f6					      repend
   6629  40f7		       ff		      .byte.b	$ff
   6628  40f7					      repend
   6629  40f8		       ff		      .byte.b	$ff
   6628  40f8					      repend
   6629  40f9		       ff		      .byte.b	$ff
   6628  40f9					      repend
   6629  40fa		       ff		      .byte.b	$ff
   6628  40fa					      repend
   6629  40fb		       ff		      .byte.b	$ff
   6628  40fb					      repend
   6629  40fc		       ff		      .byte.b	$ff
   6628  40fc					      repend
   6629  40fd		       ff		      .byte.b	$ff
   6628  40fd					      repend
   6629  40fe		       ff		      .byte.b	$ff
   6628  40fe					      repend
   6629  40ff		       ff		      .byte.b	$ff
   6630  4100					      repend
   6631  4100							; Provided under the CC0 license. See the included LICENSE.txt for details.
   6632  4100
   6633  4100							; This is a 2-line kernel!
   6634  4100					      ifnconst	vertical_reflect
   6635  4100				   kernel
   6636  4100					      endif
   6637  4100		       85 02		      sta	WSYNC
   6638  4102		       a9 ff		      lda	#255
   6639  4104		       8d 96 02 	      sta	TIM64T
   6640  4107
   6641  4107		       a9 01		      lda	#1
   6642  4109		       85 27		      sta	VDELBL
   6643  410b		       85 25		      sta	VDELP0
   6644  410d		       a6 92		      ldx	ballheight
   6645  410f		       e8		      inx
   6646  4110		       e8		      inx
   6647  4111		       86 9f		      stx	temp4
   6648  4113		       a5 86		      lda	player1y
   6649  4115		       85 9e		      sta	temp3
   6650  4117
   6651  4117				  -	      ifconst	shakescreen
   6652  4117				  -	      jsr	doshakescreen
   6653  4117					      else
   6654  4117		       a6 90		      ldx	missile0height
   6655  4119		       e8		      inx
   6656  411a					      endif
   6657  411a
   6658  411a		       e8		      inx
   6659  411b		       86 f6		      stx	stack1
   6660  411d
   6661  411d		       a5 89		      lda	bally
   6662  411f		       85 f7		      sta	stack2
   6663  4121
   6664  4121		       a5 85		      lda	player0y
   6665  4123		       a2 00		      ldx	#0
   6666  4125		       85 02		      sta	WSYNC
   6667  4127		       86 1b		      stx	GRP0
   6668  4129		       86 1c		      stx	GRP1
   6669  412b		       86 0e		      stx	PF1L
   6670  412d		       86 0f		      stx	PF2
   6671  412f		       86 2c		      stx	CXCLR
   6672  4131				  -	      ifconst	readpaddle
   6673  4131				  -	      stx	paddle
   6674  4131					      else
      0  4131					      sleep	3
      1  4131				   .CYCLES    SET	3
      2  4131
      3  4131				  -	      IF	.CYCLES < 2
      4  4131				  -	      ECHO	"MACRO ERROR: 'SLEEP': Duration must be > 1"
      5  4131				  -	      ERR
      6  4131					      ENDIF
      7  4131
      8  4131					      IF	.CYCLES & 1
      9  4131					      IFNCONST	NO_ILLEGAL_OPCODES
     10  4131		       04 00		      nop	0
     11  4133				  -	      ELSE
     12  4133				  -	      bit	VSYNC
     13  4133					      ENDIF
     14  4133				   .CYCLES    SET	.CYCLES - 3
     15  4133					      ENDIF
     16  4133
     17  4133				  -	      REPEAT	.CYCLES / 2
     18  4133				  -	      nop
     19  4133					      REPEND
   6676  4133					      endif
   6677  4133
   6678  4133		       95 9d		      sta	temp2,x
   6679  4135
   6680  4135							;store these so they can be retrieved later
   6681  4135					      ifnconst	pfres
   6682  4135		       a2 54		      ldx	#128-44+(4-pfwidth)*12
   6683  4137				  -	      else
   6684  4137				  -	      ldx	#132-pfres*pfwidth
   6685  4137					      endif
   6686  4137
   6687  4137		       c6 85		      dec	player0y
   6688  4139
   6689  4139		       a5 91		      lda	missile0y
   6690  413b		       85 a0		      sta	temp5
   6691  413d		       a5 88		      lda	missile1y
   6692  413f		       85 a1		      sta	temp6
   6693  4141
   6694  4141		       a5 ef		      lda	playfieldpos
   6695  4143		       85 9c		      sta	temp1
   6696  4145
   6697  4145				  -	      ifconst	pfrowheight
   6698  4145				  -	      lda	#pfrowheight+2
   6699  4145					      else
   6700  4145					      ifnconst	pfres
   6701  4145		       a9 0a		      lda	#10
   6702  4147				  -	      else
   6703  4147				  -	      lda	#(96/pfres)+2	; try to come close to the real size
   6704  4147					      endif
   6705  4147					      endif
   6706  4147		       18		      clc
   6707  4148		       e5 ef		      sbc	playfieldpos
   6708  414a		       85 ef		      sta	playfieldpos
   6709  414c		       4c 78 f1 	      jmp	.startkernel
   6710  414f
   6711  414f				   .skipDrawP0
   6712  414f		       a9 00		      lda	#0
   6713  4151		       a8		      tay
   6714  4152		       4c aa f1 	      jmp	.continueP0
   6715  4155
   6716  4155				   .skipDrawP1
   6717  4155		       a9 00		      lda	#0
   6718  4157		       a8		      tay
   6719  4158		       4c 82 f1 	      jmp	.continueP1
   6720  415b
   6721  415b				   .kerloop		; enter at cycle 59??
   6722  415b
   6723  415b				   continuekernel
      0  415b					      sleep	2
      1  415b				   .CYCLES    SET	2
      2  415b
      3  415b				  -	      IF	.CYCLES < 2
      4  415b				  -	      ECHO	"MACRO ERROR: 'SLEEP': Duration must be > 1"
      5  415b				  -	      ERR
      6  415b					      ENDIF
      7  415b
      8  415b				  -	      IF	.CYCLES & 1
      9  415b				  -	      IFNCONST	NO_ILLEGAL_OPCODES
     10  415b				  -	      nop	0
     11  415b				  -	      ELSE
     12  415b				  -	      bit	VSYNC
     13  415b				  -	      ENDIF
     14  415b				  -.CYCLES    SET	.CYCLES - 3
     15  415b					      ENDIF
     16  415b
     17  415b					      REPEAT	.CYCLES / 2
     18  415b		       ea		      nop
     19  415c					      REPEND
   6725  415c				   continuekernel2
   6726  415c		       a5 92		      lda	ballheight
   6727  415e
   6728  415e				  -	      ifconst	pfres
   6729  415e				  -	      ldy	playfield+pfres*pfwidth-132,x
   6730  415e				  -	      sty	PF1L	;3
   6731  415e				  -	      ldy	playfield+pfres*pfwidth-131-pfadjust,x
   6732  415e				  -	      sty	PF2L	;3
   6733  415e				  -	      ldy	playfield+pfres*pfwidth-129,x
   6734  415e				  -	      sty	PF1R	; 3 too early?
   6735  415e				  -	      ldy	playfield+pfres*pfwidth-130-pfadjust,x
   6736  415e				  -	      sty	PF2R	;3
   6737  415e					      else
   6738  415e		       bc 7c 10 	      ldy	playfield-48+pfwidth*12+44-128,x
   6739  4161		       84 0e		      sty	PF1L	;3
   6740  4163		       bc 7d 10 	      ldy	playfield-48+pfwidth*12+45-128-pfadjust,x	;4
   6741  4166		       84 0f		      sty	PF2L	;3
   6742  4168		       bc 7f 10 	      ldy	playfield-48+pfwidth*12+47-128,x	;4
   6743  416b		       84 0e		      sty	PF1R	; 3 too early?
   6744  416d		       bc 7e 10 	      ldy	playfield-48+pfwidth*12+46-128-pfadjust,x	;4
   6745  4170		       84 0f		      sty	PF2R	;3
   6746  4172					      endif
   6747  4172
   6748  4172							; should be playfield+$38 for width=2
   6749  4172
   6750  4172		       c7 89		      dcp	bally
   6751  4174		       2a		      rol
   6752  4175		       2a		      rol
   6753  4176							; rol
   6754  4176							; rol
   6755  4176				   goback
   6756  4176		       85 1f		      sta	ENABL
   6757  4178				   .startkernel
   6758  4178		       a5 8f		      lda	player1height	;3
   6759  417a		       c7 86		      dcp	player1y	;5
   6760  417c		       90 d7		      bcc	.skipDrawP1	;2
   6761  417e		       a4 86		      ldy	player1y	;3
   6762  4180		       b1 8c		      lda	(player1pointer),y	;5; player0pointer must be selected carefully by the compiler
   6763  4182							; so it doesn't cross a page boundary!
   6764  4182
   6765  4182				   .continueP1
   6766  4182		       85 1c		      sta	GRP1	;3
   6767  4184
   6768  4184				  -	      ifnconst	player1colors
   6769  4184				  -	      lda	missile1height	;3
   6770  4184				  -	      dcp	missile1y	;5
   6771  4184				  -	      rol		;2
   6772  4184				  -	      rol		;2
   6773  4184				  -	      sta	ENAM1	;3
   6774  4184					      else
   6775  4184		       b1 87		      lda	(player1color),y
   6776  4186		       85 07		      sta	COLUP1
   6777  4188					      ifnconst	playercolors
      0  4188					      sleep	7
      1  4188				   .CYCLES    SET	7
      2  4188
      3  4188				  -	      IF	.CYCLES < 2
      4  4188				  -	      ECHO	"MACRO ERROR: 'SLEEP': Duration must be > 1"
      5  4188				  -	      ERR
      6  4188					      ENDIF
      7  4188
      8  4188					      IF	.CYCLES & 1
      9  4188					      IFNCONST	NO_ILLEGAL_OPCODES
     10  4188		       04 00		      nop	0
     11  418a				  -	      ELSE
     12  418a				  -	      bit	VSYNC
     13  418a					      ENDIF
     14  418a				   .CYCLES    SET	.CYCLES - 3
     15  418a					      ENDIF
     16  418a
     17  418a					      REPEAT	.CYCLES / 2
     18  418a		       ea		      nop
     17  418a					      REPEND
     18  418b		       ea		      nop
     19  418c					      REPEND
   6779  418c				  -	      else
   6780  418c				  -	      lda.w	player0colorstore
   6781  418c				  -	      sta	COLUP0
   6782  418c					      endif
   6783  418c					      endif
   6784  418c
   6785  418c				  -	      ifconst	pfres
   6786  418c				  -	      lda	playfield+pfres*pfwidth-132,x
   6787  418c				  -	      sta	PF1L	;3
   6788  418c				  -	      lda	playfield+pfres*pfwidth-131-pfadjust,x
   6789  418c				  -	      sta	PF2L	;3
   6790  418c				  -	      lda	playfield+pfres*pfwidth-129,x
   6791  418c				  -	      sta	PF1R	; 3 too early?
   6792  418c				  -	      lda	playfield+pfres*pfwidth-130-pfadjust,x
   6793  418c				  -	      sta	PF2R	;3
   6794  418c					      else
   6795  418c		       bd 7c 10 	      lda	playfield-48+pfwidth*12+44-128,x	;4
   6796  418f		       85 0e		      sta	PF1L	;3
   6797  4191		       bd 7d 10 	      lda	playfield-48+pfwidth*12+45-128-pfadjust,x	;4
   6798  4194		       85 0f		      sta	PF2L	;3
   6799  4196		       bd 7f 10 	      lda	playfield-48+pfwidth*12+47-128,x	;4
   6800  4199		       85 0e		      sta	PF1R	; 3 too early?
   6801  419b		       bd 7e 10 	      lda	playfield-48+pfwidth*12+46-128-pfadjust,x	;4
   6802  419e		       85 0f		      sta	PF2R	;3
   6803  41a0					      endif
   6804  41a0							; sleep 3
   6805  41a0
   6806  41a0		       a5 8e		      lda	player0height
   6807  41a2		       c7 85		      dcp	player0y
   6808  41a4		       90 a9		      bcc	.skipDrawP0
   6809  41a6		       a4 85		      ldy	player0y
   6810  41a8		       b1 8a		      lda	(player0pointer),y
   6811  41aa				   .continueP0
   6812  41aa		       85 1b		      sta	GRP0
   6813  41ac
   6814  41ac					      ifnconst	no_blank_lines
   6815  41ac					      ifnconst	playercolors
   6816  41ac		       a5 90		      lda	missile0height	;3
   6817  41ae		       c7 91		      dcp	missile0y	;5
   6818  41b0		       e5 f6		      sbc	stack1
   6819  41b2		       85 1d		      sta	ENAM0	;3
   6820  41b4				  -	      else
   6821  41b4				  -	      lda	(player0color),y
   6822  41b4				  -	      sta	player0colorstore
   6823  41b4				  -	      sleep	6
   6824  41b4					      endif
   6825  41b4		       c6 9c		      dec	temp1
   6826  41b6		       d0 a3		      bne	continuekernel
   6827  41b8				  -	      else
   6828  41b8				  -	      dec	temp1
   6829  41b8				  -	      beq	altkernel2
   6830  41b8				  -	      ifconst	readpaddle
   6831  41b8				  -	      ldy	currentpaddle
   6832  41b8				  -	      lda	INPT0,y
   6833  41b8				  -	      bpl	noreadpaddle
   6834  41b8				  -	      inc	paddle
   6835  41b8				  -	      jmp	continuekernel2
   6836  41b8				  -noreadpaddle
   6837  41b8				  -	      sleep	2
   6838  41b8				  -	      jmp	continuekernel
   6839  41b8				  -	      else
   6840  41b8				  -	      ifnconst	playercolors
   6841  41b8				  -	      ifconst	PFcolors
   6842  41b8				  -	      txa
   6843  41b8				  -	      tay
   6844  41b8				  -	      lda	(pfcolortable),y
   6845  41b8				  -	      ifnconst	backgroundchange
   6846  41b8				  -	      sta	COLUPF
   6847  41b8				  -	      else
   6848  41b8				  -	      sta	COLUBK
   6849  41b8				  -	      endif
   6850  41b8				  -	      jmp	continuekernel
   6851  41b8				  -	      else
   6852  41b8				  -	      ifconst	kernelmacrodef
   6853  41b8				  -	      kernelmacro
   6854  41b8				  -	      else
   6855  41b8				  -	      sleep	12
   6856  41b8				  -	      endif
   6857  41b8				  -	      endif
   6858  41b8				  -	      else
   6859  41b8				  -	      lda	(player0color),y
   6860  41b8				  -	      sta	player0colorstore
   6861  41b8				  -	      sleep	4
   6862  41b8				  -	      endif
   6863  41b8				  -	      jmp	continuekernel
   6864  41b8				  -	      endif
   6865  41b8				  -altkernel2
   6866  41b8				  -	      txa
   6867  41b8				  -	      ifnconst	vertical_reflect
   6868  41b8				  -	      sbx	#256-pfwidth
   6869  41b8				  -	      else
   6870  41b8				  -	      sbx	#256-pfwidth/2
   6871  41b8				  -	      endif
   6872  41b8				  -	      bmi	lastkernelline
   6873  41b8				  -	      ifconst	pfrowheight
   6874  41b8				  -	      lda	#pfrowheight
   6875  41b8				  -	      else
   6876  41b8				  -	      ifnconst	pfres
   6877  41b8				  -	      lda	#8
   6878  41b8				  -	      else
   6879  41b8				  -	      lda	#(96/pfres)	; try to come close to the real size
   6880  41b8				  -	      endif
   6881  41b8				  -	      endif
   6882  41b8				  -	      sta	temp1
   6883  41b8				  -	      jmp	continuekernel
   6884  41b8					      endif
   6885  41b8
   6886  41b8				   altkernel
   6887  41b8
   6888  41b8				  -	      ifconst	PFmaskvalue
   6889  41b8				  -	      lda	#PFmaskvalue
   6890  41b8					      else
   6891  41b8		       a9 00		      lda	#0
   6892  41ba					      endif
   6893  41ba		       85 0e		      sta	PF1L
   6894  41bc		       85 0f		      sta	PF2
   6895  41be
   6896  41be
   6897  41be							;sleep 3
   6898  41be
   6899  41be							;28 cycles to fix things
   6900  41be							;minus 11=17
   6901  41be
   6902  41be							; lax temp4
   6903  41be							; clc
   6904  41be		       8a		      txa
   6905  41bf					      ifnconst	vertical_reflect
   6906  41bf		       cb fc		      sbx	#256-pfwidth
   6907  41c1				  -	      else
   6908  41c1				  -	      sbx	#256-pfwidth/2
   6909  41c1					      endif
   6910  41c1
   6911  41c1		       30 11		      bmi	lastkernelline
   6912  41c3
   6913  41c3				  -	      ifconst	PFcolorandheight
   6914  41c3				  -	      ifconst	pfres
   6915  41c3				  -	      ldy	playfieldcolorandheight-131+pfres*pfwidth,x
   6916  41c3				  -	      else
   6917  41c3				  -	      ldy	playfieldcolorandheight-87,x
   6918  41c3				  -	      endif
   6919  41c3				  -	      ifnconst	backgroundchange
   6920  41c3				  -	      sty	COLUPF
   6921  41c3				  -	      else
   6922  41c3				  -	      sty	COLUBK
   6923  41c3				  -	      endif
   6924  41c3				  -	      ifconst	pfres
   6925  41c3				  -	      lda	playfieldcolorandheight-132+pfres*pfwidth,x
   6926  41c3				  -	      else
   6927  41c3				  -	      lda	playfieldcolorandheight-88,x
   6928  41c3				  -	      endif
   6929  41c3				  -	      sta.w	temp1
   6930  41c3					      endif
   6931  41c3					      ifconst	PFheights
   6932  41c3		       4a		      lsr
   6933  41c4		       4a		      lsr
   6934  41c5		       a8		      tay
   6935  41c6		       b1 f0		      lda	(pfheighttable),y
   6936  41c8		       8d 9c 00 	      sta.w	temp1
   6937  41cb					      endif
   6938  41cb				  -	      ifconst	PFcolors
   6939  41cb				  -	      tay
   6940  41cb				  -	      lda	(pfcolortable),y
   6941  41cb				  -	      ifnconst	backgroundchange
   6942  41cb				  -	      sta	COLUPF
   6943  41cb				  -	      else
   6944  41cb				  -	      sta	COLUBK
   6945  41cb				  -	      endif
   6946  41cb				  -	      ifconst	pfrowheight
   6947  41cb				  -	      lda	#pfrowheight
   6948  41cb				  -	      else
   6949  41cb				  -	      ifnconst	pfres
   6950  41cb				  -	      lda	#8
   6951  41cb				  -	      else
   6952  41cb				  -	      lda	#(96/pfres)	; try to come close to the real size
   6953  41cb				  -	      endif
   6954  41cb				  -	      endif
   6955  41cb				  -	      sta	temp1
   6956  41cb					      endif
   6957  41cb					      ifnconst	PFcolorandheight
   6958  41cb					      ifnconst	PFcolors
   6959  41cb				  -	      ifnconst	PFheights
   6960  41cb				  -	      ifnconst	no_blank_lines
   6961  41cb				  -			; read paddle 0
   6962  41cb				  -			; lo-res paddle read
   6963  41cb				  -			; bit INPT0
   6964  41cb				  -			; bmi paddleskipread
   6965  41cb				  -			; inc paddle0
   6966  41cb				  -			;donepaddleskip
   6967  41cb				  -	      sleep	10
   6968  41cb				  -	      ifconst	pfrowheight
   6969  41cb				  -	      lda	#pfrowheight
   6970  41cb				  -	      else
   6971  41cb				  -	      ifnconst	pfres
   6972  41cb				  -	      lda	#8
   6973  41cb				  -	      else
   6974  41cb				  -	      lda	#(96/pfres)	; try to come close to the real size
   6975  41cb				  -	      endif
   6976  41cb				  -	      endif
   6977  41cb				  -	      sta	temp1
   6978  41cb				  -	      endif
   6979  41cb					      endif
   6980  41cb					      endif
   6981  41cb					      endif
   6982  41cb
   6983  41cb
   6984  41cb		       a5 92		      lda	ballheight
   6985  41cd		       c7 89		      dcp	bally
   6986  41cf		       e5 9f		      sbc	temp4
   6987  41d1
   6988  41d1
   6989  41d1		       4c 76 f1 	      jmp	goback
   6990  41d4
   6991  41d4
   6992  41d4					      ifnconst	no_blank_lines
   6993  41d4				   lastkernelline
   6994  41d4					      ifnconst	PFcolors
      0  41d4					      sleep	10
      1  41d4				   .CYCLES    SET	10
      2  41d4
      3  41d4				  -	      IF	.CYCLES < 2
      4  41d4				  -	      ECHO	"MACRO ERROR: 'SLEEP': Duration must be > 1"
      5  41d4				  -	      ERR
      6  41d4					      ENDIF
      7  41d4
      8  41d4				  -	      IF	.CYCLES & 1
      9  41d4				  -	      IFNCONST	NO_ILLEGAL_OPCODES
     10  41d4				  -	      nop	0
     11  41d4				  -	      ELSE
     12  41d4				  -	      bit	VSYNC
     13  41d4				  -	      ENDIF
     14  41d4				  -.CYCLES    SET	.CYCLES - 3
     15  41d4					      ENDIF
     16  41d4
     17  41d4					      REPEAT	.CYCLES / 2
     18  41d4		       ea		      nop
     17  41d4					      REPEND
     18  41d5		       ea		      nop
     17  41d5					      REPEND
     18  41d6		       ea		      nop
     17  41d6					      REPEND
     18  41d7		       ea		      nop
     17  41d7					      REPEND
     18  41d8		       ea		      nop
     19  41d9					      REPEND
   6996  41d9				  -	      else
   6997  41d9				  -	      ldy	#124
   6998  41d9				  -	      lda	(pfcolortable),y
   6999  41d9				  -	      sta	COLUPF
   7000  41d9					      endif
   7001  41d9
   7002  41d9					      ifconst	PFheights
   7003  41d9		       a2 01		      ldx	#1
   7004  41db							;sleep 4
      0  41db					      sleep	3	; this was over 1 cycle
      1  41db				   .CYCLES    SET	3
      2  41db
      3  41db				  -	      IF	.CYCLES < 2
      4  41db				  -	      ECHO	"MACRO ERROR: 'SLEEP': Duration must be > 1"
      5  41db				  -	      ERR
      6  41db					      ENDIF
      7  41db
      8  41db					      IF	.CYCLES & 1
      9  41db					      IFNCONST	NO_ILLEGAL_OPCODES
     10  41db		       04 00		      nop	0
     11  41dd				  -	      ELSE
     12  41dd				  -	      bit	VSYNC
     13  41dd					      ENDIF
     14  41dd				   .CYCLES    SET	.CYCLES - 3
     15  41dd					      ENDIF
     16  41dd
     17  41dd				  -	      REPEAT	.CYCLES / 2
     18  41dd				  -	      nop
     19  41dd					      REPEND
   7006  41dd				  -	      else
   7007  41dd				  -	      ldx	playfieldpos
   7008  41dd				  -			;sleep 3
   7009  41dd				  -	      sleep	2	; this was over 1 cycle
   7010  41dd					      endif
   7011  41dd
   7012  41dd		       4c 1b f2 	      jmp	enterlastkernel
   7013  41e0
   7014  41e0				  -	      else
   7015  41e0				  -lastkernelline
   7016  41e0				  -
   7017  41e0				  -	      ifconst	PFheights
   7018  41e0				  -	      ldx	#1
   7019  41e0				  -			;sleep 5
   7020  41e0				  -	      sleep	4	; this was over 1 cycle
   7021  41e0				  -	      else
   7022  41e0				  -	      ldx	playfieldpos
   7023  41e0				  -			;sleep 4
   7024  41e0				  -	      sleep	3	; this was over 1 cycle
   7025  41e0				  -	      endif
   7026  41e0				  -
   7027  41e0				  -	      cpx	#0
   7028  41e0				  -	      bne	.enterfromNBL
   7029  41e0				  -	      jmp	no_blank_lines_bailout
   7030  41e0					      endif
   7031  41e0
   7032  41e0					      if	((<*)>$d5)
   7033  4200		       00 00 00 00*	      align	256
   7034  4200					      endif
   7035  4200							; this is a kludge to prevent page wrapping - fix!!!
   7036  4200
   7037  4200				   .skipDrawlastP1
   7038  4200		       a9 00		      lda	#0
   7039  4202		       a8		      tay		; added so we don't cross a page
   7040  4203		       4c 2d f2 	      jmp	.continuelastP1
   7041  4206
   7042  4206				   .endkerloop		; enter at cycle 59??
   7043  4206
   7044  4206		       ea		      nop
   7045  4207
   7046  4207				   .enterfromNBL
   7047  4207				  -	      ifconst	pfres
   7048  4207				  -	      ldy.w	playfield+pfres*pfwidth-4
   7049  4207				  -	      sty	PF1L	;3
   7050  4207				  -	      ldy.w	playfield+pfres*pfwidth-3-pfadjust
   7051  4207				  -	      sty	PF2L	;3
   7052  4207				  -	      ldy.w	playfield+pfres*pfwidth-1
   7053  4207				  -	      sty	PF1R	; possibly too early?
   7054  4207				  -	      ldy.w	playfield+pfres*pfwidth-2-pfadjust
   7055  4207				  -	      sty	PF2R	;3
   7056  4207					      else
   7057  4207		       ac fc 10 	      ldy.w	playfield-48+pfwidth*12+44
   7058  420a		       84 0e		      sty	PF1L	;3
   7059  420c		       ac fd 10 	      ldy.w	playfield-48+pfwidth*12+45-pfadjust
   7060  420f		       84 0f		      sty	PF2L	;3
   7061  4211		       ac ff 10 	      ldy.w	playfield-48+pfwidth*12+47
   7062  4214		       84 0e		      sty	PF1R	; possibly too early?
   7063  4216		       ac fe 10 	      ldy.w	playfield-48+pfwidth*12+46-pfadjust
   7064  4219		       84 0f		      sty	PF2R	;3
   7065  421b					      endif
   7066  421b
   7067  421b				   enterlastkernel
   7068  421b		       a5 92		      lda	ballheight
   7069  421d
   7070  421d							; tya
   7071  421d		       c7 89		      dcp	bally
   7072  421f							; sleep 4
   7073  421f
   7074  421f							; sbc stack3
   7075  421f		       2a		      rol
   7076  4220		       2a		      rol
   7077  4221		       85 1f		      sta	ENABL
   7078  4223
   7079  4223		       a5 8f		      lda	player1height	;3
   7080  4225		       c7 86		      dcp	player1y	;5
   7081  4227		       90 d7		      bcc	.skipDrawlastP1
   7082  4229		       a4 86		      ldy	player1y	;3
   7083  422b		       b1 8c		      lda	(player1pointer),y	;5; player0pointer must be selected carefully by the compiler
   7084  422d							; so it doesn't cross a page boundary!
   7085  422d
   7086  422d				   .continuelastP1
   7087  422d		       85 1c		      sta	GRP1	;3
   7088  422f
   7089  422f				  -	      ifnconst	player1colors
   7090  422f				  -	      lda	missile1height	;3
   7091  422f				  -	      dcp	missile1y	;5
   7092  422f					      else
   7093  422f		       b1 87		      lda	(player1color),y
   7094  4231		       85 07		      sta	COLUP1
   7095  4233					      endif
   7096  4233
   7097  4233		       ca		      dex
   7098  4234							;dec temp4 ; might try putting this above PF writes
   7099  4234		       f0 36		      beq	endkernel
   7100  4236
   7101  4236
   7102  4236				  -	      ifconst	pfres
   7103  4236				  -	      ldy.w	playfield+pfres*pfwidth-4
   7104  4236				  -	      sty	PF1L	;3
   7105  4236				  -	      ldy.w	playfield+pfres*pfwidth-3-pfadjust
   7106  4236				  -	      sty	PF2L	;3
   7107  4236				  -	      ldy.w	playfield+pfres*pfwidth-1
   7108  4236				  -	      sty	PF1R	; possibly too early?
   7109  4236				  -	      ldy.w	playfield+pfres*pfwidth-2-pfadjust
   7110  4236				  -	      sty	PF2R	;3
   7111  4236					      else
   7112  4236		       ac fc 10 	      ldy.w	playfield-48+pfwidth*12+44
   7113  4239		       84 0e		      sty	PF1L	;3
   7114  423b		       ac fd 10 	      ldy.w	playfield-48+pfwidth*12+45-pfadjust
   7115  423e		       84 0f		      sty	PF2L	;3
   7116  4240		       ac ff 10 	      ldy.w	playfield-48+pfwidth*12+47
   7117  4243		       84 0e		      sty	PF1R	; possibly too early?
   7118  4245		       ac fe 10 	      ldy.w	playfield-48+pfwidth*12+46-pfadjust
   7119  4248		       84 0f		      sty	PF2R	;3
   7120  424a					      endif
   7121  424a
   7122  424a				  -	      ifnconst	player1colors
   7123  424a				  -	      rol		;2
   7124  424a				  -	      rol		;2
   7125  424a				  -	      sta	ENAM1	;3
   7126  424a					      else
   7127  424a					      ifnconst	playercolors
      0  424a					      sleep	7
      1  424a				   .CYCLES    SET	7
      2  424a
      3  424a				  -	      IF	.CYCLES < 2
      4  424a				  -	      ECHO	"MACRO ERROR: 'SLEEP': Duration must be > 1"
      5  424a				  -	      ERR
      6  424a					      ENDIF
      7  424a
      8  424a					      IF	.CYCLES & 1
      9  424a					      IFNCONST	NO_ILLEGAL_OPCODES
     10  424a		       04 00		      nop	0
     11  424c				  -	      ELSE
     12  424c				  -	      bit	VSYNC
     13  424c					      ENDIF
     14  424c				   .CYCLES    SET	.CYCLES - 3
     15  424c					      ENDIF
     16  424c
     17  424c					      REPEAT	.CYCLES / 2
     18  424c		       ea		      nop
     17  424c					      REPEND
     18  424d		       ea		      nop
     19  424e					      REPEND
   7129  424e				  -	      else
   7130  424e				  -	      lda.w	player0colorstore
   7131  424e				  -	      sta	COLUP0
   7132  424e					      endif
   7133  424e					      endif
   7134  424e
   7135  424e		       ad 8e 00 	      lda.w	player0height
   7136  4251		       c7 85		      dcp	player0y
   7137  4253		       90 11		      bcc	.skipDrawlastP0
   7138  4255		       a4 85		      ldy	player0y
   7139  4257		       b1 8a		      lda	(player0pointer),y
   7140  4259				   .continuelastP0
   7141  4259		       85 1b		      sta	GRP0
   7142  425b
   7143  425b
   7144  425b
   7145  425b					      ifnconst	no_blank_lines
   7146  425b		       a5 90		      lda	missile0height	;3
   7147  425d		       c7 91		      dcp	missile0y	;5
   7148  425f		       e5 f6		      sbc	stack1
   7149  4261		       85 1d		      sta	ENAM0	;3
   7150  4263		       4c 06 f2 	      jmp	.endkerloop
   7151  4266				  -	      else
   7152  4266				  -	      ifconst	readpaddle
   7153  4266				  -	      ldy	currentpaddle
   7154  4266				  -	      lda	INPT0,y
   7155  4266				  -	      bpl	noreadpaddle2
   7156  4266				  -	      inc	paddle
   7157  4266				  -	      jmp	.endkerloop
   7158  4266				  -noreadpaddle2
   7159  4266				  -	      sleep	4
   7160  4266				  -	      jmp	.endkerloop
   7161  4266				  -	      else		; no_blank_lines and no paddle reading
   7162  4266				  -	      pla
   7163  4266				  -	      pha		; 14 cycles in 4 bytes
   7164  4266				  -	      pla
   7165  4266				  -	      pha
   7166  4266				  -			; sleep 14
   7167  4266				  -	      jmp	.endkerloop
   7168  4266				  -	      endif
   7169  4266					      endif
   7170  4266
   7171  4266
   7172  4266							; ifconst donepaddleskip
   7173  4266							;paddleskipread
   7174  4266							; this is kind of lame, since it requires 4 cycles from a page boundary crossing
   7175  4266							; plus we get a lo-res paddle read
   7176  4266							; bmi donepaddleskip
   7177  4266							; endif
   7178  4266
   7179  4266				   .skipDrawlastP0
   7180  4266		       a9 00		      lda	#0
   7181  4268		       a8		      tay
   7182  4269		       4c 59 f2 	      jmp	.continuelastP0
   7183  426c
   7184  426c				  -	      ifconst	no_blank_lines
   7185  426c				  -no_blank_lines_bailout
   7186  426c				  -	      ldx	#0
   7187  426c					      endif
   7188  426c
   7189  426c				   endkernel
   7190  426c							; 6 digit score routine
   7191  426c		       86 0e		      stx	PF1
   7192  426e		       86 0f		      stx	PF2
   7193  4270		       86 0d		      stx	PF0
   7194  4272		       18		      clc
   7195  4273
   7196  4273				  -	      ifconst	pfrowheight
   7197  4273				  -	      lda	#pfrowheight+2
   7198  4273					      else
   7199  4273					      ifnconst	pfres
   7200  4273		       a9 0a		      lda	#10
   7201  4275				  -	      else
   7202  4275				  -	      lda	#(96/pfres)+2	; try to come close to the real size
   7203  4275					      endif
   7204  4275					      endif
   7205  4275
   7206  4275		       e5 ef		      sbc	playfieldpos
   7207  4277		       85 ef		      sta	playfieldpos
   7208  4279		       8a		      txa
   7209  427a
   7210  427a				  -	      ifconst	shakescreen
   7211  427a				  -	      bit	shakescreen
   7212  427a				  -	      bmi	noshakescreen2
   7213  427a				  -	      ldx	#$3D
   7214  427a				  -noshakescreen2
   7215  427a					      endif
   7216  427a
   7217  427a		       95 02		      sta	WSYNC,x
   7218  427c
   7219  427c							; STA WSYNC ;first one, need one more
   7220  427c		       85 0b		      sta	REFP0
   7221  427e		       85 0c		      sta	REFP1
   7222  4280		       85 1b		      STA	GRP0
   7223  4282		       85 1c		      STA	GRP1
   7224  4284							; STA PF1
   7225  4284							; STA PF2
   7226  4284		       85 2b		      sta	HMCLR
   7227  4286		       85 1d		      sta	ENAM0
   7228  4288		       85 1e		      sta	ENAM1
   7229  428a		       85 1f		      sta	ENABL
   7230  428c
   7231  428c		       a5 9d		      lda	temp2	;restore variables that were obliterated by kernel
   7232  428e		       85 85		      sta	player0y
   7233  4290		       a5 9e		      lda	temp3
   7234  4292		       85 86		      sta	player1y
   7235  4294				  -	      ifnconst	player1colors
   7236  4294				  -	      lda	temp6
   7237  4294				  -	      sta	missile1y
   7238  4294					      endif
   7239  4294					      ifnconst	playercolors
   7240  4294					      ifnconst	readpaddle
   7241  4294		       a5 a0		      lda	temp5
   7242  4296		       85 91		      sta	missile0y
   7243  4298					      endif
   7244  4298					      endif
   7245  4298		       a5 f7		      lda	stack2
   7246  429a		       85 89		      sta	bally
   7247  429c
   7248  429c							; strangely, this isn't required any more. might have
   7249  429c							; resulted from the no_blank_lines score bounce fix
   7250  429c							;ifconst no_blank_lines
   7251  429c							;sta WSYNC
   7252  429c							;endif
   7253  429c
   7254  429c		       ad 84 02 	      lda	INTIM
   7255  429f		       18		      clc
   7256  42a0					      ifnconst	vblank_time
   7257  42a0		       69 8e		      adc	#43+12+87
   7258  42a2				  -	      else
   7259  42a2				  -	      adc	#vblank_time+12+87
   7260  42a2				  -
   7261  42a2					      endif
   7262  42a2							; sta WSYNC
   7263  42a2		       8d 96 02 	      sta	TIM64T
   7264  42a5
   7265  42a5				  -	      ifconst	minikernel
   7266  42a5				  -	      jsr	minikernel
   7267  42a5					      endif
   7268  42a5
   7269  42a5							; now reassign temp vars for score pointers
   7270  42a5
   7271  42a5							; score pointers contain:
   7272  42a5							; score1-5: lo1,lo2,lo3,lo4,lo5,lo6
   7273  42a5							; swap lo2->temp1
   7274  42a5							; swap lo4->temp3
   7275  42a5							; swap lo6->temp5
   7276  42a5					      ifnconst	noscore
   7277  42a5		       a5 97		      lda	scorepointers+1
   7278  42a7							; ldy temp1
   7279  42a7		       85 9c		      sta	temp1
   7280  42a9							; sty scorepointers+1
   7281  42a9
   7282  42a9		       a5 99		      lda	scorepointers+3
   7283  42ab							; ldy temp3
   7284  42ab		       85 9e		      sta	temp3
   7285  42ad							; sty scorepointers+3
   7286  42ad
   7287  42ad
   7288  42ad		       85 2b		      sta	HMCLR
   7289  42af		       ba		      tsx
   7290  42b0		       86 f6		      stx	stack1
   7291  42b2		       a2 e0		      ldx	#$E0
   7292  42b4		       86 20		      stx	HMP0
   7293  42b6
   7294  42b6		       a5 a3		      LDA	scorecolor
   7295  42b8		       85 06		      STA	COLUP0
   7296  42ba		       85 07		      STA	COLUP1
   7297  42bc				  -	      ifconst	scorefade
   7298  42bc				  -	      STA	stack2
   7299  42bc					      endif
   7300  42bc					      ifconst	pfscore
   7301  42bc		       a5 f4		      lda	pfscorecolor
   7302  42be		       85 08		      sta	COLUPF
   7303  42c0					      endif
   7304  42c0		       85 02		      sta	WSYNC
   7305  42c2		       a2 00		      ldx	#0
   7306  42c4		       86 1b		      STx	GRP0
   7307  42c6		       86 1c		      STx	GRP1	; seems to be needed because of vdel
   7308  42c8
   7309  42c8		       a5 9b		      lda	scorepointers+5
   7310  42ca							; ldy temp5
   7311  42ca		       95 a0		      sta	temp5,x
   7312  42cc							; sty scorepointers+5
   7313  42cc		       a9 ff		      lda	#>scoretable
   7314  42ce		       85 97		      sta	scorepointers+1
   7315  42d0		       85 99		      sta	scorepointers+3
   7316  42d2		       85 9b		      sta	scorepointers+5
   7317  42d4		       85 9d		      sta	temp2
   7318  42d6		       85 9f		      sta	temp4
   7319  42d8		       85 a1		      sta	temp6
   7320  42da		       a0 07		      LDY	#7
   7321  42dc		       84 25		      STY	VDELP0
   7322  42de		       85 10		      STA	RESP0
   7323  42e0		       85 11		      STA	RESP1
   7324  42e2
   7325  42e2
   7326  42e2		       a9 03		      LDA	#$03
   7327  42e4		       85 04		      STA	NUSIZ0
   7328  42e6		       85 05		      STA	NUSIZ1
   7329  42e8		       85 26		      STA	VDELP1
   7330  42ea		       a9 f0		      LDA	#$F0
   7331  42ec		       85 21		      STA	HMP1
   7332  42ee		       b1 96		      lda	(scorepointers),y
   7333  42f0		       85 1b		      sta	GRP0
   7334  42f2		       85 2a		      STA	HMOVE	; cycle 73 ?
   7335  42f4		       4c 09 f3 	      jmp	beginscore
   7336  42f7
   7337  42f7
   7338  42f7					      if	((<*)>$d4)
   7339  4300		       00 00 00 00*	      align	256	; kludge that potentially wastes space! should be fixed!
   7340  4300					      endif
   7341  4300
   7342  4300				   loop2
   7343  4300		       b1 96		      lda	(scorepointers),y	;+5 68 204
   7344  4302		       85 1b		      sta	GRP0	;+3 71 213 D1 -- -- --
   7345  4304					      ifconst	pfscore
   7346  4304		       ad f2 00 	      lda.w	pfscore1
   7347  4307		       85 0e		      sta	PF1
   7348  4309				  -	      else
   7349  4309				  -	      ifconst	scorefade
   7350  4309				  -	      sleep	2
   7351  4309				  -	      dec	stack2	; decrement the temporary scorecolor
   7352  4309				  -	      else
   7353  4309				  -	      sleep	7
   7354  4309				  -	      endif
   7355  4309					      endif
   7356  4309							; cycle 0
   7357  4309				   beginscore
   7358  4309		       b1 9e		      lda	(scorepointers+$8),y	;+5 5 15
   7359  430b		       85 1c		      sta	GRP1	;+3 8 24 D1 D1 D2 --
   7360  430d		       b1 9c		      lda	(scorepointers+$6),y	;+5 13 39
   7361  430f		       85 1b		      sta	GRP0	;+3 16 48 D3 D1 D2 D2
   7362  4311		       b3 98		      lax	(scorepointers+$2),y	;+5 29 87
   7363  4313		       9a		      txs
   7364  4314		       b3 9a		      lax	(scorepointers+$4),y	;+5 36 108
   7365  4316				  -	      ifconst	scorefade
   7366  4316				  -	      lda	stack2
   7367  4316					      else
      0  4316					      sleep	3
      1  4316				   .CYCLES    SET	3
      2  4316
      3  4316				  -	      IF	.CYCLES < 2
      4  4316				  -	      ECHO	"MACRO ERROR: 'SLEEP': Duration must be > 1"
      5  4316				  -	      ERR
      6  4316					      ENDIF
      7  4316
      8  4316					      IF	.CYCLES & 1
      9  4316					      IFNCONST	NO_ILLEGAL_OPCODES
     10  4316		       04 00		      nop	0
     11  4318				  -	      ELSE
     12  4318				  -	      bit	VSYNC
     13  4318					      ENDIF
     14  4318				   .CYCLES    SET	.CYCLES - 3
     15  4318					      ENDIF
     16  4318
     17  4318				  -	      REPEAT	.CYCLES / 2
     18  4318				  -	      nop
     19  4318					      REPEND
   7369  4318					      endif
   7370  4318
   7371  4318					      ifconst	pfscore
   7372  4318		       a5 f3		      lda	pfscore2
   7373  431a		       85 0e		      sta	PF1
   7374  431c				  -	      else
   7375  431c				  -	      ifconst	scorefade
   7376  431c				  -	      sta	COLUP0
   7377  431c				  -	      sta	COLUP1
   7378  431c				  -	      else
   7379  431c				  -	      sleep	6
   7380  431c				  -	      endif
   7381  431c					      endif
   7382  431c
   7383  431c		       b1 a0		      lda	(scorepointers+$A),y	;+5 21 63
   7384  431e		       86 1c		      stx	GRP1	;+3 44 132 D3 D3 D4 D2!
   7385  4320		       ba		      tsx
   7386  4321		       86 1b		      stx	GRP0	;+3 47 141 D5 D3! D4 D4
   7387  4323		       85 1c		      sta	GRP1	;+3 50 150 D5 D5 D6 D4!
   7388  4325		       84 1b		      sty	GRP0	;+3 53 159 D4* D5! D6 D6
   7389  4327		       88		      dey
   7390  4328		       10 d6		      bpl	loop2	;+2 60 180
   7391  432a
   7392  432a		       a6 f6		      ldx	stack1
   7393  432c		       9a		      txs
   7394  432d							; lda scorepointers+1
   7395  432d		       a4 9c		      ldy	temp1
   7396  432f							; sta temp1
   7397  432f		       84 97		      sty	scorepointers+1
   7398  4331
   7399  4331		       a9 00		      LDA	#0
   7400  4333		       85 0e		      sta	PF1
   7401  4335		       85 1b		      STA	GRP0
   7402  4337		       85 1c		      STA	GRP1
   7403  4339		       85 25		      STA	VDELP0
   7404  433b		       85 26		      STA	VDELP1	;do we need these
   7405  433d		       85 04		      STA	NUSIZ0
   7406  433f		       85 05		      STA	NUSIZ1
   7407  4341
   7408  4341							; lda scorepointers+3
   7409  4341		       a4 9e		      ldy	temp3
   7410  4343							; sta temp3
   7411  4343		       84 99		      sty	scorepointers+3
   7412  4345
   7413  4345							; lda scorepointers+5
   7414  4345		       a4 a0		      ldy	temp5
   7415  4347							; sta temp5
   7416  4347		       84 9b		      sty	scorepointers+5
   7417  4349					      endif		;noscore
   7418  4349				  -	      ifconst	readpaddle
   7419  4349				  -	      lda	#%11000010
   7420  4349					      else
   7421  4349				  -	      ifconst	qtcontroller
   7422  4349				  -	      lda	qtcontroller
   7423  4349				  -	      lsr		; bit 0 in carry
   7424  4349				  -	      lda	#4
   7425  4349				  -	      ror		; carry into top of A
   7426  4349					      else
   7427  4349		       a9 02		      lda	#2
   7428  434b					      endif		; qtcontroller
   7429  434b					      endif		; readpaddle
   7430  434b		       85 02		      sta	WSYNC
   7431  434d		       85 01		      sta	VBLANK
      0  434f					      RETURN
      1  434f				  -	      ifnconst	bankswitch
      2  434f				  -	      rts
      3  434f					      else
      4  434f		       4c dd ff 	      jmp	BS_return
      5  4352					      endif
   7433  4352				  -	      ifconst	shakescreen
   7434  4352				  -doshakescreen
   7435  4352				  -	      bit	shakescreen
   7436  4352				  -	      bmi	noshakescreen
   7437  4352				  -	      sta	WSYNC
   7438  4352				  -noshakescreen
   7439  4352				  -	      ldx	missile0height
   7440  4352				  -	      inx
   7441  4352				  -	      rts
   7442  4352					      endif
   7443  4352
   7444  4352							; Provided under the CC0 license. See the included LICENSE.txt for details.
   7445  4352
   7446  4352				   start
   7447  4352		       78		      sei
   7448  4353		       d8		      cld
   7449  4354		       a0 00		      ldy	#0
   7450  4356		       a5 d0		      lda	$D0
   7451  4358		       c9 2c		      cmp	#$2C	;check RAM location #1
   7452  435a		       d0 07		      bne	MachineIs2600
   7453  435c		       a5 d1		      lda	$D1
   7454  435e		       c9 a9		      cmp	#$A9	;check RAM location #2
   7455  4360		       d0 01		      bne	MachineIs2600
   7456  4362		       88		      dey
   7457  4363				   MachineIs2600
   7458  4363		       a2 00		      ldx	#0
   7459  4365		       8a		      txa
   7460  4366				   clearmem
   7461  4366		       e8		      inx
   7462  4367		       9a		      txs
   7463  4368		       48		      pha
   7464  4369		       d0 fb		      bne	clearmem
   7465  436b		       84 9c		      sty	temp1
   7466  436d					      ifnconst	multisprite
   7467  436d				  -	      ifconst	pfrowheight
   7468  436d				  -	      lda	#pfrowheight
   7469  436d					      else
   7470  436d				  -	      ifconst	pfres
   7471  436d				  -	      lda	#(96/pfres)
   7472  436d					      else
   7473  436d		       a9 08		      lda	#8
   7474  436f					      endif
   7475  436f					      endif
   7476  436f		       85 ef		      sta	playfieldpos
   7477  4371					      endif
   7478  4371		       a2 05		      ldx	#5
   7479  4373				   initscore
   7480  4373		       a9 74		      lda	#<scoretable
   7481  4375		       95 96		      sta	scorepointers,x
   7482  4377		       ca		      dex
   7483  4378		       10 f9		      bpl	initscore
   7484  437a		       a9 01		      lda	#1
   7485  437c		       85 0a		      sta	CTRLPF
   7486  437e		       0d 84 02 	      ora	INTIM
   7487  4381		       85 a2		      sta	rand
   7488  4383
   7489  4383				  -	      ifconst	multisprite
   7490  4383				  -	      jsr	multisprite_setup
   7491  4383					      endif
   7492  4383
   7493  4383				  -	      ifnconst	bankswitch
   7494  4383				  -	      jmp	game
   7495  4383					      else
   7496  4383		       a9 90		      lda	#>(game-1)
   7497  4385		       48		      pha
   7498  4386		       a9 ff		      lda	#<(game-1)
   7499  4388		       48		      pha
   7500  4389		       48		      pha
   7501  438a		       48		      pha
   7502  438b		       a2 01		      ldx	#1
   7503  438d		       4c eb ff 	      jmp	BS_jsr
   7504  4390					      endif
   7505  4390							; Provided under the CC0 license. See the included LICENSE.txt for details.
   7506  4390
   7507  4390							; playfield drawing routines
   7508  4390							; you get a 32x12 bitmapped display in a single color :)
   7509  4390							; 0-31 and 0-11
   7510  4390
   7511  4390				   pfclear		; clears playfield - or fill with pattern
   7512  4390				  -	      ifconst	pfres
   7513  4390				  -	      ldx	#pfres*pfwidth-1
   7514  4390					      else
   7515  4390		       a2 2f		      ldx	#47-(4-pfwidth)*12	; will this work?
   7516  4392					      endif
   7517  4392				   pfclear_loop
   7518  4392				  -	      ifnconst	superchip
   7519  4392				  -	      sta	playfield,x
   7520  4392					      else
   7521  4392		       9d 50 10 	      sta	playfield-128,x
   7522  4395					      endif
   7523  4395		       ca		      dex
   7524  4396		       10 fa		      bpl	pfclear_loop
      0  4398					      RETURN
      1  4398				  -	      ifnconst	bankswitch
      2  4398				  -	      rts
      3  4398					      else
      4  4398		       4c dd ff 	      jmp	BS_return
      5  439b					      endif
   7526  439b
   7527  439b				   setuppointers
   7528  439b		       86 9d		      stx	temp2	; store on.off.flip value
   7529  439d		       aa		      tax		; put x-value in x
   7530  439e		       4a		      lsr
   7531  439f		       4a		      lsr
   7532  43a0		       4a		      lsr		; divide x pos by 8
   7533  43a1		       85 9c		      sta	temp1
   7534  43a3		       98		      tya
   7535  43a4		       0a		      asl
   7536  43a5					      if	pfwidth=4
   7537  43a5		       0a		      asl		; multiply y pos by 4
   7538  43a6					      endif		; else multiply by 2
   7539  43a6		       18		      clc
   7540  43a7		       65 9c		      adc	temp1	; add them together to get actual memory location offset
   7541  43a9		       a8		      tay		; put the value in y
   7542  43aa		       a5 9d		      lda	temp2	; restore on.off.flip value
   7543  43ac		       60		      rts
   7544  43ad
   7545  43ad				   pfread
   7546  43ad							;x=xvalue, y=yvalue
   7547  43ad		       20 9b f3 	      jsr	setuppointers
   7548  43b0		       bd 45 f4 	      lda	setbyte,x
   7549  43b3		       39 d0 10 	      and	playfield,y
   7550  43b6		       5d 45 f4 	      eor	setbyte,x
   7551  43b9							; beq readzero
   7552  43b9							; lda #1
   7553  43b9							; readzero
      0  43b9					      RETURN
      1  43b9				  -	      ifnconst	bankswitch
      2  43b9				  -	      rts
      3  43b9					      else
      4  43b9		       4c dd ff 	      jmp	BS_return
      5  43bc					      endif
   7555  43bc
   7556  43bc				   pfpixel
   7557  43bc							;x=xvalue, y=yvalue, a=0,1,2
   7558  43bc		       20 9b f3 	      jsr	setuppointers
   7559  43bf
   7560  43bf					      ifconst	bankswitch
   7561  43bf		       a5 9d		      lda	temp2	; load on.off.flip value (0,1, or 2)
   7562  43c1		       f0 0f		      beq	pixelon_r	; if "on" go to on
   7563  43c3		       4a		      lsr
   7564  43c4		       b0 18		      bcs	pixeloff_r	; value is 1 if true
   7565  43c6		       b9 d0 10 	      lda	playfield,y	; if here, it's "flip"
   7566  43c9		       5d 45 f4 	      eor	setbyte,x
   7567  43cc					      ifconst	superchip
   7568  43cc		       99 50 10 	      sta	playfield-128,y
   7569  43cf				  -	      else
   7570  43cf				  -	      sta	playfield,y
   7571  43cf					      endif
      0  43cf					      RETURN
      1  43cf				  -	      ifnconst	bankswitch
      2  43cf				  -	      rts
      3  43cf					      else
      4  43cf		       4c dd ff 	      jmp	BS_return
      5  43d2					      endif
   7573  43d2				   pixelon_r
   7574  43d2		       b9 d0 10 	      lda	playfield,y
   7575  43d5		       1d 45 f4 	      ora	setbyte,x
   7576  43d8					      ifconst	superchip
   7577  43d8		       99 50 10 	      sta	playfield-128,y
   7578  43db				  -	      else
   7579  43db				  -	      sta	playfield,y
   7580  43db					      endif
      0  43db					      RETURN
      1  43db				  -	      ifnconst	bankswitch
      2  43db				  -	      rts
      3  43db					      else
      4  43db		       4c dd ff 	      jmp	BS_return
      5  43de					      endif
   7582  43de				   pixeloff_r
   7583  43de		       bd 45 f4 	      lda	setbyte,x
   7584  43e1		       49 ff		      eor	#$ff
   7585  43e3		       39 d0 10 	      and	playfield,y
   7586  43e6					      ifconst	superchip
   7587  43e6		       99 50 10 	      sta	playfield-128,y
   7588  43e9				  -	      else
   7589  43e9				  -	      sta	playfield,y
   7590  43e9					      endif
      0  43e9					      RETURN
      1  43e9				  -	      ifnconst	bankswitch
      2  43e9				  -	      rts
      3  43e9					      else
      4  43e9		       4c dd ff 	      jmp	BS_return
      5  43ec					      endif
   7592  43ec
   7593  43ec				  -	      else
   7594  43ec				  -	      jmp	plotpoint
   7595  43ec					      endif
   7596  43ec
   7597  43ec				   pfhline
   7598  43ec							;x=xvalue, y=yvalue, a=0,1,2, temp3=endx
   7599  43ec		       20 9b f3 	      jsr	setuppointers
   7600  43ef		       4c f9 f3 	      jmp	noinc
   7601  43f2				   keepgoing
   7602  43f2		       e8		      inx
   7603  43f3		       8a		      txa
   7604  43f4		       29 07		      and	#7
   7605  43f6		       d0 01		      bne	noinc
   7606  43f8		       c8		      iny
   7607  43f9				   noinc
   7608  43f9		       20 1e f4 	      jsr	plotpoint
   7609  43fc		       e4 9e		      cpx	temp3
   7610  43fe		       30 f2		      bmi	keepgoing
      0  4400					      RETURN
      1  4400				  -	      ifnconst	bankswitch
      2  4400				  -	      rts
      3  4400					      else
      4  4400		       4c dd ff 	      jmp	BS_return
      5  4403					      endif
   7612  4403
   7613  4403				   pfvline
   7614  4403							;x=xvalue, y=yvalue, a=0,1,2, temp3=endx
   7615  4403		       20 9b f3 	      jsr	setuppointers
   7616  4406		       84 9c		      sty	temp1	; store memory location offset
   7617  4408		       e6 9e		      inc	temp3	; increase final x by 1
   7618  440a		       a5 9e		      lda	temp3
   7619  440c		       0a		      asl
   7620  440d					      if	pfwidth=4
   7621  440d		       0a		      asl		; multiply by 4
   7622  440e					      endif		; else multiply by 2
   7623  440e		       85 9e		      sta	temp3	; store it
   7624  4410							; Thanks to Michael Rideout for fixing a bug in this code
   7625  4410							; right now, temp1=y=starting memory location, temp3=final
   7626  4410							; x should equal original x value
   7627  4410				   keepgoingy
   7628  4410		       20 1e f4 	      jsr	plotpoint
   7629  4413		       c8		      iny
   7630  4414		       c8		      iny
   7631  4415					      if	pfwidth=4
   7632  4415		       c8		      iny
   7633  4416		       c8		      iny
   7634  4417					      endif
   7635  4417		       c4 9e		      cpy	temp3
   7636  4419		       30 f5		      bmi	keepgoingy
      0  441b					      RETURN
      1  441b				  -	      ifnconst	bankswitch
      2  441b				  -	      rts
      3  441b					      else
      4  441b		       4c dd ff 	      jmp	BS_return
      5  441e					      endif
   7638  441e
   7639  441e				   plotpoint
   7640  441e		       a5 9d		      lda	temp2	; load on.off.flip value (0,1, or 2)
   7641  4420		       f0 0d		      beq	pixelon	; if "on" go to on
   7642  4422		       4a		      lsr
   7643  4423		       b0 14		      bcs	pixeloff	; value is 1 if true
   7644  4425		       b9 d0 10 	      lda	playfield,y	; if here, it's "flip"
   7645  4428		       5d 45 f4 	      eor	setbyte,x
   7646  442b					      ifconst	superchip
   7647  442b		       99 50 10 	      sta	playfield-128,y
   7648  442e				  -	      else
   7649  442e				  -	      sta	playfield,y
   7650  442e					      endif
   7651  442e		       60		      rts
   7652  442f				   pixelon
   7653  442f		       b9 d0 10 	      lda	playfield,y
   7654  4432		       1d 45 f4 	      ora	setbyte,x
   7655  4435					      ifconst	superchip
   7656  4435		       99 50 10 	      sta	playfield-128,y
   7657  4438				  -	      else
   7658  4438				  -	      sta	playfield,y
   7659  4438					      endif
   7660  4438		       60		      rts
   7661  4439				   pixeloff
   7662  4439		       bd 45 f4 	      lda	setbyte,x
   7663  443c		       49 ff		      eor	#$ff
   7664  443e		       39 d0 10 	      and	playfield,y
   7665  4441					      ifconst	superchip
   7666  4441		       99 50 10 	      sta	playfield-128,y
   7667  4444				  -	      else
   7668  4444				  -	      sta	playfield,y
   7669  4444					      endif
   7670  4444		       60		      rts
   7671  4445
   7672  4445				   setbyte
   7673  4445					      ifnconst	pfcenter
   7674  4445		       80		      .byte.b	$80
   7675  4446		       40		      .byte.b	$40
   7676  4447		       20		      .byte.b	$20
   7677  4448		       10		      .byte.b	$10
   7678  4449		       08		      .byte.b	$08
   7679  444a		       04		      .byte.b	$04
   7680  444b		       02		      .byte.b	$02
   7681  444c		       01		      .byte.b	$01
   7682  444d					      endif
   7683  444d		       01		      .byte.b	$01
   7684  444e		       02		      .byte.b	$02
   7685  444f		       04		      .byte.b	$04
   7686  4450		       08		      .byte.b	$08
   7687  4451		       10		      .byte.b	$10
   7688  4452		       20		      .byte.b	$20
   7689  4453		       40		      .byte.b	$40
   7690  4454		       80		      .byte.b	$80
   7691  4455		       80		      .byte.b	$80
   7692  4456		       40		      .byte.b	$40
   7693  4457		       20		      .byte.b	$20
   7694  4458		       10		      .byte.b	$10
   7695  4459		       08		      .byte.b	$08
   7696  445a		       04		      .byte.b	$04
   7697  445b		       02		      .byte.b	$02
   7698  445c		       01		      .byte.b	$01
   7699  445d		       01		      .byte.b	$01
   7700  445e		       02		      .byte.b	$02
   7701  445f		       04		      .byte.b	$04
   7702  4460		       08		      .byte.b	$08
   7703  4461		       10		      .byte.b	$10
   7704  4462		       20		      .byte.b	$20
   7705  4463		       40		      .byte.b	$40
   7706  4464		       80		      .byte.b	$80
   7707  4465							; Provided under the CC0 license. See the included LICENSE.txt for details.
   7708  4465
   7709  4465				   pfscroll		;(a=0 left, 1 right, 2 up, 4 down, 6=upup, 12=downdown)
   7710  4465		       d0 2a		      bne	notleft
   7711  4467							;left
   7712  4467				  -	      ifconst	pfres
   7713  4467				  -	      ldx	#pfres*4
   7714  4467					      else
   7715  4467		       a2 30		      ldx	#48
   7716  4469					      endif
   7717  4469				   leftloop
   7718  4469		       bd cf 10 	      lda	playfield-1,x
   7719  446c		       4a		      lsr
   7720  446d
   7721  446d					      ifconst	superchip
   7722  446d		       bd ce 10 	      lda	playfield-2,x
   7723  4470		       2a		      rol
   7724  4471		       9d 4e 10 	      sta	playfield-130,x
   7725  4474		       bd cd 10 	      lda	playfield-3,x
   7726  4477		       6a		      ror
   7727  4478		       9d 4d 10 	      sta	playfield-131,x
   7728  447b		       bd cc 10 	      lda	playfield-4,x
   7729  447e		       2a		      rol
   7730  447f		       9d 4c 10 	      sta	playfield-132,x
   7731  4482		       bd cf 10 	      lda	playfield-1,x
   7732  4485		       6a		      ror
   7733  4486		       9d 4f 10 	      sta	playfield-129,x
   7734  4489				  -	      else
   7735  4489				  -	      rol	playfield-2,x
   7736  4489				  -	      ror	playfield-3,x
   7737  4489				  -	      rol	playfield-4,x
   7738  4489				  -	      ror	playfield-1,x
   7739  4489					      endif
   7740  4489
   7741  4489		       8a		      txa
   7742  448a		       cb 04		      sbx	#4
   7743  448c		       d0 db		      bne	leftloop
      0  448e					      RETURN
      1  448e				  -	      ifnconst	bankswitch
      2  448e				  -	      rts
      3  448e					      else
      4  448e		       4c dd ff 	      jmp	BS_return
      5  4491					      endif
   7745  4491
   7746  4491				   notleft
   7747  4491		       4a		      lsr
   7748  4492		       90 2a		      bcc	notright
   7749  4494							;right
   7750  4494
   7751  4494				  -	      ifconst	pfres
   7752  4494				  -	      ldx	#pfres*4
   7753  4494					      else
   7754  4494		       a2 30		      ldx	#48
   7755  4496					      endif
   7756  4496				   rightloop
   7757  4496		       bd cc 10 	      lda	playfield-4,x
   7758  4499		       4a		      lsr
   7759  449a					      ifconst	superchip
   7760  449a		       bd cd 10 	      lda	playfield-3,x
   7761  449d		       2a		      rol
   7762  449e		       9d 4d 10 	      sta	playfield-131,x
   7763  44a1		       bd ce 10 	      lda	playfield-2,x
   7764  44a4		       6a		      ror
   7765  44a5		       9d 4e 10 	      sta	playfield-130,x
   7766  44a8		       bd cf 10 	      lda	playfield-1,x
   7767  44ab		       2a		      rol
   7768  44ac		       9d 4f 10 	      sta	playfield-129,x
   7769  44af		       bd cc 10 	      lda	playfield-4,x
   7770  44b2		       6a		      ror
   7771  44b3		       9d 4c 10 	      sta	playfield-132,x
   7772  44b6				  -	      else
   7773  44b6				  -	      rol	playfield-3,x
   7774  44b6				  -	      ror	playfield-2,x
   7775  44b6				  -	      rol	playfield-1,x
   7776  44b6				  -	      ror	playfield-4,x
   7777  44b6					      endif
   7778  44b6		       8a		      txa
   7779  44b7		       cb 04		      sbx	#4
   7780  44b9		       d0 db		      bne	rightloop
      0  44bb					      RETURN
      1  44bb				  -	      ifnconst	bankswitch
      2  44bb				  -	      rts
      3  44bb					      else
      4  44bb		       4c dd ff 	      jmp	BS_return
      5  44be					      endif
   7782  44be
   7783  44be				   notright
   7784  44be		       4a		      lsr
   7785  44bf		       90 5b		      bcc	notup
   7786  44c1							;up
   7787  44c1		       4a		      lsr
   7788  44c2		       90 02		      bcc	onedecup
   7789  44c4		       c6 ef		      dec	playfieldpos
   7790  44c6				   onedecup
   7791  44c6		       c6 ef		      dec	playfieldpos
   7792  44c8		       f0 02		      beq	shiftdown
   7793  44ca		       10 4d		      bpl	noshiftdown2
   7794  44cc				   shiftdown
   7795  44cc				  -	      ifconst	pfrowheight
   7796  44cc				  -	      lda	#pfrowheight
   7797  44cc					      else
   7798  44cc					      ifnconst	pfres
   7799  44cc		       a9 08		      lda	#8
   7800  44ce				  -	      else
   7801  44ce				  -	      lda	#(96/pfres)	; try to come close to the real size
   7802  44ce					      endif
   7803  44ce					      endif
   7804  44ce
   7805  44ce		       85 ef		      sta	playfieldpos
   7806  44d0		       ad d3 10 	      lda	playfield+3
   7807  44d3		       85 9f		      sta	temp4
   7808  44d5		       ad d2 10 	      lda	playfield+2
   7809  44d8		       85 9e		      sta	temp3
   7810  44da		       ad d1 10 	      lda	playfield+1
   7811  44dd		       85 9d		      sta	temp2
   7812  44df		       ad d0 10 	      lda	playfield
   7813  44e2		       85 9c		      sta	temp1
   7814  44e4		       a2 00		      ldx	#0
   7815  44e6				   up2
   7816  44e6		       bd d4 10 	      lda	playfield+4,x
   7817  44e9					      ifconst	superchip
   7818  44e9		       9d 50 10 	      sta	playfield-128,x
   7819  44ec		       bd d5 10 	      lda	playfield+5,x
   7820  44ef		       9d 51 10 	      sta	playfield-127,x
   7821  44f2		       bd d6 10 	      lda	playfield+6,x
   7822  44f5		       9d 52 10 	      sta	playfield-126,x
   7823  44f8		       bd d7 10 	      lda	playfield+7,x
   7824  44fb		       9d 53 10 	      sta	playfield-125,x
   7825  44fe				  -	      else
   7826  44fe				  -	      sta	playfield,x
   7827  44fe				  -	      lda	playfield+5,x
   7828  44fe				  -	      sta	playfield+1,x
   7829  44fe				  -	      lda	playfield+6,x
   7830  44fe				  -	      sta	playfield+2,x
   7831  44fe				  -	      lda	playfield+7,x
   7832  44fe				  -	      sta	playfield+3,x
   7833  44fe					      endif
   7834  44fe		       8a		      txa
   7835  44ff		       cb fc		      sbx	#252
   7836  4501				  -	      ifconst	pfres
   7837  4501				  -	      cpx	#(pfres-1)*4
   7838  4501					      else
   7839  4501		       e0 2c		      cpx	#44
   7840  4503					      endif
   7841  4503		       d0 e1		      bne	up2
   7842  4505
   7843  4505		       a5 9f		      lda	temp4
   7844  4507
   7845  4507					      ifconst	superchip
   7846  4507				  -	      ifconst	pfres
   7847  4507				  -	      sta	playfield+pfres*4-129
   7848  4507				  -	      lda	temp3
   7849  4507				  -	      sta	playfield+pfres*4-130
   7850  4507				  -	      lda	temp2
   7851  4507				  -	      sta	playfield+pfres*4-131
   7852  4507				  -	      lda	temp1
   7853  4507				  -	      sta	playfield+pfres*4-132
   7854  4507					      else
   7855  4507		       8d 7f 10 	      sta	playfield+47-128
   7856  450a		       a5 9e		      lda	temp3
   7857  450c		       8d 7e 10 	      sta	playfield+46-128
   7858  450f		       a5 9d		      lda	temp2
   7859  4511		       8d 7d 10 	      sta	playfield+45-128
   7860  4514		       a5 9c		      lda	temp1
   7861  4516		       8d 7c 10 	      sta	playfield+44-128
   7862  4519					      endif
   7863  4519				  -	      else
   7864  4519				  -	      ifconst	pfres
   7865  4519				  -	      sta	playfield+pfres*4-1
   7866  4519				  -	      lda	temp3
   7867  4519				  -	      sta	playfield+pfres*4-2
   7868  4519				  -	      lda	temp2
   7869  4519				  -	      sta	playfield+pfres*4-3
   7870  4519				  -	      lda	temp1
   7871  4519				  -	      sta	playfield+pfres*4-4
   7872  4519				  -	      else
   7873  4519				  -	      sta	playfield+47
   7874  4519				  -	      lda	temp3
   7875  4519				  -	      sta	playfield+46
   7876  4519				  -	      lda	temp2
   7877  4519				  -	      sta	playfield+45
   7878  4519				  -	      lda	temp1
   7879  4519				  -	      sta	playfield+44
   7880  4519				  -	      endif
   7881  4519					      endif
   7882  4519				   noshiftdown2
      0  4519					      RETURN
      1  4519				  -	      ifnconst	bankswitch
      2  4519				  -	      rts
      3  4519					      else
      4  4519		       4c dd ff 	      jmp	BS_return
      5  451c					      endif
   7884  451c
   7885  451c
   7886  451c				   notup
   7887  451c							;down
   7888  451c		       4a		      lsr
   7889  451d		       b0 02		      bcs	oneincup
   7890  451f		       e6 ef		      inc	playfieldpos
   7891  4521				   oneincup
   7892  4521		       e6 ef		      inc	playfieldpos
   7893  4523		       a5 ef		      lda	playfieldpos
   7894  4525
   7895  4525				  -	      ifconst	pfrowheight
   7896  4525				  -	      cmp	#pfrowheight+1
   7897  4525					      else
   7898  4525					      ifnconst	pfres
   7899  4525		       c9 09		      cmp	#9
   7900  4527				  -	      else
   7901  4527				  -	      cmp	#(96/pfres)+1	; try to come close to the real size
   7902  4527					      endif
   7903  4527					      endif
   7904  4527
   7905  4527		       90 4b		      bcc	noshiftdown
   7906  4529		       a9 01		      lda	#1
   7907  452b		       85 ef		      sta	playfieldpos
   7908  452d
   7909  452d				  -	      ifconst	pfres
   7910  452d				  -	      lda	playfield+pfres*4-1
   7911  452d				  -	      sta	temp4
   7912  452d				  -	      lda	playfield+pfres*4-2
   7913  452d				  -	      sta	temp3
   7914  452d				  -	      lda	playfield+pfres*4-3
   7915  452d				  -	      sta	temp2
   7916  452d				  -	      lda	playfield+pfres*4-4
   7917  452d					      else
   7918  452d		       ad ff 10 	      lda	playfield+47
   7919  4530		       85 9f		      sta	temp4
   7920  4532		       ad fe 10 	      lda	playfield+46
   7921  4535		       85 9e		      sta	temp3
   7922  4537		       ad fd 10 	      lda	playfield+45
   7923  453a		       85 9d		      sta	temp2
   7924  453c		       ad fc 10 	      lda	playfield+44
   7925  453f					      endif
   7926  453f
   7927  453f		       85 9c		      sta	temp1
   7928  4541
   7929  4541				  -	      ifconst	pfres
   7930  4541				  -	      ldx	#(pfres-1)*4
   7931  4541					      else
   7932  4541		       a2 2c		      ldx	#44
   7933  4543					      endif
   7934  4543				   down2
   7935  4543		       bd cf 10 	      lda	playfield-1,x
   7936  4546					      ifconst	superchip
   7937  4546		       9d 53 10 	      sta	playfield-125,x
   7938  4549		       bd ce 10 	      lda	playfield-2,x
   7939  454c		       9d 52 10 	      sta	playfield-126,x
   7940  454f		       bd cd 10 	      lda	playfield-3,x
   7941  4552		       9d 51 10 	      sta	playfield-127,x
   7942  4555		       bd cc 10 	      lda	playfield-4,x
   7943  4558		       9d 50 10 	      sta	playfield-128,x
   7944  455b				  -	      else
   7945  455b				  -	      sta	playfield+3,x
   7946  455b				  -	      lda	playfield-2,x
   7947  455b				  -	      sta	playfield+2,x
   7948  455b				  -	      lda	playfield-3,x
   7949  455b				  -	      sta	playfield+1,x
   7950  455b				  -	      lda	playfield-4,x
   7951  455b				  -	      sta	playfield,x
   7952  455b					      endif
   7953  455b		       8a		      txa
   7954  455c		       cb 04		      sbx	#4
   7955  455e		       d0 e3		      bne	down2
   7956  4560
   7957  4560		       a5 9f		      lda	temp4
   7958  4562					      ifconst	superchip
   7959  4562		       8d 53 10 	      sta	playfield-125
   7960  4565		       a5 9e		      lda	temp3
   7961  4567		       8d 52 10 	      sta	playfield-126
   7962  456a		       a5 9d		      lda	temp2
   7963  456c		       8d 51 10 	      sta	playfield-127
   7964  456f		       a5 9c		      lda	temp1
   7965  4571		       8d 50 10 	      sta	playfield-128
   7966  4574				  -	      else
   7967  4574				  -	      sta	playfield+3
   7968  4574				  -	      lda	temp3
   7969  4574				  -	      sta	playfield+2
   7970  4574				  -	      lda	temp2
   7971  4574				  -	      sta	playfield+1
   7972  4574				  -	      lda	temp1
   7973  4574				  -	      sta	playfield
   7974  4574					      endif
   7975  4574				   noshiftdown
      0  4574					      RETURN
      1  4574				  -	      ifnconst	bankswitch
      2  4574				  -	      rts
      3  4574					      else
      4  4574		       4c dd ff 	      jmp	BS_return
      5  4577					      endif
   7977  4577							; Provided under the CC0 license. See the included LICENSE.txt for details.
   7978  4577
   7979  4577							;standard routines needed for pretty much all games
   7980  4577							; just the random number generator is left - maybe we should remove this asm file altogether?
   7981  4577							; repositioning code and score pointer setup moved to overscan
   7982  4577							; read switches, joysticks now compiler generated (more efficient)
   7983  4577
   7984  4577				   randomize
   7985  4577		       a5 a2		      lda	rand
   7986  4579		       4a		      lsr
   7987  457a					      ifconst	rand16
   7988  457a		       26 a4		      rol	rand16
   7989  457c					      endif
   7990  457c		       90 02		      bcc	noeor
   7991  457e		       49 b4		      eor	#$B4
   7992  4580				   noeor
   7993  4580		       85 a2		      sta	rand
   7994  4582					      ifconst	rand16
   7995  4582		       45 a4		      eor	rand16
   7996  4584					      endif
      0  4584					      RETURN
      1  4584				  -	      ifnconst	bankswitch
      2  4584				  -	      rts
      3  4584					      else
      4  4584		       4c dd ff 	      jmp	BS_return
      5  4587					      endif
   7998  4587							; Provided under the CC0 license. See the included LICENSE.txt for details.
   7999  4587
   8000  4587				   drawscreen
   8001  4587				  -	      ifconst	debugscore
   8002  4587				  -	      ldx	#14
   8003  4587				  -	      lda	INTIM	; display # cycles left in the score
   8004  4587				  -
   8005  4587				  -	      ifconst	mincycles
   8006  4587				  -	      lda	mincycles
   8007  4587				  -	      cmp	INTIM
   8008  4587				  -	      lda	mincycles
   8009  4587				  -	      bcc	nochange
   8010  4587				  -	      lda	INTIM
   8011  4587				  -	      sta	mincycles
   8012  4587				  -nochange
   8013  4587				  -	      endif
   8014  4587				  -
   8015  4587				  -			; cmp #$2B
   8016  4587				  -			; bcs no_cycles_left
   8017  4587				  -	      bmi	cycles_left
   8018  4587				  -	      ldx	#64
   8019  4587				  -	      eor	#$ff	;make negative
   8020  4587				  -cycles_left
   8021  4587				  -	      stx	scorecolor
   8022  4587				  -	      and	#$7f	; clear sign bit
   8023  4587				  -	      tax
   8024  4587				  -	      lda	scorebcd,x
   8025  4587				  -	      sta	score+2
   8026  4587				  -	      lda	scorebcd1,x
   8027  4587				  -	      sta	score+1
   8028  4587				  -	      jmp	done_debugscore
   8029  4587				  -scorebcd
   8030  4587				  -	      .byte	$00, $64, $28, $92, $56, $20, $84, $48, $12, $76, $40
   8031  4587				  -	      .byte	$04, $68, $32, $96, $60, $24, $88, $52, $16, $80, $44
   8032  4587				  -	      .byte	$08, $72, $36, $00, $64, $28, $92, $56, $20, $84, $48
   8033  4587				  -	      .byte	$12, $76, $40, $04, $68, $32, $96, $60, $24, $88
   8034  4587				  -scorebcd1
   8035  4587				  -	      .byte	0, 0, 1, 1, 2, 3, 3, 4, 5, 5, 6
   8036  4587				  -	      .byte	7, 7, 8, 8, 9, $10, $10, $11, $12, $12, $13
   8037  4587				  -	      .byte	$14, $14, $15, $16, $16, $17, $17, $18, $19, $19, $20
   8038  4587				  -	      .byte	$21, $21, $22, $23, $23, $24, $24, $25, $26, $26
   8039  4587				  -done_debugscore
   8040  4587					      endif
   8041  4587
   8042  4587				  -	      ifconst	debugcycles
   8043  4587				  -	      lda	INTIM	; if we go over, it mucks up the background color
   8044  4587				  -			; cmp #$2B
   8045  4587				  -			; BCC overscan
   8046  4587				  -	      bmi	overscan
   8047  4587				  -	      sta	COLUBK
   8048  4587				  -	      bcs	doneoverscan
   8049  4587					      endif
   8050  4587
   8051  4587				   overscan
   8052  4587				  -	      ifconst	interlaced
   8053  4587				  -	      PHP
   8054  4587				  -	      PLA
   8055  4587				  -	      EOR	#4	; flip interrupt bit
   8056  4587				  -	      PHA
   8057  4587				  -	      PLP
   8058  4587				  -	      AND	#4	; isolate the interrupt bit
   8059  4587				  -	      TAX		; save it for later
   8060  4587					      endif
   8061  4587
   8062  4587				   overscanloop
   8063  4587		       ad 84 02 	      lda	INTIM	;wait for sync
   8064  458a		       30 fb		      bmi	overscanloop
   8065  458c				   doneoverscan
   8066  458c
   8067  458c							;do VSYNC
   8068  458c
   8069  458c				  -	      ifconst	interlaced
   8070  458c				  -	      CPX	#4
   8071  458c				  -	      BNE	oddframevsync
   8072  458c					      endif
   8073  458c
   8074  458c		       a9 02		      lda	#2
   8075  458e		       85 02		      sta	WSYNC
   8076  4590		       85 00		      sta	VSYNC
   8077  4592		       85 02		      STA	WSYNC
   8078  4594		       85 02		      STA	WSYNC
   8079  4596		       4a		      lsr
   8080  4597		       85 02		      STA	WSYNC
   8081  4599		       85 00		      STA	VSYNC
   8082  459b		       85 01		      sta	VBLANK
   8083  459d					      ifnconst	overscan_time
   8084  459d		       a9 a5		      lda	#37+128
   8085  459f				  -	      else
   8086  459f				  -	      lda	#overscan_time+128
   8087  459f					      endif
   8088  459f		       8d 96 02 	      sta	TIM64T
   8089  45a2
   8090  45a2				  -	      ifconst	interlaced
   8091  45a2				  -	      jmp	postsync
   8092  45a2				  -
   8093  45a2				  -oddframevsync
   8094  45a2				  -	      sta	WSYNC
   8095  45a2				  -
   8096  45a2				  -	      LDA	($80,X)	; 11 waste
   8097  45a2				  -	      LDA	($80,X)	; 11 waste
   8098  45a2				  -	      LDA	($80,X)	; 11 waste
   8099  45a2				  -
   8100  45a2				  -	      lda	#2
   8101  45a2				  -	      sta	VSYNC
   8102  45a2				  -	      sta	WSYNC
   8103  45a2				  -	      sta	WSYNC
   8104  45a2				  -	      sta	WSYNC
   8105  45a2				  -
   8106  45a2				  -	      LDA	($80,X)	; 11 waste
   8107  45a2				  -	      LDA	($80,X)	; 11 waste
   8108  45a2				  -	      LDA	($80,X)	; 11 waste
   8109  45a2				  -
   8110  45a2				  -	      lda	#0
   8111  45a2				  -	      sta	VSYNC
   8112  45a2				  -	      sta	VBLANK
   8113  45a2				  -	      ifnconst	overscan_time
   8114  45a2				  -	      lda	#37+128
   8115  45a2				  -	      else
   8116  45a2				  -	      lda	#overscan_time+128
   8117  45a2				  -	      endif
   8118  45a2				  -	      sta	TIM64T
   8119  45a2				  -
   8120  45a2				  -postsync
   8121  45a2					      endif
   8122  45a2
   8123  45a2				  -	      ifconst	legacy
   8124  45a2				  -	      if	legacy < 100
   8125  45a2				  -	      ldx	#4
   8126  45a2				  -adjustloop
   8127  45a2				  -	      lda	player0x,x
   8128  45a2				  -	      sec
   8129  45a2				  -	      sbc	#14	;?
   8130  45a2				  -	      sta	player0x,x
   8131  45a2				  -	      dex
   8132  45a2				  -	      bpl	adjustloop
   8133  45a2				  -	      endif
   8134  45a2					      endif
   8135  45a2				  -	      if	((<*)>$e9)&&((<*)<$fa)
   8136  45a2				  -	      repeat	($fa-(<*))
   8137  45a2				  -	      nop
   8138  45a2				  -	      repend
   8139  45a2					      endif
   8140  45a2		       85 02		      sta	WSYNC
   8141  45a4		       a2 04		      ldx	#4
      0  45a6					      SLEEP	3
      1  45a6				   .CYCLES    SET	3
      2  45a6
      3  45a6				  -	      IF	.CYCLES < 2
      4  45a6				  -	      ECHO	"MACRO ERROR: 'SLEEP': Duration must be > 1"
      5  45a6				  -	      ERR
      6  45a6					      ENDIF
      7  45a6
      8  45a6					      IF	.CYCLES & 1
      9  45a6					      IFNCONST	NO_ILLEGAL_OPCODES
     10  45a6		       04 00		      nop	0
     11  45a8				  -	      ELSE
     12  45a8				  -	      bit	VSYNC
     13  45a8					      ENDIF
     14  45a8				   .CYCLES    SET	.CYCLES - 3
     15  45a8					      ENDIF
     16  45a8
     17  45a8				  -	      REPEAT	.CYCLES / 2
     18  45a8				  -	      nop
     19  45a8					      REPEND
   8143  45a8				   HorPosLoop		; 5
   8144  45a8		       b5 80		      lda	player0x,X	;+4 9
   8145  45aa		       38		      sec		;+2 11
   8146  45ab				   DivideLoop
   8147  45ab		       e9 0f		      sbc	#15
   8148  45ad		       b0 fc		      bcs	DivideLoop	;+4 15
   8149  45af		       95 9c		      sta	temp1,X	;+4 19
   8150  45b1		       95 10		      sta	RESP0,X	;+4 23
   8151  45b3		       85 02		      sta	WSYNC
   8152  45b5		       ca		      dex
   8153  45b6		       10 f0		      bpl	HorPosLoop	;+5 5
   8154  45b8							; 4
   8155  45b8
   8156  45b8		       a2 04		      ldx	#4
   8157  45ba		       b4 9c		      ldy	temp1,X
   8158  45bc		       b9 18 f5 	      lda	repostable-256,Y
   8159  45bf		       95 20		      sta	HMP0,X	;+14 18
   8160  45c1
   8161  45c1		       ca		      dex
   8162  45c2		       b4 9c		      ldy	temp1,X
   8163  45c4		       b9 18 f5 	      lda	repostable-256,Y
   8164  45c7		       95 20		      sta	HMP0,X	;+14 32
   8165  45c9
   8166  45c9		       ca		      dex
   8167  45ca		       b4 9c		      ldy	temp1,X
   8168  45cc		       b9 18 f5 	      lda	repostable-256,Y
   8169  45cf		       95 20		      sta	HMP0,X	;+14 46
   8170  45d1
   8171  45d1		       ca		      dex
   8172  45d2		       b4 9c		      ldy	temp1,X
   8173  45d4		       b9 18 f5 	      lda	repostable-256,Y
   8174  45d7		       95 20		      sta	HMP0,X	;+14 60
   8175  45d9
   8176  45d9		       ca		      dex
   8177  45da		       b4 9c		      ldy	temp1,X
   8178  45dc		       b9 18 f5 	      lda	repostable-256,Y
   8179  45df		       95 20		      sta	HMP0,X	;+14 74
   8180  45e1
   8181  45e1		       85 02		      sta	WSYNC
   8182  45e3
   8183  45e3		       85 2a		      sta	HMOVE	;+3 3
   8184  45e5
   8185  45e5
   8186  45e5				  -	      ifconst	legacy
   8187  45e5				  -	      if	legacy < 100
   8188  45e5				  -	      ldx	#4
   8189  45e5				  -adjustloop2
   8190  45e5				  -	      lda	player0x,x
   8191  45e5				  -	      clc
   8192  45e5				  -	      adc	#14	;?
   8193  45e5				  -	      sta	player0x,x
   8194  45e5				  -	      dex
   8195  45e5				  -	      bpl	adjustloop2
   8196  45e5				  -	      endif
   8197  45e5					      endif
   8198  45e5
   8199  45e5
   8200  45e5
   8201  45e5
   8202  45e5							;set score pointers
   8203  45e5		       a7 95		      lax	score+2
   8204  45e7		       20 18 f6 	      jsr	scorepointerset
   8205  45ea		       84 9b		      sty	scorepointers+5
   8206  45ec		       86 98		      stx	scorepointers+2
   8207  45ee		       a7 94		      lax	score+1
   8208  45f0		       20 18 f6 	      jsr	scorepointerset
   8209  45f3		       84 9a		      sty	scorepointers+4
   8210  45f5		       86 97		      stx	scorepointers+1
   8211  45f7		       a7 93		      lax	score
   8212  45f9		       20 18 f6 	      jsr	scorepointerset
   8213  45fc		       84 99		      sty	scorepointers+3
   8214  45fe		       86 96		      stx	scorepointers
   8215  4600
   8216  4600				   vblk
   8217  4600							; run possible vblank bB code
   8218  4600				  -	      ifconst	vblank_bB_code
   8219  4600				  -	      jsr	vblank_bB_code
   8220  4600					      endif
   8221  4600				   vblk2
   8222  4600		       ad 84 02 	      LDA	INTIM
   8223  4603		       30 fb		      bmi	vblk2
   8224  4605		       4c 00 f1 	      jmp	kernel
   8225  4608
   8226  4608
   8227  4608		       80 70 60 50*	      .byte.b	$80,$70,$60,$50,$40,$30,$20,$10,$00
   8228  4611		       f0 e0 d0 c0*	      .byte.b	$F0,$E0,$D0,$C0,$B0,$A0,$90
   8229  4618				   repostable
   8230  4618
   8231  4618				   scorepointerset
   8232  4618		       29 0f		      and	#$0F
   8233  461a		       0a		      asl
   8234  461b		       0a		      asl
   8235  461c		       0a		      asl
   8236  461d		       69 74		      adc	#<scoretable
   8237  461f		       a8		      tay
   8238  4620		       8a		      txa
   8239  4621							; and #$F0
   8240  4621							; lsr
   8241  4621		       4b f0		      asr	#$F0
   8242  4623		       69 74		      adc	#<scoretable
   8243  4625		       aa		      tax
   8244  4626		       60		      rts
   8245  4627							;bB.asm
   8246  4627							; bB.asm file is split here
   8247  4627				   .
   8248  4627							;;line 1308;;
   8249  4627
   8250  4627				   .
   8251  4627							;;line 1309;;
   8252  4627
   8253  4627				   .
   8254  4627							;;line 1310;;
   8255  4627
   8256  4627				   .
   8257  4627							;;line 1311;;
   8258  4627
   8259  4627				   .
   8260  4627							;;line 1312;;
   8261  4627
   8262  4627				   .
   8263  4627							;;line 1313;;
   8264  4627
   8265  4627				   .
   8266  4627							;;line 1314;;
   8267  4627
   8268  4627				   .__Title_Setup
   8269  4627							;;line 1315;; __Title_Setup
   8270  4627
   8271  4627				   .L0545		;;line 1316;;	sdata GhostbustersTheme  =  var1
   8272  4627
   8273  4627		       a9 32		      lda	#<GhostbustersTheme_begin
   8274  4629		       85 a5		      sta	var1
   8275  462b		       a9 f6		      lda	#>GhostbustersTheme_begin
   8276  462d		       85 a6		      sta	var1+1
   8277  462f		       4c e7 f8 	      JMP	.skipL0545
   8278  4632				   GhostbustersTheme_begin
   8279  4632		       00 00 00 1e	      .byte.b	0,0,0,30
   8280  4636
   8281  4636		       04 04 0e 07	      .byte.b	4,4,14,7
   8282  463a
   8283  463a		       00 00 00 01	      .byte.b	0,0,0,1
   8284  463e
   8285  463e		       04 04 0e 08	      .byte.b	4,4,14,8
   8286  4642
   8287  4642		       04 04 0b 0f	      .byte.b	4,4,11,15
   8288  4646
   8289  4646		       04 04 0e 0f	      .byte.b	4,4,14,15
   8290  464a
   8291  464a		       04 04 0c 0f	      .byte.b	4,4,12,15
   8292  464e
   8293  464e		       04 04 10 0f	      .byte.b	4,4,16,15
   8294  4652
   8295  4652		       00 00 00 1e	      .byte.b	0,0,0,30
   8296  4656
   8297  4656		       04 04 0e 07	      .byte.b	4,4,14,7
   8298  465a
   8299  465a		       00 00 00 01	      .byte.b	0,0,0,1
   8300  465e
   8301  465e		       04 04 0e 07	      .byte.b	4,4,14,7
   8302  4662
   8303  4662		       00 00 00 01	      .byte.b	0,0,0,1
   8304  4666
   8305  4666		       04 04 0e 07	      .byte.b	4,4,14,7
   8306  466a
   8307  466a		       00 00 00 01	      .byte.b	0,0,0,1
   8308  466e
   8309  466e		       04 04 0e 08	      .byte.b	4,4,14,8
   8310  4672
   8311  4672		       04 04 10 0f	      .byte.b	4,4,16,15
   8312  4676
   8313  4676		       04 04 0e 0f	      .byte.b	4,4,14,15
   8314  467a
   8315  467a		       00 00 00 1e	      .byte.b	0,0,0,30
   8316  467e
   8317  467e		       04 04 0e 07	      .byte.b	4,4,14,7
   8318  4682
   8319  4682		       00 00 00 01	      .byte.b	0,0,0,1
   8320  4686
   8321  4686		       04 04 0e 08	      .byte.b	4,4,14,8
   8322  468a
   8323  468a		       04 04 0b 0f	      .byte.b	4,4,11,15
   8324  468e
   8325  468e		       04 04 0e 0f	      .byte.b	4,4,14,15
   8326  4692
   8327  4692		       04 04 0c 0f	      .byte.b	4,4,12,15
   8328  4696
   8329  4696		       04 04 10 0f	      .byte.b	4,4,16,15
   8330  469a
   8331  469a		       00 00 00 1e	      .byte.b	0,0,0,30
   8332  469e
   8333  469e		       04 04 0e 07	      .byte.b	4,4,14,7
   8334  46a2
   8335  46a2		       00 00 00 01	      .byte.b	0,0,0,1
   8336  46a6
   8337  46a6		       04 04 0e 07	      .byte.b	4,4,14,7
   8338  46aa
   8339  46aa		       00 00 00 01	      .byte.b	0,0,0,1
   8340  46ae
   8341  46ae		       04 04 0e 07	      .byte.b	4,4,14,7
   8342  46b2
   8343  46b2		       00 00 00 01	      .byte.b	0,0,0,1
   8344  46b6
   8345  46b6		       04 04 0e 08	      .byte.b	4,4,14,8
   8346  46ba
   8347  46ba		       04 04 10 0f	      .byte.b	4,4,16,15
   8348  46be
   8349  46be		       04 04 0d 0f	      .byte.b	4,4,13,15
   8350  46c2
   8351  46c2		       04 04 0e 0f	      .byte.b	4,4,14,15
   8352  46c6
   8353  46c6		       00 00 00 0f	      .byte.b	0,0,0,15
   8354  46ca
   8355  46ca		       04 04 0e 07	      .byte.b	4,4,14,7
   8356  46ce
   8357  46ce		       00 00 00 01	      .byte.b	0,0,0,1
   8358  46d2
   8359  46d2		       04 04 0e 08	      .byte.b	4,4,14,8
   8360  46d6
   8361  46d6		       04 04 0c 0f	      .byte.b	4,4,12,15
   8362  46da
   8363  46da		       04 04 0e 0f	      .byte.b	4,4,14,15
   8364  46de
   8365  46de		       04 04 0c 1e	      .byte.b	4,4,12,30
   8366  46e2
   8367  46e2		       00 00 00 1e	      .byte.b	0,0,0,30
   8368  46e6
   8369  46e6		       00 00 00 1e	      .byte.b	0,0,0,30
   8370  46ea
   8371  46ea		       04 04 0e 08	      .byte.b	4,4,14,8
   8372  46ee
   8373  46ee		       04 04 10 08	      .byte.b	4,4,16,8
   8374  46f2
   8375  46f2		       04 04 0e 0e	      .byte.b	4,4,14,14
   8376  46f6
   8377  46f6		       00 00 00 01	      .byte.b	0,0,0,1
   8378  46fa
   8379  46fa		       04 04 0e 0e	      .byte.b	4,4,14,14
   8380  46fe
   8381  46fe		       00 00 00 01	      .byte.b	0,0,0,1
   8382  4702
   8383  4702		       04 04 0e 1e	      .byte.b	4,4,14,30
   8384  4706
   8385  4706		       00 00 00 1e	      .byte.b	0,0,0,30
   8386  470a
   8387  470a		       00 00 00 1e	      .byte.b	0,0,0,30
   8388  470e
   8389  470e		       04 04 0b 08	      .byte.b	4,4,11,8
   8390  4712
   8391  4712		       04 04 0e 07	      .byte.b	4,4,14,7
   8392  4716
   8393  4716		       00 00 00 01	      .byte.b	0,0,0,1
   8394  471a
   8395  471a		       04 04 0e 07	      .byte.b	4,4,14,7
   8396  471e
   8397  471e		       00 00 00 01	      .byte.b	0,0,0,1
   8398  4722
   8399  4722		       04 04 0e 07	      .byte.b	4,4,14,7
   8400  4726
   8401  4726		       00 00 00 01	      .byte.b	0,0,0,1
   8402  472a
   8403  472a		       04 04 0e 1e	      .byte.b	4,4,14,30
   8404  472e
   8405  472e		       00 00 00 1e	      .byte.b	0,0,0,30
   8406  4732
   8407  4732		       04 04 0a 1d	      .byte.b	4,4,10,29
   8408  4736
   8409  4736		       00 00 00 01	      .byte.b	0,0,0,1
   8410  473a
   8411  473a		       04 04 0a 1d	      .byte.b	4,4,10,29
   8412  473e
   8413  473e		       00 00 00 01	      .byte.b	0,0,0,1
   8414  4742
   8415  4742		       04 04 0a 0f	      .byte.b	4,4,10,15
   8416  4746
   8417  4746		       04 04 00 1e	      .byte.b	4,4,0,30
   8418  474a
   8419  474a		       04 04 00 1e	      .byte.b	4,4,0,30
   8420  474e
   8421  474e		       04 04 00 0f	      .byte.b	4,4,0,15
   8422  4752
   8423  4752		       04 04 0e 07	      .byte.b	4,4,14,7
   8424  4756
   8425  4756		       00 00 00 01	      .byte.b	0,0,0,1
   8426  475a
   8427  475a		       04 04 0e 08	      .byte.b	4,4,14,8
   8428  475e
   8429  475e		       04 04 0c 0f	      .byte.b	4,4,12,15
   8430  4762
   8431  4762		       04 04 0e 0f	      .byte.b	4,4,14,15
   8432  4766
   8433  4766		       04 04 0c 1e	      .byte.b	4,4,12,30
   8434  476a
   8435  476a		       00 00 00 1e	      .byte.b	0,0,0,30
   8436  476e
   8437  476e		       00 00 00 1e	      .byte.b	0,0,0,30
   8438  4772
   8439  4772		       04 04 0e 08	      .byte.b	4,4,14,8
   8440  4776
   8441  4776		       04 04 10 08	      .byte.b	4,4,16,8
   8442  477a
   8443  477a		       04 04 0e 0e	      .byte.b	4,4,14,14
   8444  477e
   8445  477e		       00 00 00 01	      .byte.b	0,0,0,1
   8446  4782
   8447  4782		       04 04 0e 0e	      .byte.b	4,4,14,14
   8448  4786
   8449  4786		       00 00 00 01	      .byte.b	0,0,0,1
   8450  478a
   8451  478a		       04 04 0e 1e	      .byte.b	4,4,14,30
   8452  478e
   8453  478e		       00 00 00 1e	      .byte.b	0,0,0,30
   8454  4792
   8455  4792		       00 00 00 1e	      .byte.b	0,0,0,30
   8456  4796
   8457  4796		       04 04 0b 08	      .byte.b	4,4,11,8
   8458  479a
   8459  479a		       04 04 0e 07	      .byte.b	4,4,14,7
   8460  479e
   8461  479e		       00 00 00 01	      .byte.b	0,0,0,1
   8462  47a2
   8463  47a2		       04 04 0e 07	      .byte.b	4,4,14,7
   8464  47a6
   8465  47a6		       00 00 00 01	      .byte.b	0,0,0,1
   8466  47aa
   8467  47aa		       04 04 0e 07	      .byte.b	4,4,14,7
   8468  47ae
   8469  47ae		       00 00 00 01	      .byte.b	0,0,0,1
   8470  47b2
   8471  47b2		       04 04 0e 1e	      .byte.b	4,4,14,30
   8472  47b6
   8473  47b6		       00 00 00 1e	      .byte.b	0,0,0,30
   8474  47ba
   8475  47ba		       04 04 0a 1d	      .byte.b	4,4,10,29
   8476  47be
   8477  47be		       00 00 00 01	      .byte.b	0,0,0,1
   8478  47c2
   8479  47c2		       04 04 0a 1d	      .byte.b	4,4,10,29
   8480  47c6
   8481  47c6		       00 00 00 01	      .byte.b	0,0,0,1
   8482  47ca
   8483  47ca		       04 04 0a 0f	      .byte.b	4,4,10,15
   8484  47ce
   8485  47ce		       04 04 00 1e	      .byte.b	4,4,0,30
   8486  47d2
   8487  47d2		       04 04 00 1e	      .byte.b	4,4,0,30
   8488  47d6
   8489  47d6		       04 04 00 0f	      .byte.b	4,4,0,15
   8490  47da
   8491  47da		       04 04 0c 0f	      .byte.b	4,4,12,15
   8492  47de
   8493  47de		       04 04 0e 0f	      .byte.b	4,4,14,15
   8494  47e2
   8495  47e2		       00 00 00 0f	      .byte.b	0,0,0,15
   8496  47e6
   8497  47e6		       04 04 0c 0f	      .byte.b	4,4,12,15
   8498  47ea
   8499  47ea		       04 04 0c 0f	      .byte.b	4,4,12,15
   8500  47ee
   8501  47ee		       04 04 0e 0f	      .byte.b	4,4,14,15
   8502  47f2
   8503  47f2		       04 04 0c 0f	      .byte.b	4,4,12,15
   8504  47f6
   8505  47f6		       04 04 0e 0f	      .byte.b	4,4,14,15
   8506  47fa
   8507  47fa		       00 00 00 0f	      .byte.b	0,0,0,15
   8508  47fe
   8509  47fe		       04 04 0c 0f	      .byte.b	4,4,12,15
   8510  4802
   8511  4802		       04 04 0c 0f	      .byte.b	4,4,12,15
   8512  4806
   8513  4806		       04 04 0e 0f	      .byte.b	4,4,14,15
   8514  480a
   8515  480a		       04 04 0c 0f	      .byte.b	4,4,12,15
   8516  480e
   8517  480e		       04 04 0e 0f	      .byte.b	4,4,14,15
   8518  4812
   8519  4812		       04 04 0c 08	      .byte.b	4,4,12,8
   8520  4816
   8521  4816		       04 04 0d 08	      .byte.b	4,4,13,8
   8522  481a
   8523  481a		       04 04 0e 0f	      .byte.b	4,4,14,15
   8524  481e
   8525  481e		       00 00 00 01	      .byte.b	0,0,0,1
   8526  4822
   8527  4822		       04 04 0c 0f	      .byte.b	4,4,12,15
   8528  4826
   8529  4826		       04 04 0e 0f	      .byte.b	4,4,14,15
   8530  482a
   8531  482a		       00 00 00 0f	      .byte.b	0,0,0,15
   8532  482e
   8533  482e		       04 04 0c 0f	      .byte.b	4,4,12,15
   8534  4832
   8535  4832		       04 04 0c 0f	      .byte.b	4,4,12,15
   8536  4836
   8537  4836		       04 04 0e 0f	      .byte.b	4,4,14,15
   8538  483a
   8539  483a		       04 04 0c 0f	      .byte.b	4,4,12,15
   8540  483e
   8541  483e		       04 04 0e 0f	      .byte.b	4,4,14,15
   8542  4842
   8543  4842		       00 00 00 0f	      .byte.b	0,0,0,15
   8544  4846
   8545  4846		       04 04 0c 0f	      .byte.b	4,4,12,15
   8546  484a
   8547  484a		       04 04 0c 0f	      .byte.b	4,4,12,15
   8548  484e
   8549  484e		       04 04 0e 0f	      .byte.b	4,4,14,15
   8550  4852
   8551  4852		       04 04 0c 0f	      .byte.b	4,4,12,15
   8552  4856
   8553  4856		       04 04 0e 0f	      .byte.b	4,4,14,15
   8554  485a
   8555  485a		       04 04 0c 08	      .byte.b	4,4,12,8
   8556  485e
   8557  485e		       04 04 0d 08	      .byte.b	4,4,13,8
   8558  4862
   8559  4862		       04 04 0e 0f	      .byte.b	4,4,14,15
   8560  4866
   8561  4866		       00 00 00 01	      .byte.b	0,0,0,1
   8562  486a
   8563  486a		       04 04 0c 0f	      .byte.b	4,4,12,15
   8564  486e
   8565  486e		       04 04 0e 0f	      .byte.b	4,4,14,15
   8566  4872
   8567  4872		       00 00 00 0f	      .byte.b	0,0,0,15
   8568  4876
   8569  4876		       04 04 0c 0f	      .byte.b	4,4,12,15
   8570  487a
   8571  487a		       04 04 0c 0f	      .byte.b	4,4,12,15
   8572  487e
   8573  487e		       04 04 0e 0f	      .byte.b	4,4,14,15
   8574  4882
   8575  4882		       04 04 0c 0f	      .byte.b	4,4,12,15
   8576  4886
   8577  4886		       04 04 0e 0f	      .byte.b	4,4,14,15
   8578  488a
   8579  488a		       00 00 00 0f	      .byte.b	0,0,0,15
   8580  488e
   8581  488e		       04 04 0c 0f	      .byte.b	4,4,12,15
   8582  4892
   8583  4892		       04 04 0c 0f	      .byte.b	4,4,12,15
   8584  4896
   8585  4896		       04 04 0e 0f	      .byte.b	4,4,14,15
   8586  489a
   8587  489a		       04 04 0c 0f	      .byte.b	4,4,12,15
   8588  489e
   8589  489e		       04 04 0e 0f	      .byte.b	4,4,14,15
   8590  48a2
   8591  48a2		       04 04 0c 08	      .byte.b	4,4,12,8
   8592  48a6
   8593  48a6		       04 04 0d 08	      .byte.b	4,4,13,8
   8594  48aa
   8595  48aa		       04 04 0e 0f	      .byte.b	4,4,14,15
   8596  48ae
   8597  48ae		       04 04 0c 0f	      .byte.b	4,4,12,15
   8598  48b2
   8599  48b2		       04 04 0e 0f	      .byte.b	4,4,14,15
   8600  48b6
   8601  48b6		       00 00 00 0f	      .byte.b	0,0,0,15
   8602  48ba
   8603  48ba		       04 04 0c 0f	      .byte.b	4,4,12,15
   8604  48be
   8605  48be		       04 04 0c 0f	      .byte.b	4,4,12,15
   8606  48c2
   8607  48c2		       04 04 0e 0f	      .byte.b	4,4,14,15
   8608  48c6
   8609  48c6		       04 04 0c 0f	      .byte.b	4,4,12,15
   8610  48ca
   8611  48ca		       04 04 0e 0f	      .byte.b	4,4,14,15
   8612  48ce
   8613  48ce		       00 00 00 0f	      .byte.b	0,0,0,15
   8614  48d2
   8615  48d2		       04 04 0c 0f	      .byte.b	4,4,12,15
   8616  48d6
   8617  48d6		       04 04 0c 0f	      .byte.b	4,4,12,15
   8618  48da
   8619  48da		       04 04 0e 0f	      .byte.b	4,4,14,15
   8620  48de
   8621  48de		       04 04 0a 1e	      .byte.b	4,4,10,30
   8622  48e2
   8623  48e2		       00 00 00 3c	      .byte.b	0,0,0,60
   8624  48e6
   8625  48e6		       ff		      .byte.b	255
   8626  48e7
   8627  48e7				   .skipL0545
   8628  48e7				   .
   8629  48e7							;;line 1492;;
   8630  48e7
   8631  48e7				   .
   8632  48e7							;;line 1493;;
   8633  48e7
   8634  48e7				   .
   8635  48e7							;;line 1494;;
   8636  48e7
   8637  48e7				   .
   8638  48e7							;;line 1495;;
   8639  48e7
   8640  48e7				   .
   8641  48e7							;;line 1496;;
   8642  48e7
   8643  48e7				   .__Game_Credits
   8644  48e7							;;line 1497;; __Game_Credits
   8645  48e7
   8646  48e7				   .L0546		;;line 1498;;	pfheights:
   8647  48e7
   8648  48e7		       a9 08		      lda	# 8
   8649  48e9		       85 ef		      sta	playfieldpos
   8650  48eb				  -	      ifconst	pfres
   8651  48eb				  -	      lda	#>(pfcolorlabel177-pfres-9)
   8652  48eb					      else
   8653  48eb		       a9 fc		      lda	#>(pfcolorlabel177-21)
   8654  48ed					      endif
   8655  48ed		       85 f1		      sta	pfcolortable+1
   8656  48ef				  -	      ifconst	pfres
   8657  48ef				  -	      lda	#<(pfcolorlabel177-pfres-9)
   8658  48ef					      else
   8659  48ef		       a9 00		      lda	#<(pfcolorlabel177-21)
   8660  48f1					      endif
   8661  48f1		       85 f0		      sta	pfcolortable
   8662  48f3				   .L0547		;;line 1511;;	pfscorecolor = $00
   8663  48f3
   8664  48f3		       a9 00		      LDA	#$00
   8665  48f5		       85 f4		      STA	pfscorecolor
   8666  48f7				   .L0548		;;line 1512;;	scorecolor = $00
   8667  48f7
   8668  48f7		       a9 00		      LDA	#$00
   8669  48f9		       85 a3		      STA	scorecolor
   8670  48fb				   .
   8671  48fb							;;line 1513;;
   8672  48fb
   8673  48fb				   .L0549		;;line 1514;;	_Game_Timer = _Game_Timer  +  1
   8674  48fb
   8675  48fb		       e6 b4		      INC	_Game_Timer
   8676  48fd				   .L0550		;;line 1515;;	if _Game_Timer	>  240 then goto __Title_Loop
   8677  48fd
   8678  48fd		       a9 f0		      LDA	#240
   8679  48ff		       c5 b4		      CMP	_Game_Timer
   8680  4901		       b0 03		      BCS	.skipL0550
   8681  4903				   .condpart196
   8682  4903		       4c 79 f9 	      jmp	.__Title_Loop
   8683  4906
   8684  4906				   .skipL0550
   8685  4906				   .
   8686  4906							;;line 1516;;
   8687  4906
   8688  4906				   .L0551		;;line 1517;;	gosub __Credits_Screen
   8689  4906
   8690  4906		       20 2a f9 	      jsr	.__Credits_Screen
   8691  4909
   8692  4909				   .L0552		;;line 1518;;	gosub __Play_Theme
   8693  4909
   8694  4909		       20 0d fa 	      jsr	.__Play_Theme
   8695  490c
   8696  490c				   .
   8697  490c							;;line 1519;;
   8698  490c
   8699  490c				   .L0553		;;line 1520;;	drawscreen
   8700  490c
   8701  490c		       20 87 f5 	      jsr	drawscreen
   8702  490f				   .
   8703  490f							;;line 1521;;
   8704  490f
   8705  490f				   .L0554		;;line 1522;;	if joy0fire then goto __End_Title
   8706  490f
   8707  490f		       24 0c		      bit	INPT4
   8708  4911		       30 03		      BMI	.skipL0554
   8709  4913				   .condpart197
   8710  4913		       4c 88 fb 	      jmp	.__End_Title
   8711  4916
   8712  4916				   .skipL0554
   8713  4916				   .L0555		;;line 1523;;	if _GB_Vol = 255 then goto __End_Title
   8714  4916
   8715  4916		       a5 b9		      LDA	_GB_Vol
   8716  4918		       c9 ff		      CMP	#255
   8717  491a		       d0 03		      BNE	.skipL0555
   8718  491c				   .condpart198
   8719  491c		       4c 88 fb 	      jmp	.__End_Title
   8720  491f
   8721  491f				   .skipL0555
   8722  491f				   .
   8723  491f							;;line 1524;;
   8724  491f
   8725  491f				   .L0556		;;line 1525;;	_Ghost_x = 0
   8726  491f
   8727  491f		       a9 00		      LDA	#0
   8728  4921		       85 af		      STA	_Ghost_x
   8729  4923				   .L0557		;;line 1526;;	_Ghost_Direction = 1
   8730  4923
   8731  4923		       a9 01		      LDA	#1
   8732  4925		       85 b2		      STA	_Ghost_Direction
   8733  4927				   .
   8734  4927							;;line 1527;;
   8735  4927
   8736  4927				   .L0558		;;line 1528;;	goto __Game_Credits
   8737  4927
   8738  4927		       4c e7 f8 	      jmp	.__Game_Credits
   8739  492a
   8740  492a				   .
   8741  492a							;;line 1529;;
   8742  492a
   8743  492a				   .__Credits_Screen
   8744  492a							;;line 1530;; __Credits_Screen
   8745  492a
   8746  492a				   .L0559		;;line 1531;;	playfield:
   8747  492a
   8748  492a				  -	      ifconst	pfres
   8749  492a				  -	      ldx	#(11>pfres)*(pfres*pfwidth-1)+(11<=pfres)*43
   8750  492a					      else
   8751  492a		       a2 2b		      ldx	#((11*pfwidth-1)*((11*pfwidth-1)<47))+(47*((11*pfwidth-1)>=47))
   8752  492c					      endif
   8753  492c		       4c 5b f9 	      jmp	pflabel13
   8754  492f				   PF_data13
   8755  492f		       00 00		      .byte.b	%00000000, %00000000
   8756  4931					      if	(pfwidth>2)
   8757  4931		       00 00		      .byte.b	%00000000, %00000000
   8758  4933					      endif
   8759  4933		       00 36		      .byte.b	%00000000, %00110110
   8760  4935					      if	(pfwidth>2)
   8761  4935		       a4 00		      .byte.b	%10100100, %00000000
   8762  4937					      endif
   8763  4937		       00 71		      .byte.b	%00000000, %01110001
   8764  4939					      if	(pfwidth>2)
   8765  4939		       aa 00		      .byte.b	%10101010, %00000000
   8766  493b					      endif
   8767  493b		       00 55		      .byte.b	%00000000, %01010101
   8768  493d					      if	(pfwidth>2)
   8769  493d		       ae 00		      .byte.b	%10101110, %00000000
   8770  493f					      endif
   8771  493f		       00 76		      .byte.b	%00000000, %01110110
   8772  4941					      if	(pfwidth>2)
   8773  4941		       4a 00		      .byte.b	%01001010, %00000000
   8774  4943					      endif
   8775  4943		       00 00		      .byte.b	%00000000, %00000000
   8776  4945					      if	(pfwidth>2)
   8777  4945		       00 00		      .byte.b	%00000000, %00000000
   8778  4947					      endif
   8779  4947		       60 00		      .byte.b	%01100000, %00000000
   8780  4949					      if	(pfwidth>2)
   8781  4949		       00 02		      .byte.b	%00000000, %00000010
   8782  494b					      endif
   8783  494b		       56 67		      .byte.b	%01010110, %01100111
   8784  494d					      if	(pfwidth>2)
   8785  494d		       ec 67		      .byte.b	%11101100, %01100111
   8786  494f					      endif
   8787  494f		       64 23		      .byte.b	%01100100, %00100011
   8788  4951					      if	(pfwidth>2)
   8789  4951		       ca 22		      .byte.b	%11001010, %00100010
   8790  4953					      endif
   8791  4953		       44 37		      .byte.b	%01000100, %00110111
   8792  4955					      if	(pfwidth>2)
   8793  4955		       ea 32		      .byte.b	%11101010, %00110010
   8794  4957					      endif
   8795  4957		       00 00		      .byte.b	%00000000, %00000000
   8796  4959					      if	(pfwidth>2)
   8797  4959		       00 00		      .byte.b	%00000000, %00000000
   8798  495b					      endif
   8799  495b				   pflabel13
   8800  495b		       bd 2f f9 	      lda	PF_data13,x
   8801  495e		       9d 50 10 	      sta	playfield-128,x
   8802  4961		       ca		      dex
   8803  4962		       10 f7		      bpl	pflabel13
   8804  4964				   .L0560		;;line 1544;;	COLUBK = $00
   8805  4964
   8806  4964		       a9 00		      LDA	#$00
   8807  4966		       85 09		      STA	COLUBK
   8808  4968				   .L0561		;;line 1545;;	COLUPF = $86
   8809  4968
   8810  4968		       a9 86		      LDA	#$86
   8811  496a		       85 08		      STA	COLUPF
   8812  496c				   .L0562		;;line 1546;;	return
   8813  496c
   8814  496c		       ba		      tsx
   8815  496d		       b5 02		      lda	2,x	; check return address
   8816  496f		       49 f9		      eor	#(>*)	; vs. current PCH
   8817  4971		       29 e0		      and	#$E0	;  mask off all but top 3 bits
   8818  4973		       f0 03		      beq	*+5	; if equal, do normal return
   8819  4975		       4c dd ff 	      JMP	BS_return
   8820  4978		       60		      RTS
   8821  4979				   .
   8822  4979							;;line 1547;;
   8823  4979
   8824  4979				   .
   8825  4979							;;line 1548;;
   8826  4979
   8827  4979				   .
   8828  4979							;;line 1549;;
   8829  4979
   8830  4979				   .
   8831  4979							;;line 1550;;
   8832  4979
   8833  4979				   .
   8834  4979							;;line 1551;;
   8835  4979
   8836  4979				   .__Title_Loop
   8837  4979							;;line 1552;; __Title_Loop
   8838  4979
   8839  4979				   .L0563		;;line 1553;;	pfheights:
   8840  4979
   8841  4979		       a9 08		      lda	# 8
   8842  497b		       85 ef		      sta	playfieldpos
   8843  497d				  -	      ifconst	pfres
   8844  497d				  -	      lda	#>(pfcolorlabel206-pfres-9)
   8845  497d					      else
   8846  497d		       a9 fc		      lda	#>(pfcolorlabel206-21)
   8847  497f					      endif
   8848  497f		       85 f1		      sta	pfcolortable+1
   8849  4981				  -	      ifconst	pfres
   8850  4981				  -	      lda	#<(pfcolorlabel206-pfres-9)
   8851  4981					      else
   8852  4981		       a9 0a		      lda	#<(pfcolorlabel206-21)
   8853  4983					      endif
   8854  4983		       85 f0		      sta	pfcolortable
   8855  4985				   .L0564		;;line 1566;;	pfscorecolor = $02
   8856  4985
   8857  4985		       a9 02		      LDA	#$02
   8858  4987		       85 f4		      STA	pfscorecolor
   8859  4989				   .L0565		;;line 1567;;	scorecolor = $02
   8860  4989
   8861  4989		       a9 02		      LDA	#$02
   8862  498b		       85 a3		      STA	scorecolor
   8863  498d				   .L0566		;;line 1568;;	COLUP0 = $0E
   8864  498d
   8865  498d		       a9 0e		      LDA	#$0E
   8866  498f		       85 06		      STA	COLUP0
   8867  4991				   .
   8868  4991							;;line 1569;;
   8869  4991
   8870  4991				   .L0567		;;line 1570;;	gosub __Title_Screen
   8871  4991
   8872  4991		       20 be f9 	      jsr	.__Title_Screen
   8873  4994
   8874  4994				   .
   8875  4994							;;line 1571;;
   8876  4994
   8877  4994				   .L0568		;;line 1572;;	gosub __Play_Theme
   8878  4994
   8879  4994		       20 0d fa 	      jsr	.__Play_Theme
   8880  4997
   8881  4997				   .
   8882  4997							;;line 1573;;
   8883  4997
   8884  4997				   .L0569		;;line 1574;;	_frame = _frame  +  1
   8885  4997
   8886  4997		       e6 bd		      INC	_frame
   8887  4999				   .
   8888  4999							;;line 1575;;
   8889  4999
   8890  4999				   .L0570		;;line 1576;;	if  ( _Ghost_Direction	&  1 )	then gosub __Left_to_Right else gosub __Right_to_Left
   8891  4999
   8892  4999							; complex statement detected
   8893  4999		       a5 b2		      LDA	_Ghost_Direction
   8894  499b		       29 01		      AND	#1
   8895  499d		       f0 06		      BEQ	.skipL0570
   8896  499f				   .condpart199
   8897  499f		       20 7e fa 	      jsr	.__Left_to_Right
   8898  49a2		       4c a8 f9 	      jmp	.skipelse14
   8899  49a5				   .skipL0570
   8900  49a5		       20 00 fb 	      jsr	.__Right_to_Left
   8901  49a8
   8902  49a8				   .skipelse14
   8903  49a8				   .
   8904  49a8							;;line 1577;;
   8905  49a8
   8906  49a8				   .L0571		;;line 1578;;	drawscreen
   8907  49a8
   8908  49a8		       20 87 f5 	      jsr	drawscreen
   8909  49ab				   .
   8910  49ab							;;line 1579;;
   8911  49ab
   8912  49ab				   .L0572		;;line 1580;;	if joy0fire then goto __End_Title
   8913  49ab
   8914  49ab		       24 0c		      bit	INPT4
   8915  49ad		       30 03		      BMI	.skipL0572
   8916  49af				   .condpart200
   8917  49af		       4c 88 fb 	      jmp	.__End_Title
   8918  49b2
   8919  49b2				   .skipL0572
   8920  49b2				   .L0573		;;line 1581;;	if _GB_Vol = 255 then goto __End_Title
   8921  49b2
   8922  49b2		       a5 b9		      LDA	_GB_Vol
   8923  49b4		       c9 ff		      CMP	#255
   8924  49b6		       d0 03		      BNE	.skipL0573
   8925  49b8				   .condpart201
   8926  49b8		       4c 88 fb 	      jmp	.__End_Title
   8927  49bb
   8928  49bb				   .skipL0573
   8929  49bb				   .
   8930  49bb							;;line 1582;;
   8931  49bb
   8932  49bb				   .L0574		;;line 1583;;	goto __Title_Loop
   8933  49bb
   8934  49bb		       4c 79 f9 	      jmp	.__Title_Loop
   8935  49be
   8936  49be				   .
   8937  49be							;;line 1584;;
   8938  49be
   8939  49be				   .__Title_Screen
   8940  49be							;;line 1585;; __Title_Screen
   8941  49be
   8942  49be				   .L0575		;;line 1586;;	playfield:
   8943  49be
   8944  49be				  -	      ifconst	pfres
   8945  49be				  -	      ldx	#(11>pfres)*(pfres*pfwidth-1)+(11<=pfres)*43
   8946  49be					      else
   8947  49be		       a2 2b		      ldx	#((11*pfwidth-1)*((11*pfwidth-1)<47))+(47*((11*pfwidth-1)>=47))
   8948  49c0					      endif
   8949  49c0		       4c ef f9 	      jmp	pflabel14
   8950  49c3				   PF_data14
   8951  49c3		       00 00		      .byte.b	%00000000, %00000000
   8952  49c5					      if	(pfwidth>2)
   8953  49c5		       00 00		      .byte.b	%00000000, %00000000
   8954  49c7					      endif
   8955  49c7		       f8 0c		      .byte.b	%11111000, %00001100
   8956  49c9					      if	(pfwidth>2)
   8957  49c9		       c1 1f		      .byte.b	%11000001, %00011111
   8958  49cb					      endif
   8959  49cb		       c6 8c		      .byte.b	%11000110, %10001100
   8960  49cd					      if	(pfwidth>2)
   8961  49cd		       81 01		      .byte.b	%10000001, %00000001
   8962  49cf					      endif
   8963  49cf		       c6 cc		      .byte.b	%11000110, %11001100
   8964  49d1					      if	(pfwidth>2)
   8965  49d1		       01 01		      .byte.b	%00000001, %00000001
   8966  49d3					      endif
   8967  49d3		       f8 3c		      .byte.b	%11111000, %00111100
   8968  49d5					      if	(pfwidth>2)
   8969  49d5		       01 07		      .byte.b	%00000001, %00000111
   8970  49d7					      endif
   8971  49d7		       c0 cc		      .byte.b	%11000000, %11001100
   8972  49d9					      if	(pfwidth>2)
   8973  49d9		       01 01		      .byte.b	%00000001, %00000001
   8974  49db					      endif
   8975  49db		       c0 8c		      .byte.b	%11000000, %10001100
   8976  49dd					      if	(pfwidth>2)
   8977  49dd		       81 01		      .byte.b	%10000001, %00000001
   8978  49df					      endif
   8979  49df		       c2 0c		      .byte.b	%11000010, %00001100
   8980  49e1					      if	(pfwidth>2)
   8981  49e1		       c9 5f		      .byte.b	%11001001, %01011111
   8982  49e3					      endif
   8983  49e3		       00 00		      .byte.b	%00000000, %00000000
   8984  49e5					      if	(pfwidth>2)
   8985  49e5		       00 00		      .byte.b	%00000000, %00000000
   8986  49e7					      endif
   8987  49e7		       00 00		      .byte.b	%00000000, %00000000
   8988  49e9					      if	(pfwidth>2)
   8989  49e9		       00 00		      .byte.b	%00000000, %00000000
   8990  49eb					      endif
   8991  49eb		       00 00		      .byte.b	%00000000, %00000000
   8992  49ed					      if	(pfwidth>2)
   8993  49ed		       00 00		      .byte.b	%00000000, %00000000
   8994  49ef					      endif
   8995  49ef				   pflabel14
   8996  49ef		       bd c3 f9 	      lda	PF_data14,x
   8997  49f2		       9d 50 10 	      sta	playfield-128,x
   8998  49f5		       ca		      dex
   8999  49f6		       10 f7		      bpl	pflabel14
   9000  49f8				   .L0576		;;line 1599;;	COLUBK = $02
   9001  49f8
   9002  49f8		       a9 02		      LDA	#$02
   9003  49fa		       85 09		      STA	COLUBK
   9004  49fc				   .L0577		;;line 1600;;	COLUPF = $46
   9005  49fc
   9006  49fc		       a9 46		      LDA	#$46
   9007  49fe		       85 08		      STA	COLUPF
   9008  4a00				   .L0578		;;line 1601;;	return
   9009  4a00
   9010  4a00		       ba		      tsx
   9011  4a01		       b5 02		      lda	2,x	; check return address
   9012  4a03		       49 fa		      eor	#(>*)	; vs. current PCH
   9013  4a05		       29 e0		      and	#$E0	;  mask off all but top 3 bits
   9014  4a07		       f0 03		      beq	*+5	; if equal, do normal return
   9015  4a09		       4c dd ff 	      JMP	BS_return
   9016  4a0c		       60		      RTS
   9017  4a0d				   .
   9018  4a0d							;;line 1602;;
   9019  4a0d
   9020  4a0d				   .__Play_Theme
   9021  4a0d							;;line 1603;; __Play_Theme
   9022  4a0d
   9023  4a0d				   .L0579		;;line 1604;;	_GB_Dur = _GB_Dur  -  1
   9024  4a0d
   9025  4a0d		       c6 bc		      DEC	_GB_Dur
   9026  4a0f				   .L0580		;;line 1605;;	if _GB_Dur  >  0 then return
   9027  4a0f
   9028  4a0f		       a9 00		      LDA	#0
   9029  4a11		       c5 bc		      CMP	_GB_Dur
   9030  4a13		       b0 0d		      BCS	.skipL0580
   9031  4a15				   .condpart202
   9032  4a15		       ba		      tsx
   9033  4a16		       b5 02		      lda	2,x	; check return address
   9034  4a18		       49 fa		      eor	#(>*)	; vs. current PCH
   9035  4a1a		       29 e0		      and	#$E0	;  mask off all but top 3 bits
   9036  4a1c		       f0 03		      beq	*+5	; if equal, do normal return
   9037  4a1e		       4c dd ff 	      JMP	BS_return
   9038  4a21		       60		      RTS
   9039  4a22				   .skipL0580
   9040  4a22				   .
   9041  4a22							;;line 1606;;
   9042  4a22
   9043  4a22				   .L0581		;;line 1607;;	_GB_Vol = sread ( GhostbustersTheme )
   9044  4a22
   9045  4a22		       a2 a5		      ldx	#GhostbustersTheme
   9046  4a24		       a1 00		      lda	(0,x)
   9047  4a26		       f6 00		      inc	0,x
   9048  4a28		       d0 02		      bne	*+4
   9049  4a2a		       f6 01		      inc	1,x
   9050  4a2c		       85 b9		      STA	_GB_Vol
   9051  4a2e				   .L0582		;;line 1608;;	if _GB_Vol = 255 then return
   9052  4a2e
   9053  4a2e		       a5 b9		      LDA	_GB_Vol
   9054  4a30		       c9 ff		      CMP	#255
   9055  4a32		       d0 0d		      BNE	.skipL0582
   9056  4a34				   .condpart203
   9057  4a34		       ba		      tsx
   9058  4a35		       b5 02		      lda	2,x	; check return address
   9059  4a37		       49 fa		      eor	#(>*)	; vs. current PCH
   9060  4a39		       29 e0		      and	#$E0	;  mask off all but top 3 bits
   9061  4a3b		       f0 03		      beq	*+5	; if equal, do normal return
   9062  4a3d		       4c dd ff 	      JMP	BS_return
   9063  4a40		       60		      RTS
   9064  4a41				   .skipL0582
   9065  4a41				   .L0583		;;line 1609;;	_GB_Ch = sread ( GhostbustersTheme )
   9066  4a41
   9067  4a41		       a2 a5		      ldx	#GhostbustersTheme
   9068  4a43		       a1 00		      lda	(0,x)
   9069  4a45		       f6 00		      inc	0,x
   9070  4a47		       d0 02		      bne	*+4
   9071  4a49		       f6 01		      inc	1,x
   9072  4a4b		       85 ba		      STA	_GB_Ch
   9073  4a4d				   .L0584		;;line 1610;;	_GB_Frq = sread ( GhostbustersTheme )
   9074  4a4d
   9075  4a4d		       a2 a5		      ldx	#GhostbustersTheme
   9076  4a4f		       a1 00		      lda	(0,x)
   9077  4a51		       f6 00		      inc	0,x
   9078  4a53		       d0 02		      bne	*+4
   9079  4a55		       f6 01		      inc	1,x
   9080  4a57		       85 bb		      STA	_GB_Frq
   9081  4a59				   .
   9082  4a59							;;line 1611;;
   9083  4a59
   9084  4a59				   .L0585		;;line 1612;;	AUDV0 = _GB_Vol
   9085  4a59
   9086  4a59		       a5 b9		      LDA	_GB_Vol
   9087  4a5b		       85 19		      STA	AUDV0
   9088  4a5d				   .L0586		;;line 1613;;	AUDC0 = _GB_Ch
   9089  4a5d
   9090  4a5d		       a5 ba		      LDA	_GB_Ch
   9091  4a5f		       85 15		      STA	AUDC0
   9092  4a61				   .L0587		;;line 1614;;	AUDF0 = _GB_Frq
   9093  4a61
   9094  4a61		       a5 bb		      LDA	_GB_Frq
   9095  4a63		       85 17		      STA	AUDF0
   9096  4a65				   .
   9097  4a65							;;line 1615;;
   9098  4a65
   9099  4a65				   .L0588		;;line 1616;;	_GB_Dur = sread ( GhostbustersTheme )
   9100  4a65
   9101  4a65		       a2 a5		      ldx	#GhostbustersTheme
   9102  4a67		       a1 00		      lda	(0,x)
   9103  4a69		       f6 00		      inc	0,x
   9104  4a6b		       d0 02		      bne	*+4
   9105  4a6d		       f6 01		      inc	1,x
   9106  4a6f		       85 bc		      STA	_GB_Dur
   9107  4a71				   .L0589		;;line 1617;;	return
   9108  4a71
   9109  4a71		       ba		      tsx
   9110  4a72		       b5 02		      lda	2,x	; check return address
   9111  4a74		       49 fa		      eor	#(>*)	; vs. current PCH
   9112  4a76		       29 e0		      and	#$E0	;  mask off all but top 3 bits
   9113  4a78		       f0 03		      beq	*+5	; if equal, do normal return
   9114  4a7a		       4c dd ff 	      JMP	BS_return
   9115  4a7d		       60		      RTS
   9116  4a7e				   .
   9117  4a7e							;;line 1618;;
   9118  4a7e
   9119  4a7e				   .
   9120  4a7e							;;line 1619;;
   9121  4a7e
   9122  4a7e				   .
   9123  4a7e							;;line 1620;;
   9124  4a7e
   9125  4a7e				   .
   9126  4a7e							;;line 1621;;
   9127  4a7e
   9128  4a7e				   .
   9129  4a7e							;;line 1622;;
   9130  4a7e
   9131  4a7e				   .__Left_to_Right
   9132  4a7e							;;line 1623;; __Left_to_Right
   9133  4a7e
   9134  4a7e				   .L0590		;;line 1624;;	gosub __Ghost_Sprite bank2
   9135  4a7e
   9136  4a7e		       85 ee		      sta	temp7
   9137  4a80		       a9 fa		      lda	#>(ret_point39-1)
   9138  4a82		       48		      pha
   9139  4a83		       a9 95		      lda	#<(ret_point39-1)
   9140  4a85		       48		      pha
   9141  4a86		       a9 b1		      lda	#>(.__Ghost_Sprite-1)
   9142  4a88		       48		      pha
   9143  4a89		       a9 7c		      lda	#<(.__Ghost_Sprite-1)
   9144  4a8b		       48		      pha
   9145  4a8c		       a5 ee		      lda	temp7
   9146  4a8e		       48		      pha
   9147  4a8f		       8a		      txa
   9148  4a90		       48		      pha
   9149  4a91		       a2 02		      ldx	#2
   9150  4a93		       4c eb ff 	      jmp	BS_jsr
   9151  4a96				   ret_point39
   9152  4a96				   .L0591		;;line 1625;;	_Ghost_x = _Ghost_x  +	1
   9153  4a96
   9154  4a96		       e6 af		      INC	_Ghost_x
   9155  4a98				   .
   9156  4a98							;;line 1626;;
   9157  4a98
   9158  4a98				   .L0592		;;line 1627;;	player0x = _Ghost_x
   9159  4a98
   9160  4a98		       a5 af		      LDA	_Ghost_x
   9161  4a9a		       85 80		      STA	player0x
   9162  4a9c				   .L0593		;;line 1628;;	if _Ghost_x  <	150 then player0y = 78 else player0y = 0
   9163  4a9c
   9164  4a9c		       a5 af		      LDA	_Ghost_x
   9165  4a9e		       c9 96		      CMP	#150
   9166  4aa0		       b0 07		      BCS	.skipL0593
   9167  4aa2				   .condpart204
   9168  4aa2		       a9 4e		      LDA	#78
   9169  4aa4		       85 85		      STA	player0y
   9170  4aa6		       4c ad fa 	      jmp	.skipelse15
   9171  4aa9				   .skipL0593
   9172  4aa9		       a9 00		      LDA	#0
   9173  4aab		       85 85		      STA	player0y
   9174  4aad				   .skipelse15
   9175  4aad				   .
   9176  4aad							;;line 1629;;
   9177  4aad
   9178  4aad				   .L0594		;;line 1630;;	gosub __Buster_Sprite bank2
   9179  4aad
   9180  4aad		       85 ee		      sta	temp7
   9181  4aaf		       a9 fa		      lda	#>(ret_point40-1)
   9182  4ab1		       48		      pha
   9183  4ab2		       a9 c4		      lda	#<(ret_point40-1)
   9184  4ab4		       48		      pha
   9185  4ab5		       a9 b0		      lda	#>(.__Buster_Sprite-1)
   9186  4ab7		       48		      pha
   9187  4ab8		       a9 ff		      lda	#<(.__Buster_Sprite-1)
   9188  4aba		       48		      pha
   9189  4abb		       a5 ee		      lda	temp7
   9190  4abd		       48		      pha
   9191  4abe		       8a		      txa
   9192  4abf		       48		      pha
   9193  4ac0		       a2 02		      ldx	#2
   9194  4ac2		       4c eb ff 	      jmp	BS_jsr
   9195  4ac5				   ret_point40
   9196  4ac5				   .L0595		;;line 1631;;	REFP1 = 0
   9197  4ac5
   9198  4ac5		       a9 00		      LDA	#0
   9199  4ac7		       85 0c		      STA	REFP1
   9200  4ac9				   .
   9201  4ac9							;;line 1632;;
   9202  4ac9
   9203  4ac9				   .L0596		;;line 1633;;	_Previous_x = _Ghost_x	-  30
   9204  4ac9
   9205  4ac9		       a5 af		      LDA	_Ghost_x
   9206  4acb		       38		      SEC
   9207  4acc		       e9 1e		      SBC	#30
   9208  4ace		       85 ad		      STA	_Previous_x
   9209  4ad0				   .L0597		;;line 1634;;	player1x = _Previous_x
   9210  4ad0
   9211  4ad0		       a5 ad		      LDA	_Previous_x
   9212  4ad2		       85 81		      STA	player1x
   9213  4ad4				   .L0598		;;line 1635;;	if _Previous_x	<  150 then player1y = 80 else player1y = 0
   9214  4ad4
   9215  4ad4		       a5 ad		      LDA	_Previous_x
   9216  4ad6		       c9 96		      CMP	#150
   9217  4ad8		       b0 07		      BCS	.skipL0598
   9218  4ada				   .condpart205
   9219  4ada		       a9 50		      LDA	#80
   9220  4adc		       85 86		      STA	player1y
   9221  4ade		       4c e5 fa 	      jmp	.skipelse16
   9222  4ae1				   .skipL0598
   9223  4ae1		       a9 00		      LDA	#0
   9224  4ae3		       85 86		      STA	player1y
   9225  4ae5				   .skipelse16
   9226  4ae5				   .
   9227  4ae5							;;line 1636;;
   9228  4ae5
   9229  4ae5				   .L0599		;;line 1637;;	if _Ghost_x  >	200 then _Ghost_Direction = 0  :  _Previous_x = 175
   9230  4ae5
   9231  4ae5		       a9 c8		      LDA	#200
   9232  4ae7		       c5 af		      CMP	_Ghost_x
   9233  4ae9		       b0 08		      BCS	.skipL0599
   9234  4aeb				   .condpart206
   9235  4aeb		       a9 00		      LDA	#0
   9236  4aed		       85 b2		      STA	_Ghost_Direction
   9237  4aef		       a9 af		      LDA	#175
   9238  4af1		       85 ad		      STA	_Previous_x
   9239  4af3				   .skipL0599
   9240  4af3				   .L0600		;;line 1638;;	return
   9241  4af3
   9242  4af3		       ba		      tsx
   9243  4af4		       b5 02		      lda	2,x	; check return address
   9244  4af6		       49 fa		      eor	#(>*)	; vs. current PCH
   9245  4af8		       29 e0		      and	#$E0	;  mask off all but top 3 bits
   9246  4afa		       f0 03		      beq	*+5	; if equal, do normal return
   9247  4afc		       4c dd ff 	      JMP	BS_return
   9248  4aff		       60		      RTS
   9249  4b00				   .
   9250  4b00							;;line 1639;;
   9251  4b00
   9252  4b00				   .__Right_to_Left
   9253  4b00							;;line 1640;; __Right_to_Left
   9254  4b00
   9255  4b00				   .L0601		;;line 1641;;	gosub __Buster_Sprite bank2
   9256  4b00
   9257  4b00		       85 ee		      sta	temp7
   9258  4b02		       a9 fb		      lda	#>(ret_point41-1)
   9259  4b04		       48		      pha
   9260  4b05		       a9 17		      lda	#<(ret_point41-1)
   9261  4b07		       48		      pha
   9262  4b08		       a9 b0		      lda	#>(.__Buster_Sprite-1)
   9263  4b0a		       48		      pha
   9264  4b0b		       a9 ff		      lda	#<(.__Buster_Sprite-1)
   9265  4b0d		       48		      pha
   9266  4b0e		       a5 ee		      lda	temp7
   9267  4b10		       48		      pha
   9268  4b11		       8a		      txa
   9269  4b12		       48		      pha
   9270  4b13		       a2 02		      ldx	#2
   9271  4b15		       4c eb ff 	      jmp	BS_jsr
   9272  4b18				   ret_point41
   9273  4b18				   .L0602		;;line 1642;;	REFP1 = 8
   9274  4b18
   9275  4b18		       a9 08		      LDA	#8
   9276  4b1a		       85 0c		      STA	REFP1
   9277  4b1c				   .
   9278  4b1c							;;line 1643;;
   9279  4b1c
   9280  4b1c				   .L0603		;;line 1644;;	_Previous_x = _Previous_x  -  1
   9281  4b1c
   9282  4b1c		       c6 ad		      DEC	_Previous_x
   9283  4b1e				   .L0604		;;line 1645;;	player1x = _Previous_x
   9284  4b1e
   9285  4b1e		       a5 ad		      LDA	_Previous_x
   9286  4b20		       85 81		      STA	player1x
   9287  4b22				   .L0605		;;line 1646;;	if _Previous_x	<  150 then player1y = 80 else player1y = 0
   9288  4b22
   9289  4b22		       a5 ad		      LDA	_Previous_x
   9290  4b24		       c9 96		      CMP	#150
   9291  4b26		       b0 07		      BCS	.skipL0605
   9292  4b28				   .condpart207
   9293  4b28		       a9 50		      LDA	#80
   9294  4b2a		       85 86		      STA	player1y
   9295  4b2c		       4c 33 fb 	      jmp	.skipelse17
   9296  4b2f				   .skipL0605
   9297  4b2f		       a9 00		      LDA	#0
   9298  4b31		       85 86		      STA	player1y
   9299  4b33				   .skipelse17
   9300  4b33				   .
   9301  4b33							;;line 1647;;
   9302  4b33
   9303  4b33				   .L0606		;;line 1648;;	gosub __Ghost_Sprite bank2
   9304  4b33
   9305  4b33		       85 ee		      sta	temp7
   9306  4b35		       a9 fb		      lda	#>(ret_point42-1)
   9307  4b37		       48		      pha
   9308  4b38		       a9 4a		      lda	#<(ret_point42-1)
   9309  4b3a		       48		      pha
   9310  4b3b		       a9 b1		      lda	#>(.__Ghost_Sprite-1)
   9311  4b3d		       48		      pha
   9312  4b3e		       a9 7c		      lda	#<(.__Ghost_Sprite-1)
   9313  4b40		       48		      pha
   9314  4b41		       a5 ee		      lda	temp7
   9315  4b43		       48		      pha
   9316  4b44		       8a		      txa
   9317  4b45		       48		      pha
   9318  4b46		       a2 02		      ldx	#2
   9319  4b48		       4c eb ff 	      jmp	BS_jsr
   9320  4b4b				   ret_point42
   9321  4b4b				   .
   9322  4b4b							;;line 1649;;
   9323  4b4b
   9324  4b4b				   .L0607		;;line 1650;;	_Ghost_x = _Previous_x	-  30
   9325  4b4b
   9326  4b4b		       a5 ad		      LDA	_Previous_x
   9327  4b4d		       38		      SEC
   9328  4b4e		       e9 1e		      SBC	#30
   9329  4b50		       85 af		      STA	_Ghost_x
   9330  4b52				   .L0608		;;line 1651;;	player0x = _Ghost_x
   9331  4b52
   9332  4b52		       a5 af		      LDA	_Ghost_x
   9333  4b54		       85 80		      STA	player0x
   9334  4b56				   .L0609		;;line 1652;;	if _Ghost_x  <	150 then player0y = 78 else player0y = 0
   9335  4b56
   9336  4b56		       a5 af		      LDA	_Ghost_x
   9337  4b58		       c9 96		      CMP	#150
   9338  4b5a		       b0 07		      BCS	.skipL0609
   9339  4b5c				   .condpart208
   9340  4b5c		       a9 4e		      LDA	#78
   9341  4b5e		       85 85		      STA	player0y
   9342  4b60		       4c 67 fb 	      jmp	.skipelse18
   9343  4b63				   .skipL0609
   9344  4b63		       a9 00		      LDA	#0
   9345  4b65		       85 85		      STA	player0y
   9346  4b67				   .skipelse18
   9347  4b67				   .
   9348  4b67							;;line 1653;;
   9349  4b67
   9350  4b67				   .L0610		;;line 1654;;	if _Previous_x	>  175	&&  _Previous_x  <  220 then _Ghost_Direction = 1  :  _Ghost_x = 0
   9351  4b67
   9352  4b67		       a9 af		      LDA	#175
   9353  4b69		       c5 ad		      CMP	_Previous_x
   9354  4b6b		       b0 0e		      BCS	.skipL0610
   9355  4b6d				   .condpart209
   9356  4b6d		       a5 ad		      LDA	_Previous_x
   9357  4b6f		       c9 dc		      CMP	#220
   9358  4b71		       b0 08		      BCS	.skip209then
   9359  4b73				   .condpart210
   9360  4b73		       a9 01		      LDA	#1
   9361  4b75		       85 b2		      STA	_Ghost_Direction
   9362  4b77		       a9 00		      LDA	#0
   9363  4b79		       85 af		      STA	_Ghost_x
   9364  4b7b				   .skip209then
   9365  4b7b				   .skipL0610
   9366  4b7b				   .
   9367  4b7b							;;line 1655;;
   9368  4b7b
   9369  4b7b				   .L0611		;;line 1656;;	return
   9370  4b7b
   9371  4b7b		       ba		      tsx
   9372  4b7c		       b5 02		      lda	2,x	; check return address
   9373  4b7e		       49 fb		      eor	#(>*)	; vs. current PCH
   9374  4b80		       29 e0		      and	#$E0	;  mask off all but top 3 bits
   9375  4b82		       f0 03		      beq	*+5	; if equal, do normal return
   9376  4b84		       4c dd ff 	      JMP	BS_return
   9377  4b87		       60		      RTS
   9378  4b88				   .
   9379  4b88							;;line 1657;;
   9380  4b88
   9381  4b88				   .
   9382  4b88							;;line 1658;;
   9383  4b88
   9384  4b88				   .
   9385  4b88							;;line 1659;;
   9386  4b88
   9387  4b88				   .
   9388  4b88							;;line 1660;;
   9389  4b88
   9390  4b88				   .
   9391  4b88							;;line 1661;;
   9392  4b88
   9393  4b88				   .__End_Title
   9394  4b88							;;line 1662;; __End_Title
   9395  4b88
   9396  4b88				   .L0612		;;line 1663;;	AUDV0 = 0
   9397  4b88
   9398  4b88		       a9 00		      LDA	#0
   9399  4b8a		       85 19		      STA	AUDV0
   9400  4b8c				   .L0613		;;line 1664;;	goto __End_Theme bank1
   9401  4b8c		       85 ee		      sta	temp7
   9402  4b8e		       a9 92		      lda	#>(.__End_Theme-1)
   9403  4b90		       48		      pha
   9404  4b91		       a9 26		      lda	#<(.__End_Theme-1)
   9405  4b93		       48		      pha
   9406  4b94		       a5 ee		      lda	temp7
   9407  4b96		       48		      pha
   9408  4b97		       8a		      txa
   9409  4b98		       48		      pha
   9410  4b99		       a2 01		      ldx	#1
   9411  4b9b		       4c eb ff 	      jmp	BS_jsr
   9412  4b9e				  -	      ifconst	pfres
   9413  4b9e				  -	      if	(<*) > 235-pfres
   9414  4b9e				  -	      repeat	(265+pfres-<*)
   9415  4b9e				  -	      .byte	0
   9416  4b9e				  -	      repend
   9417  4b9e				  -	      endif
   9418  4b9e				  -	      if	(<*) < (pfres+9)
   9419  4b9e				  -	      repeat	((pfres+9)-(<*))
   9420  4b9e				  -	      .byte	0
   9421  4b9e				  -	      repend
   9422  4b9e				  -	      endif
   9423  4b9e					      else
   9424  4b9e				  -	      if	(<*) > 223
   9425  4b9e				  -	      repeat	(277-<*)
   9426  4b9e				  -	      .byte	0
   9427  4b9e				  -	      repend
   9428  4b9e					      endif
   9429  4b9e				  -	      if	(<*) < 21
   9430  4b9e				  -	      repeat	(21-(<*))
   9431  4b9e				  -	      .byte	0
   9432  4b9e				  -	      repend
   9433  4b9e					      endif
   9434  4b9e					      endif
   9435  4b9e				   pfcolorlabel18
   9436  4b9e		       08		      .byte.b	8
   9437  4b9f		       09		      .byte.b	9
   9438  4ba0		       04		      .byte.b	4
   9439  4ba1		       11		      .byte.b	17
   9440  4ba2		       04		      .byte.b	4
   9441  4ba3		       11		      .byte.b	17
   9442  4ba4		       04		      .byte.b	4
   9443  4ba5		       09		      .byte.b	9
   9444  4ba6		       08		      .byte.b	8
   9445  4ba7		       04		      .byte.b	4
   9446  4ba8				  -	      if	(<*) > (<(*+12))
   9447  4ba8				  -	      repeat	($100-<*)
   9448  4ba8				  -	      .byte	0
   9449  4ba8				  -	      repend
   9450  4ba8					      endif
   9451  4ba8				   playercolorL0117_1
   9452  4ba8		       00		      .byte.b	$00
   9453  4ba9		       00		      .byte.b	$00
   9454  4baa		       f8		      .byte.b	$F8
   9455  4bab		       f8		      .byte.b	$F8
   9456  4bac		       f8		      .byte.b	$F8
   9457  4bad		       3e		      .byte.b	$3E
   9458  4bae		       00		      .byte.b	$00
   9459  4baf		       f8		      .byte.b	$F8
   9460  4bb0		       3e		      .byte.b	$3E
   9461  4bb1		       3e		      .byte.b	$3E
   9462  4bb2		       3e		      .byte.b	$3E
   9463  4bb3		       f0		      .byte.b	$F0
   9464  4bb4		       c2		      .byte.b	$C2
   9465  4bb5				  -	      if	(<*) > (<(*+12))
   9466  4bb5				  -	      repeat	($100-<*)
   9467  4bb5				  -	      .byte	0
   9468  4bb5				  -	      repend
   9469  4bb5					      endif
   9470  4bb5				   playercolorL0292_1
   9471  4bb5		       d0		      .byte.b	$D0
   9472  4bb6		       d0		      .byte.b	$D0
   9473  4bb7		       d8		      .byte.b	$D8
   9474  4bb8		       d8		      .byte.b	$D8
   9475  4bb9		       d8		      .byte.b	$D8
   9476  4bba		       de		      .byte.b	$DE
   9477  4bbb		       d0		      .byte.b	$D0
   9478  4bbc		       d8		      .byte.b	$D8
   9479  4bbd		       de		      .byte.b	$DE
   9480  4bbe		       de		      .byte.b	$DE
   9481  4bbf		       de		      .byte.b	$DE
   9482  4bc0		       d0		      .byte.b	$D0
   9483  4bc1		       d2		      .byte.b	$D2
   9484  4bc2				  -	      if	(<*) > (<(*+12))
   9485  4bc2				  -	      repeat	($100-<*)
   9486  4bc2				  -	      .byte	0
   9487  4bc2				  -	      repend
   9488  4bc2					      endif
   9489  4bc2				   player111then_1
   9490  4bc2		       3c		      .byte.b	%00111100
   9491  4bc3		       28		      .byte.b	%00101000
   9492  4bc4		       28		      .byte.b	%00101000
   9493  4bc5		       38		      .byte.b	%00111000
   9494  4bc6		       38		      .byte.b	%00111000
   9495  4bc7		       24		      .byte.b	%00100100
   9496  4bc8		       3f		      .byte.b	%00111111
   9497  4bc9		       38		      .byte.b	%00111000
   9498  4bca		       10		      .byte.b	%00010000
   9499  4bcb		       18		      .byte.b	%00011000
   9500  4bcc		       18		      .byte.b	%00011000
   9501  4bcd		       18		      .byte.b	%00011000
   9502  4bce		       08		      .byte.b	%00001000
   9503  4bcf				  -	      if	(<*) > (<(*+12))
   9504  4bcf				  -	      repeat	($100-<*)
   9505  4bcf				  -	      .byte	0
   9506  4bcf				  -	      repend
   9507  4bcf					      endif
   9508  4bcf				   playercolorL0348_1
   9509  4bcf		       00		      .byte.b	$00
   9510  4bd0		       00		      .byte.b	$00
   9511  4bd1		       f8		      .byte.b	$F8
   9512  4bd2		       f8		      .byte.b	$F8
   9513  4bd3		       f8		      .byte.b	$F8
   9514  4bd4		       3e		      .byte.b	$3E
   9515  4bd5		       00		      .byte.b	$00
   9516  4bd6		       f8		      .byte.b	$F8
   9517  4bd7		       3e		      .byte.b	$3E
   9518  4bd8		       3e		      .byte.b	$3E
   9519  4bd9		       3e		      .byte.b	$3E
   9520  4bda		       f0		      .byte.b	$F0
   9521  4bdb		       c2		      .byte.b	$C2
   9522  4bdc				  -	      if	(<*) > (<(*+12))
   9523  4bdc				  -	      repeat	($100-<*)
   9524  4bdc				  -	      .byte	0
   9525  4bdc				  -	      repend
   9526  4bdc					      endif
   9527  4bdc				   player113then_1
   9528  4bdc		       0c		      .byte.b	%00001100
   9529  4bdd		       38		      .byte.b	%00111000
   9530  4bde		       28		      .byte.b	%00101000
   9531  4bdf		       38		      .byte.b	%00111000
   9532  4be0		       38		      .byte.b	%00111000
   9533  4be1		       24		      .byte.b	%00100100
   9534  4be2		       3f		      .byte.b	%00111111
   9535  4be3		       38		      .byte.b	%00111000
   9536  4be4		       10		      .byte.b	%00010000
   9537  4be5		       18		      .byte.b	%00011000
   9538  4be6		       18		      .byte.b	%00011000
   9539  4be7		       18		      .byte.b	%00011000
   9540  4be8		       08		      .byte.b	%00001000
   9541  4be9				  -	      if	(<*) > (<(*+12))
   9542  4be9				  -	      repeat	($100-<*)
   9543  4be9				  -	      .byte	0
   9544  4be9				  -	      repend
   9545  4be9					      endif
   9546  4be9				   player115then_1
   9547  4be9		       3c		      .byte.b	%00111100
   9548  4bea		       28		      .byte.b	%00101000
   9549  4beb		       28		      .byte.b	%00101000
   9550  4bec		       38		      .byte.b	%00111000
   9551  4bed		       38		      .byte.b	%00111000
   9552  4bee		       24		      .byte.b	%00100100
   9553  4bef		       3f		      .byte.b	%00111111
   9554  4bf0		       38		      .byte.b	%00111000
   9555  4bf1		       10		      .byte.b	%00010000
   9556  4bf2		       18		      .byte.b	%00011000
   9557  4bf3		       18		      .byte.b	%00011000
   9558  4bf4		       18		      .byte.b	%00011000
   9559  4bf5		       08		      .byte.b	%00001000
   9560  4bf6					      if	(<*) > (<(*+12))
   9561  4bf6					      repeat	($100-<*)
   9562  4bf6		       00		      .byte.b	0
   9561  4bf6					      repend
   9562  4bf7		       00		      .byte.b	0
   9561  4bf7					      repend
   9562  4bf8		       00		      .byte.b	0
   9561  4bf8					      repend
   9562  4bf9		       00		      .byte.b	0
   9561  4bf9					      repend
   9562  4bfa		       00		      .byte.b	0
   9561  4bfa					      repend
   9562  4bfb		       00		      .byte.b	0
   9561  4bfb					      repend
   9562  4bfc		       00		      .byte.b	0
   9561  4bfc					      repend
   9562  4bfd		       00		      .byte.b	0
   9561  4bfd					      repend
   9562  4bfe		       00		      .byte.b	0
   9561  4bfe					      repend
   9562  4bff		       00		      .byte.b	0
   9563  4c00					      repend
   9564  4c00					      endif
   9565  4c00				   player116then_1
   9566  4c00		       30		      .byte.b	%00110000
   9567  4c01		       2c		      .byte.b	%00101100
   9568  4c02		       28		      .byte.b	%00101000
   9569  4c03		       38		      .byte.b	%00111000
   9570  4c04		       38		      .byte.b	%00111000
   9571  4c05		       24		      .byte.b	%00100100
   9572  4c06		       3f		      .byte.b	%00111111
   9573  4c07		       38		      .byte.b	%00111000
   9574  4c08		       10		      .byte.b	%00010000
   9575  4c09		       18		      .byte.b	%00011000
   9576  4c0a		       18		      .byte.b	%00011000
   9577  4c0b		       18		      .byte.b	%00011000
   9578  4c0c		       08		      .byte.b	%00001000
   9579  4c0d				  -	      if	(<*) > (<(*+6))
   9580  4c0d				  -	      repeat	($100-<*)
   9581  4c0d				  -	      .byte	0
   9582  4c0d				  -	      repend
   9583  4c0d					      endif
   9584  4c0d				   playerL0354_0
   9585  4c0d		       aa		      .byte.b	%10101010
   9586  4c0e		       ff		      .byte.b	%11111111
   9587  4c0f		       ff		      .byte.b	%11111111
   9588  4c10		       ff		      .byte.b	%11111111
   9589  4c11		       db		      .byte.b	%11011011
   9590  4c12		       7e		      .byte.b	%01111110
   9591  4c13		       3c		      .byte.b	%00111100
   9592  4c14				  -	      ifconst	pfres
   9593  4c14				  -	      if	(<*) > 235-pfres
   9594  4c14				  -	      repeat	(265+pfres-<*)
   9595  4c14				  -	      .byte	0
   9596  4c14				  -	      repend
   9597  4c14				  -	      endif
   9598  4c14				  -	      if	(<*) < (pfres+9)
   9599  4c14				  -	      repeat	((pfres+9)-(<*))
   9600  4c14				  -	      .byte	0
   9601  4c14				  -	      repend
   9602  4c14				  -	      endif
   9603  4c14					      else
   9604  4c14				  -	      if	(<*) > 223
   9605  4c14				  -	      repeat	(277-<*)
   9606  4c14				  -	      .byte	0
   9607  4c14				  -	      repend
   9608  4c14					      endif
   9609  4c14					      if	(<*) < 21
   9610  4c14					      repeat	(21-(<*))
   9611  4c14		       00		      .byte.b	0
   9612  4c15					      repend
   9613  4c15					      endif
   9614  4c15					      endif
   9615  4c15				   pfcolorlabel177
   9616  4c15		       08		      .byte.b	8
   9617  4c16		       08		      .byte.b	8
   9618  4c17		       08		      .byte.b	8
   9619  4c18		       08		      .byte.b	8
   9620  4c19		       08		      .byte.b	8
   9621  4c1a		       08		      .byte.b	8
   9622  4c1b		       08		      .byte.b	8
   9623  4c1c		       08		      .byte.b	8
   9624  4c1d		       08		      .byte.b	8
   9625  4c1e		       08		      .byte.b	8
   9626  4c1f				  -	      ifconst	pfres
   9627  4c1f				  -	      if	(<*) > 235-pfres
   9628  4c1f				  -	      repeat	(265+pfres-<*)
   9629  4c1f				  -	      .byte	0
   9630  4c1f				  -	      repend
   9631  4c1f				  -	      endif
   9632  4c1f				  -	      if	(<*) < (pfres+9)
   9633  4c1f				  -	      repeat	((pfres+9)-(<*))
   9634  4c1f				  -	      .byte	0
   9635  4c1f				  -	      repend
   9636  4c1f				  -	      endif
   9637  4c1f					      else
   9638  4c1f				  -	      if	(<*) > 223
   9639  4c1f				  -	      repeat	(277-<*)
   9640  4c1f				  -	      .byte	0
   9641  4c1f				  -	      repend
   9642  4c1f					      endif
   9643  4c1f				  -	      if	(<*) < 21
   9644  4c1f				  -	      repeat	(21-(<*))
   9645  4c1f				  -	      .byte	0
   9646  4c1f				  -	      repend
   9647  4c1f					      endif
   9648  4c1f					      endif
   9649  4c1f				   pfcolorlabel206
   9650  4c1f		       04		      .byte.b	4
   9651  4c20		       08		      .byte.b	8
   9652  4c21		       08		      .byte.b	8
   9653  4c22		       04		      .byte.b	4
   9654  4c23		       08		      .byte.b	8
   9655  4c24		       08		      .byte.b	8
   9656  4c25		       04		      .byte.b	4
   9657  4c26		       0c		      .byte.b	12
   9658  4c27		       0c		      .byte.b	12
   9659  4c28		       0c		      .byte.b	12
   9660  4c29					      if	ECHOFIRST
      843 bytes of ROM space left in bank 4
   9661  4c29					      echo	"    ",[(scoretable - *)]d , "bytes of ROM space left in bank 4")
   9662  4c29					      endif
   9663  4c29		       00 01	   ECHOFIRST  =	1
   9664  4c29
   9665  4c29
   9666  4c29							; Provided under the CC0 license. See the included LICENSE.txt for details.
   9667  4c29							; font equates
   9668  4c29		       00 01	   .21stcentury =	1
   9669  4c29		       00 02	   alarmclock =	2
   9670  4c29		       00 03	   handwritten =	3
   9671  4c29		       00 04	   interrupted =	4
   9672  4c29		       00 05	   retroputer =	5
   9673  4c29		       00 06	   whimsey    =	6
   9674  4c29		       00 07	   tiny       =	7
   9675  4c29		       00 08	   hex	      =	8
   9676  4c29
   9677  4c29							; feel free to modify the score graphics - just keep each digit 8 high
   9678  4c29							; and keep the conditional compilation stuff intact
   9679  4c29					      ifnconst	PXE
   9680  4c29				  -	      ifconst	ROM2k
   9681  4c29				  -	      ORG	$F7AC-8
   9682  4c29					      else
   9683  4c29					      ifconst	bankswitch
   9684  4c29				  -	      if	bankswitch == 8
   9685  4c29				  -	      ORG	$2F94-bscode_length
   9686  4c29				  -	      RORG	$FF94-bscode_length
   9687  4c29					      endif
   9688  4c29					      if	bankswitch == 16
   9689  4f74					      ORG	$4F94-bscode_length
   9690  4f74					      RORG	$FF94-bscode_length
   9691  4f74					      endif
   9692  4f74				  -	      if	bankswitch == 32
   9693  4f74				  -	      ORG	$8F94-bscode_length
   9694  4f74				  -	      RORG	$FF94-bscode_length
   9695  4f74					      endif
   9696  4f74				  -	      if	bankswitch == 64
   9697  4f74				  -	      ORG	$10F80-bscode_length
   9698  4f74				  -	      RORG	$1FF80-bscode_length
   9699  4f74					      endif
   9700  4f74				  -	      else
   9701  4f74				  -	      ORG	$FF9C
   9702  4f74					      endif
   9703  4f74					      endif
   9704  4f74
   9705  4f74
   9706  4f74				  -	      ifconst	font
   9707  4f74				  -	      if	font == hex
   9708  4f74				  -	      ORG	. - 48
   9709  4f74				  -	      endif
   9710  4f74					      endif
   9711  4f74					      endif
   9712  4f74
   9713  4f74				   scoretable
   9714  4f74
   9715  4f74				  -	      ifconst	font
   9716  4f74				  -	      if	font == .21stcentury
   9717  4f74				  -	      include	"score_graphics.asm.21stcentury"
   9718  4f74				  -	      endif
   9719  4f74				  -	      if	font == alarmclock
   9720  4f74				  -	      include	"score_graphics.asm.alarmclock"
   9721  4f74				  -	      endif
   9722  4f74				  -	      if	font == handwritten
   9723  4f74				  -	      include	"score_graphics.asm.handwritten"
   9724  4f74				  -	      endif
   9725  4f74				  -	      if	font == interrupted
   9726  4f74				  -	      include	"score_graphics.asm.interrupted"
   9727  4f74				  -	      endif
   9728  4f74				  -	      if	font == retroputer
   9729  4f74				  -	      include	"score_graphics.asm.retroputer"
   9730  4f74				  -	      endif
   9731  4f74				  -	      if	font == whimsey
   9732  4f74				  -	      include	"score_graphics.asm.whimsey"
   9733  4f74				  -	      endif
   9734  4f74				  -	      if	font == tiny
   9735  4f74				  -	      include	"score_graphics.asm.tiny"
   9736  4f74				  -	      endif
   9737  4f74				  -	      if	font == hex
   9738  4f74				  -	      include	"score_graphics.asm.hex"
   9739  4f74				  -	      endif
   9740  4f74					      else		; default font
   9741  4f74
   9742  4f74		       3c		      .byte.b	%00111100
   9743  4f75		       66		      .byte.b	%01100110
   9744  4f76		       66		      .byte.b	%01100110
   9745  4f77		       66		      .byte.b	%01100110
   9746  4f78		       66		      .byte.b	%01100110
   9747  4f79		       66		      .byte.b	%01100110
   9748  4f7a		       66		      .byte.b	%01100110
   9749  4f7b		       3c		      .byte.b	%00111100
   9750  4f7c
   9751  4f7c		       7e		      .byte.b	%01111110
   9752  4f7d		       18		      .byte.b	%00011000
   9753  4f7e		       18		      .byte.b	%00011000
   9754  4f7f		       18		      .byte.b	%00011000
   9755  4f80		       18		      .byte.b	%00011000
   9756  4f81		       38		      .byte.b	%00111000
   9757  4f82		       18		      .byte.b	%00011000
   9758  4f83		       08		      .byte.b	%00001000
   9759  4f84
   9760  4f84		       7e		      .byte.b	%01111110
   9761  4f85		       60		      .byte.b	%01100000
   9762  4f86		       60		      .byte.b	%01100000
   9763  4f87		       3c		      .byte.b	%00111100
   9764  4f88		       06		      .byte.b	%00000110
   9765  4f89		       06		      .byte.b	%00000110
   9766  4f8a		       46		      .byte.b	%01000110
   9767  4f8b		       3c		      .byte.b	%00111100
   9768  4f8c
   9769  4f8c		       3c		      .byte.b	%00111100
   9770  4f8d		       46		      .byte.b	%01000110
   9771  4f8e		       06		      .byte.b	%00000110
   9772  4f8f		       06		      .byte.b	%00000110
   9773  4f90		       1c		      .byte.b	%00011100
   9774  4f91		       06		      .byte.b	%00000110
   9775  4f92		       46		      .byte.b	%01000110
   9776  4f93		       3c		      .byte.b	%00111100
   9777  4f94
   9778  4f94		       0c		      .byte.b	%00001100
   9779  4f95		       0c		      .byte.b	%00001100
   9780  4f96		       7e		      .byte.b	%01111110
   9781  4f97		       4c		      .byte.b	%01001100
   9782  4f98		       4c		      .byte.b	%01001100
   9783  4f99		       2c		      .byte.b	%00101100
   9784  4f9a		       1c		      .byte.b	%00011100
   9785  4f9b		       0c		      .byte.b	%00001100
   9786  4f9c
   9787  4f9c		       3c		      .byte.b	%00111100
   9788  4f9d		       46		      .byte.b	%01000110
   9789  4f9e		       06		      .byte.b	%00000110
   9790  4f9f		       06		      .byte.b	%00000110
   9791  4fa0		       3c		      .byte.b	%00111100
   9792  4fa1		       60		      .byte.b	%01100000
   9793  4fa2		       60		      .byte.b	%01100000
   9794  4fa3		       7e		      .byte.b	%01111110
   9795  4fa4
   9796  4fa4		       3c		      .byte.b	%00111100
   9797  4fa5		       66		      .byte.b	%01100110
   9798  4fa6		       66		      .byte.b	%01100110
   9799  4fa7		       66		      .byte.b	%01100110
   9800  4fa8		       7c		      .byte.b	%01111100
   9801  4fa9		       60		      .byte.b	%01100000
   9802  4faa		       62		      .byte.b	%01100010
   9803  4fab		       3c		      .byte.b	%00111100
   9804  4fac
   9805  4fac		       30		      .byte.b	%00110000
   9806  4fad		       30		      .byte.b	%00110000
   9807  4fae		       30		      .byte.b	%00110000
   9808  4faf		       18		      .byte.b	%00011000
   9809  4fb0		       0c		      .byte.b	%00001100
   9810  4fb1		       06		      .byte.b	%00000110
   9811  4fb2		       42		      .byte.b	%01000010
   9812  4fb3		       3e		      .byte.b	%00111110
   9813  4fb4
   9814  4fb4		       3c		      .byte.b	%00111100
   9815  4fb5		       66		      .byte.b	%01100110
   9816  4fb6		       66		      .byte.b	%01100110
   9817  4fb7		       66		      .byte.b	%01100110
   9818  4fb8		       3c		      .byte.b	%00111100
   9819  4fb9		       66		      .byte.b	%01100110
   9820  4fba		       66		      .byte.b	%01100110
   9821  4fbb		       3c		      .byte.b	%00111100
   9822  4fbc
   9823  4fbc		       3c		      .byte.b	%00111100
   9824  4fbd		       46		      .byte.b	%01000110
   9825  4fbe		       06		      .byte.b	%00000110
   9826  4fbf		       3e		      .byte.b	%00111110
   9827  4fc0		       66		      .byte.b	%01100110
   9828  4fc1		       66		      .byte.b	%01100110
   9829  4fc2		       66		      .byte.b	%01100110
   9830  4fc3		       3c		      .byte.b	%00111100
   9831  4fc4
   9832  4fc4					      ifnconst	DPC_kernel_options
   9833  4fc4
   9834  4fc4		       00		      .byte.b	%00000000
   9835  4fc5		       00		      .byte.b	%00000000
   9836  4fc6		       00		      .byte.b	%00000000
   9837  4fc7		       00		      .byte.b	%00000000
   9838  4fc8		       00		      .byte.b	%00000000
   9839  4fc9		       00		      .byte.b	%00000000
   9840  4fca		       00		      .byte.b	%00000000
   9841  4fcb		       00		      .byte.b	%00000000
   9842  4fcc
   9843  4fcc					      endif
   9844  4fcc
   9845  4fcc					      endif
   9846  4fcc
   9847  4fcc					      ifnconst	PXE
   9848  4fcc				  -	      ifconst	ROM2k
   9849  4fcc				  -	      ORG	$F7FC
   9850  4fcc					      else
   9851  4fcc					      ifconst	bankswitch
   9852  4fcc				  -	      if	bankswitch == 8
   9853  4fcc				  -	      ORG	$2FF4-bscode_length
   9854  4fcc				  -	      RORG	$FFF4-bscode_length
   9855  4fcc					      endif
   9856  4fcc					      if	bankswitch == 16
   9857  4fd4					      ORG	$4FF4-bscode_length
   9858  4fd4					      RORG	$FFF4-bscode_length
   9859  4fd4					      endif
   9860  4fd4				  -	      if	bankswitch == 32
   9861  4fd4				  -	      ORG	$8FF4-bscode_length
   9862  4fd4				  -	      RORG	$FFF4-bscode_length
   9863  4fd4					      endif
   9864  4fd4				  -	      if	bankswitch == 64
   9865  4fd4				  -	      ORG	$10FE0-bscode_length
   9866  4fd4				  -	      RORG	$1FFE0-bscode_length
   9867  4fd4					      endif
   9868  4fd4				  -	      else
   9869  4fd4				  -	      ORG	$FFFC
   9870  4fd4					      endif
   9871  4fd4					      endif
   9872  4fd4					      endif
   9873  4fd4							; Provided under the CC0 license. See the included LICENSE.txt for details.
   9874  4fd4
   9875  4fd4							; every bank has this stuff at the same place
   9876  4fd4							; this code can switch to/from any bank at any entry point
   9877  4fd4							; and can preserve register values
   9878  4fd4							; note: lines not starting with a space are not placed in all banks
   9879  4fd4							;
   9880  4fd4							; line below tells the compiler how long this is - do not remove
   9881  4fd4							;size=32
   9882  4fd4
   9883  4fd4				   begin_bscode
   9884  4fd4		       a2 ff		      ldx	#$ff
   9885  4fd6				  -	      ifconst	FASTFETCH	; using DPC+
   9886  4fd6				  -	      stx	FASTFETCH
   9887  4fd6					      endif
   9888  4fd6		       9a		      txs
   9889  4fd7				  -	      if	bankswitch == 64
   9890  4fd7				  -	      lda	#(((>(start-1)) & $0F) | $F0)
   9891  4fd7					      else
   9892  4fd7		       a9 f3		      lda	#>(start-1)
   9893  4fd9					      endif
   9894  4fd9		       48		      pha
   9895  4fda		       a9 51		      lda	#<(start-1)
   9896  4fdc		       48		      pha
   9897  4fdd
   9898  4fdd				   BS_return
   9899  4fdd		       48		      pha
   9900  4fde		       8a		      txa
   9901  4fdf		       48		      pha
   9902  4fe0		       ba		      tsx
   9903  4fe1
   9904  4fe1					      if	bankswitch != 64
   9905  4fe1		       b5 04		      lda	4,x	; get high byte of return address
   9906  4fe3
   9907  4fe3		       2a		      rol
   9908  4fe4		       2a		      rol
   9909  4fe5		       2a		      rol
   9910  4fe6		       2a		      rol
   9911  4fe7		       29 03		      and	#bs_mask	;1 3 or 7 for F8/F6/F4
   9912  4fe9		       aa		      tax
   9913  4fea		       e8		      inx
   9914  4feb				  -	      else
   9915  4feb				  -	      lda	4,x	; get high byte of return address
   9916  4feb				  -	      tay
   9917  4feb				  -	      ora	#$10	; change our bank nibble into a valid rom mirror
   9918  4feb				  -	      sta	4,x
   9919  4feb				  -	      tya
   9920  4feb				  -	      lsr
   9921  4feb				  -	      lsr
   9922  4feb				  -	      lsr
   9923  4feb				  -	      lsr
   9924  4feb				  -	      tax
   9925  4feb				  -	      inx
   9926  4feb					      endif
   9927  4feb
   9928  4feb				   BS_jsr
   9929  4feb		       bd f5 1f 	      lda	bankswitch_hotspot-1,x
   9930  4fee		       68		      pla
   9931  4fef		       aa		      tax
   9932  4ff0		       68		      pla
   9933  4ff1		       60		      rts
   9934  4ff2				  -	      if	((* & $1FFF) > ((bankswitch_hotspot & $1FFF) - 1))
   9935  4ff2				  -	      echo	"WARNING: size parameter in banksw.asm too small - the program probably will not work."
   9936  4ff2				  -	      echo	"Change to",[(*-begin_bscode+1)&$FF]d,"and try again."
   9937  4ff2					      endif
   9938  4ff2							; Provided under the CC0 license. See the included LICENSE.txt for details.
   9939  4ff2
   9940  4ff2					      ifconst	bankswitch
   9941  4ff2				  -	      if	bankswitch == 8
   9942  4ff2				  -	      ORG	$2FFC
   9943  4ff2				  -	      RORG	$FFFC
   9944  4ff2					      endif
   9945  4ff2					      if	bankswitch == 16
   9946  4ffc					      ORG	$4FFC
   9947  4ffc					      RORG	$FFFC
   9948  4ffc					      endif
   9949  4ffc				  -	      if	bankswitch == 32
   9950  4ffc				  -	      ORG	$8FFC
   9951  4ffc				  -	      RORG	$FFFC
   9952  4ffc					      endif
   9953  4ffc				  -	      if	bankswitch == 64
   9954  4ffc				  -	      ORG	$10FF0
   9955  4ffc				  -	      RORG	$1FFF0
   9956  4ffc				  -	      lda	$ffe0	; we use wasted space to assist stella with EF format auto-detection
   9957  4ffc				  -	      ORG	$10FF8
   9958  4ffc				  -	      RORG	$1FFF8
   9959  4ffc				  -	      ifconst	superchip
   9960  4ffc				  -	      .byte	"E","F","S","C"
   9961  4ffc				  -	      else
   9962  4ffc				  -	      .byte	"E","F","E","F"
   9963  4ffc				  -	      endif
   9964  4ffc				  -	      ORG	$10FFC
   9965  4ffc				  -	      RORG	$1FFFC
   9966  4ffc					      endif
   9967  4ffc				  -	      else
   9968  4ffc				  -	      ifconst	ROM2k
   9969  4ffc				  -	      ORG	$F7FC
   9970  4ffc				  -	      else
   9971  4ffc				  -	      ORG	$FFFC
   9972  4ffc				  -	      endif
   9973  4ffc					      endif
   9974  4ffc		       52 f3		      .word.w	(start & $ffff)
   9975  4ffe		       52 f3		      .word.w	(start & $ffff)
